Archive member included to satisfy reference by file (symbol)

arch/arm/lib/lib.a(ashldi3.o)
                              drivers/built-in.o (__aeabi_llsl)
arch/arm/lib/lib.a(ashrdi3.o)
                              drivers/mtd/nand/raw/built-in.o (__aeabi_lasr)
arch/arm/lib/lib.a(lib1funcs.o)
                              arch/arm/mach-imx/built-in.o (__aeabi_uidiv)
arch/arm/lib/lib.a(lshrdi3.o)
                              cmd/built-in.o (__aeabi_llsr)
arch/arm/lib/lib.a(uldivmod.o)
                              lib/built-in.o (__aeabi_uldivmod)
arch/arm/lib/lib.a(div0.o)    arch/arm/lib/lib.a(lib1funcs.o) (__div0)

Discarded input sections

 .data          0x0000000000000000        0x0 arch/arm/cpu/armv7/start.o
 .bss           0x0000000000000000        0x0 arch/arm/cpu/armv7/start.o
 .text.v7_arch_cp15_set_l2aux_ctrl
                0x0000000000000000        0x8 arch/arm/cpu/armv7/built-in.o
 .text.v7_arch_cp15_set_acr
                0x0000000000000000        0x8 arch/arm/cpu/armv7/built-in.o
 .text.sdelay   0x0000000000000000        0xc arch/arm/cpu/armv7/built-in.o
 .text.wait_on_value
                0x0000000000000000       0x38 arch/arm/cpu/armv7/built-in.o
 .text.s_init   0x0000000000000000        0x4 arch/arm/cpu/armv7/built-in.o
 .data          0x0000000000000000        0x0 arch/arm/cpu/armv7/built-in.o
 .bss           0x0000000000000000        0x0 arch/arm/cpu/armv7/built-in.o
 .text.armv7_boot_nonsec_default
                0x0000000000000000        0x8 arch/arm/lib/built-in.o
 .text.reset_misc
                0x0000000000000000        0x4 arch/arm/lib/built-in.o
 .text.enable_caches
                0x0000000000000000        0xc arch/arm/lib/built-in.o
 .text.invalidate_dcache_range
                0x0000000000000000        0x4 arch/arm/lib/built-in.o
 .text.flush_dcache_range
                0x0000000000000000        0x4 arch/arm/lib/built-in.o
 .text.flush_dcache_all
                0x0000000000000000        0xc arch/arm/lib/built-in.o
 .text.arm_init_before_mmu
                0x0000000000000000        0x4 arch/arm/lib/built-in.o
 .text.mmu_page_table_flush
                0x0000000000000000        0x4 arch/arm/lib/built-in.o
 .text.fdt_psci
                0x0000000000000000        0x8 arch/arm/lib/built-in.o
 .data          0x0000000000000000        0x0 arch/arm/lib/built-in.o
 .__secure_end  0x0000000000000000        0x0 arch/arm/lib/built-in.o
 .__secure_stack_start
                0x0000000000000000        0x0 arch/arm/lib/built-in.o
 .__secure_stack_end
                0x0000000000000000        0x0 arch/arm/lib/built-in.o
 .__secure_start
                0x0000000000000000        0x0 arch/arm/lib/built-in.o
 .bss           0x0000000000000000        0x0 arch/arm/lib/built-in.o
 .text          0x0000000000000000        0x0 arch/arm/mach-imx/built-in.o
 .text.imx_iomux_set_gpr_register
                0x0000000000000000       0x48 arch/arm/mach-imx/built-in.o
 .text.cpu_eth_init
                0x0000000000000000        0x4 arch/arm/mach-imx/built-in.o
 .text.cpu_mmc_init
                0x0000000000000000        0x4 arch/arm/mach-imx/built-in.o
 .text.set_chipselect_size
                0x0000000000000000       0x8c arch/arm/mach-imx/built-in.o
 .text.force_idle_bus
                0x0000000000000000      0x1c4 arch/arm/mach-imx/built-in.o
 .text.setup_i2c
                0x0000000000000000       0xb0 arch/arm/mach-imx/built-in.o
 .text.imx_sec_init
                0x0000000000000000        0x4 arch/arm/mach-imx/built-in.o
 .text.imx6_src_get_boot_mode
                0x0000000000000000       0x1c arch/arm/mach-imx/built-in.o
 .text.usec2ticks
                0x0000000000000000       0x64 arch/arm/mach-imx/built-in.o
 .text.get_nr_cpus
                0x0000000000000000       0x14 arch/arm/mach-imx/built-in.o
 .text.gpr_init
                0x0000000000000000       0xe0 arch/arm/mach-imx/built-in.o
 .text.enable_uart_clk
                0x0000000000000000       0x68 arch/arm/mach-imx/built-in.o
 .text.enable_usdhc_clk
                0x0000000000000000       0x4c arch/arm/mach-imx/built-in.o
 .text.enable_spi_clk
                0x0000000000000000       0x44 arch/arm/mach-imx/built-in.o
 .text.enable_lvds_bridge
                0x0000000000000000      0x24c arch/arm/mach-imx/built-in.o
 .text.enable_ipu_clock
                0x0000000000000000       0xc0 arch/arm/mach-imx/built-in.o
 .text.mx6_ecspi_fused
                0x0000000000000000       0x78 arch/arm/mach-imx/built-in.o
 .text.mx6_uart_fused
                0x0000000000000000       0xb4 arch/arm/mach-imx/built-in.o
 .rodata.__func__.9819
                0x0000000000000000        0xf arch/arm/mach-imx/built-in.o
 .data          0x0000000000000000        0x0 arch/arm/mach-imx/built-in.o
 .bss           0x0000000000000000        0x0 arch/arm/mach-imx/built-in.o
 .text          0x0000000000000000        0x0 board/freescale/common/built-in.o
 .data          0x0000000000000000        0x0 board/freescale/common/built-in.o
 .bss           0x0000000000000000        0x0 board/freescale/common/built-in.o
 .text          0x0000000000000000        0x0 board/freescale/mx6ullevk/built-in.o
 .data          0x0000000000000000        0x0 board/freescale/mx6ullevk/built-in.o
 .bss           0x0000000000000000        0x0 board/freescale/mx6ullevk/built-in.o
 .text          0x0000000000000000        0x0 cmd/built-in.o
 .text.gunzip_bmp
                0x0000000000000000        0x8 cmd/built-in.o
 .text.allow_unaligned
                0x0000000000000000        0x4 cmd/built-in.o
 .text.bootz_setup
                0x0000000000000000       0x18 cmd/built-in.o
 .text.invalidate_icache_all
                0x0000000000000000        0xc cmd/built-in.o
 .text.flush_dcache_all
                0x0000000000000000        0xc cmd/built-in.o
 .text.name_to_gpio
                0x0000000000000000        0xc cmd/built-in.o
 .text.i2c_init_board
                0x0000000000000000        0x4 cmd/built-in.o
 .data          0x0000000000000000        0x0 cmd/built-in.o
 .bss           0x0000000000000000        0x0 cmd/built-in.o
 .text          0x0000000000000000        0x0 common/built-in.o
 .text.hash_finish_crc32
                0x0000000000000000       0x30 common/built-in.o
 .text.hash_finish_crc16_ccitt
                0x0000000000000000       0x30 common/built-in.o
 .text.hash_update_crc32
                0x0000000000000000       0x24 common/built-in.o
 .text.hash_init_crc32
                0x0000000000000000       0x24 common/built-in.o
 .text.hash_init_crc16_ccitt
                0x0000000000000000       0x24 common/built-in.o
 .text.hash_update_crc16_ccitt
                0x0000000000000000       0x24 common/built-in.o
 .text.hash_lookup_algo
                0x0000000000000000       0x58 common/built-in.o
 .text.hash_progressive_lookup_algo
                0x0000000000000000       0x74 common/built-in.o
 .text.hash_parse_string
                0x0000000000000000       0x68 common/built-in.o
 .text.hash_block
                0x0000000000000000       0x6c common/built-in.o
 .text.unset_local_var
                0x0000000000000000       0xa0 common/built-in.o
 .text.arch_cpu_init
                0x0000000000000000        0x8 common/built-in.o
 .text.red_led_off
                0x0000000000000000        0x4 common/built-in.o
 .text.green_led_on
                0x0000000000000000        0x4 common/built-in.o
 .text.green_led_off
                0x0000000000000000        0x4 common/built-in.o
 .text.yellow_led_on
                0x0000000000000000        0x4 common/built-in.o
 .text.yellow_led_off
                0x0000000000000000        0x4 common/built-in.o
 .text.blue_led_on
                0x0000000000000000        0x4 common/built-in.o
 .text.blue_led_off
                0x0000000000000000        0x4 common/built-in.o
 .text.arch_reserve_stacks
                0x0000000000000000        0x8 common/built-in.o
 .text.board_flash_wp_on
                0x0000000000000000        0x8 common/built-in.o
 .text.fixup_cpu
                0x0000000000000000        0x8 common/built-in.o
 .text.checkboard
                0x0000000000000000        0x8 common/built-in.o
 .text.board_quiesce_devices
                0x0000000000000000        0x4 common/built-in.o
 .text.arch_preboot_os
                0x0000000000000000        0x4 common/built-in.o
 .text.fdt_read_prop
                0x0000000000000000       0x64 common/built-in.o
 .text.fdt_getprop_u32_default_node
                0x0000000000000000       0x40 common/built-in.o
 .text.fdt_getprop_u32_default
                0x0000000000000000       0x3c common/built-in.o
 .text.do_fixup_by_path_u32
                0x0000000000000000       0x2c common/built-in.o
 .text.do_fixup_by_prop
                0x0000000000000000       0x9c common/built-in.o
 .text.do_fixup_by_prop_u32
                0x0000000000000000       0x38 common/built-in.o
 .text.do_fixup_by_compat
                0x0000000000000000       0x8c common/built-in.o
 .text.do_fixup_by_compat_u32
                0x0000000000000000       0x2c common/built-in.o
 .text.fdt_record_loadable
                0x0000000000000000      0x16c common/built-in.o
 .text.fdt_del_node_and_alias
                0x0000000000000000       0x44 common/built-in.o
 .text.fdt_node_offset_by_compat_reg
                0x0000000000000000       0x88 common/built-in.o
 .text.fdt_alloc_phandle
                0x0000000000000000       0x58 common/built-in.o
 .text.fdt_set_phandle
                0x0000000000000000       0x60 common/built-in.o
 .text.fdt_create_phandle
                0x0000000000000000       0x64 common/built-in.o
 .text.fdt_set_node_status
                0x0000000000000000       0xf4 common/built-in.o
 .text.fdt_set_status_by_alias
                0x0000000000000000       0x2c common/built-in.o
 .text.fdt_add_edid
                0x0000000000000000       0xa8 common/built-in.o
 .text.fdt_verify_alias_address
                0x0000000000000000       0xcc common/built-in.o
 .text.fdt_get_base_address
                0x0000000000000000       0x40 common/built-in.o
 .text.fdt_read_range
                0x0000000000000000      0x138 common/built-in.o
 .text.fdt_setup_simplefb_node
                0x0000000000000000      0x1fc common/built-in.o
 .text.fdt_fixup_display
                0x0000000000000000       0xd4 common/built-in.o
 .text.mdio_register_seq
                0x0000000000000000       0x34 common/built-in.o
 .text.mdio_get_list_head
                0x0000000000000000        0xc common/built-in.o
 .text.usb_submit_int_msg
                0x0000000000000000        0x4 common/built-in.o
 .text.usb_set_protocol
                0x0000000000000000       0x4c common/built-in.o
 .text.usb_set_idle
                0x0000000000000000       0x54 common/built-in.o
 .text.usb_get_report
                0x0000000000000000       0x5c common/built-in.o
 .text.usb_get_class_descriptor
                0x0000000000000000       0x5c common/built-in.o
 .text.usb_hub_probe
                0x0000000000000000       0x58 common/built-in.o
 .text.iomux_printdevs
                0x0000000000000000       0x58 common/built-in.o
 .text.cli_simple_parse_line
                0x0000000000000000       0x88 common/built-in.o
 .text.cli_simple_process_macros
                0x0000000000000000      0x208 common/built-in.o
 .text.cli_simple_run_command
                0x0000000000000000      0x148 common/built-in.o
 .text.cli_simple_loop
                0x0000000000000000       0x7c common/built-in.o
 .text.cli_simple_run_command_list
                0x0000000000000000       0x70 common/built-in.o
 .text.bounce_buffer_start
                0x0000000000000000       0x88 common/built-in.o
 .text.bounce_buffer_stop
                0x0000000000000000       0x54 common/built-in.o
 .text.fgetc    0x0000000000000000       0x40 common/built-in.o
 .text.ftstc    0x0000000000000000       0x14 common/built-in.o
 .text.fputc    0x0000000000000000        0xc common/built-in.o
 .text.fprintf  0x0000000000000000       0x4c common/built-in.o
 .text.console_announce_r
                0x0000000000000000       0x88 common/built-in.o
 .text.valloc   0x0000000000000000        0xc common/built-in.o
 .text.pvalloc  0x0000000000000000       0x18 common/built-in.o
 .text.cfree    0x0000000000000000        0x4 common/built-in.o
 .text.malloc_usable_size
                0x0000000000000000       0x3c common/built-in.o
 .text.mallopt  0x0000000000000000       0x68 common/built-in.o
 .text.memalign_simple
                0x0000000000000000       0x10 common/built-in.o
 .text.malloc_simple_info
                0x0000000000000000        0x4 common/built-in.o
 .text.genimg_get_short_name
                0x0000000000000000       0x1c common/built-in.o
 .text.genimg_get_cat_name
                0x0000000000000000       0x5c common/built-in.o
 .text.genimg_get_cat_short_name
                0x0000000000000000       0x5c common/built-in.o
 .text.genimg_get_cat_count
                0x0000000000000000       0x18 common/built-in.o
 .text.genimg_get_cat_desc
                0x0000000000000000       0x18 common/built-in.o
 .text.genimg_get_type_short_name
                0x0000000000000000       0x10 common/built-in.o
 .text.genimg_get_comp_short_name
                0x0000000000000000       0x10 common/built-in.o
 .text.genimg_get_os_short_name
                0x0000000000000000       0x10 common/built-in.o
 .text.genimg_get_arch_short_name
                0x0000000000000000       0x10 common/built-in.o
 .text.get_table_entry_id
                0x0000000000000000       0x4c common/built-in.o
 .text.genimg_get_os_id
                0x0000000000000000       0x18 common/built-in.o
 .text.genimg_get_arch_id
                0x0000000000000000       0x18 common/built-in.o
 .text.genimg_get_type_id
                0x0000000000000000       0x18 common/built-in.o
 .text.genimg_get_comp_id
                0x0000000000000000       0x18 common/built-in.o
 .text.genimg_get_kernel_addr
                0x0000000000000000       0x24 common/built-in.o
 .text.image_arm64
                0x0000000000000000       0x1c common/built-in.o
 .text.arch_fixup_fdt
                0x0000000000000000        0x8 common/built-in.o
 .text.get_ram_size
                0x0000000000000000       0xec common/built-in.o
 .text.stdio_init
                0x0000000000000000       0x14 common/built-in.o
 .text.run_command_repeatable
                0x0000000000000000       0x1c common/built-in.o
 .rodata.__func__.9868
                0x0000000000000000       0x14 common/built-in.o
 .rodata.table_info
                0x0000000000000000       0x30 common/built-in.o
 .rodata.unknown_str.9611
                0x0000000000000000        0x9 common/built-in.o
 .data          0x0000000000000000        0x0 common/built-in.o
 .data.hash_algo
                0x0000000000000000       0x38 common/built-in.o
 .data.mmap_threshold
                0x0000000000000000        0x4 common/built-in.o
 .bss           0x0000000000000000        0x0 common/built-in.o
 .bss.lastcommand.8268
                0x0000000000000000      0x201 common/built-in.o
 .bss.n_mmaps_max
                0x0000000000000000        0x4 common/built-in.o
 .bss.save_addr
                0x0000000000000000        0x4 common/built-in.o
 .bss.msg.9612  0x0000000000000000       0x1e common/built-in.o
 .bss.save_size
                0x0000000000000000        0x4 common/built-in.o
 .text          0x0000000000000000        0x0 disk/built-in.o
 .text.is_valid_dos_buf
                0x0000000000000000       0x18 disk/built-in.o
 .text.write_mbr_partition
                0x0000000000000000       0x64 disk/built-in.o
 .text.get_disk_guid
                0x0000000000000000       0xdc disk/built-in.o
 .text.write_gpt_table
                0x0000000000000000      0x48c disk/built-in.o
 .text.gpt_fill_pte
                0x0000000000000000      0x320 disk/built-in.o
 .text.gpt_fill_header
                0x0000000000000000      0x238 disk/built-in.o
 .text.gpt_restore
                0x0000000000000000      0x124 disk/built-in.o
 .text.gpt_verify_headers
                0x0000000000000000       0x78 disk/built-in.o
 .text.gpt_verify_partitions
                0x0000000000000000      0x210 disk/built-in.o
 .text.write_mbr_and_gpt_partitions
                0x0000000000000000      0x3ec disk/built-in.o
 .rodata.__func__.8235
                0x0000000000000000       0x14 disk/built-in.o
 .rodata.__func__.9432
                0x0000000000000000        0xe disk/built-in.o
 .rodata.__func__.9545
                0x0000000000000000       0x13 disk/built-in.o
 .rodata.__func__.9578
                0x0000000000000000       0x1d disk/built-in.o
 .rodata.__func__.9465
                0x0000000000000000       0x13 disk/built-in.o
 .rodata.partition_basic_data_guid
                0x0000000000000000       0x10 disk/built-in.o
 .rodata.__func__.9527
                0x0000000000000000        0xc disk/built-in.o
 .data          0x0000000000000000        0x0 disk/built-in.o
 .bss           0x0000000000000000        0x0 disk/built-in.o
 .text          0x0000000000000000        0x0 drivers/built-in.o
 .text._device_find_global_by_ofnode
                0x0000000000000000       0x50 drivers/built-in.o
 .text.device_bind_ofnode
                0x0000000000000000       0x28 drivers/built-in.o
 .text.device_get_child
                0x0000000000000000       0x58 drivers/built-in.o
 .text.device_find_child_by_seq
                0x0000000000000000       0x64 drivers/built-in.o
 .text.device_get_child_by_seq
                0x0000000000000000       0x70 drivers/built-in.o
 .text.device_find_child_by_of_offset
                0x0000000000000000       0x44 drivers/built-in.o
 .text.device_get_child_by_of_offset
                0x0000000000000000       0x3c drivers/built-in.o
 .text.device_find_global_by_ofnode
                0x0000000000000000       0x2c drivers/built-in.o
 .text.device_get_global_by_ofnode
                0x0000000000000000       0x40 drivers/built-in.o
 .text.device_find_first_inactive_child
                0x0000000000000000       0x5c drivers/built-in.o
 .text.device_find_first_child_by_uclass
                0x0000000000000000       0x4c drivers/built-in.o
 .text.device_find_child_by_name
                0x0000000000000000       0x58 drivers/built-in.o
 .text.dev_get_uclass_name
                0x0000000000000000       0x14 drivers/built-in.o
 .text.device_has_children
                0x0000000000000000       0x14 drivers/built-in.o
 .text.device_set_name
                0x0000000000000000       0x30 drivers/built-in.o
 .text.device_is_compatible
                0x0000000000000000       0x18 drivers/built-in.o
 .text.of_machine_is_compatible
                0x0000000000000000       0x24 drivers/built-in.o
 .text.dev_disable_by_path
                0x0000000000000000       0x10 drivers/built-in.o
 .text.dev_enable_by_path
                0x0000000000000000       0x14 drivers/built-in.o
 .text.devfdt_get_addr_size_index
                0x0000000000000000       0x40 drivers/built-in.o
 .text.devfdt_get_addr_name
                0x0000000000000000       0x34 drivers/built-in.o
 .text.devfdt_get_addr_ptr
                0x0000000000000000        0x8 drivers/built-in.o
 .text.devfdt_remap_addr_index
                0x0000000000000000       0x14 drivers/built-in.o
 .text.devfdt_remap_addr_name
                0x0000000000000000       0x14 drivers/built-in.o
 .text.devfdt_remap_addr
                0x0000000000000000        0x8 drivers/built-in.o
 .text.devfdt_map_physmem
                0x0000000000000000       0x14 drivers/built-in.o
 .text.dm_fixup_for_gd_move
                0x0000000000000000       0x20 drivers/built-in.o
 .text.dm_set_translation_offset
                0x0000000000000000       0x18 drivers/built-in.o
 .text.dm_uninit
                0x0000000000000000       0x24 drivers/built-in.o
 .text.uclass_destroy
                0x0000000000000000       0x9c drivers/built-in.o
 .text.uclass_get_name
                0x0000000000000000       0x28 drivers/built-in.o
 .text.uclass_get_by_name
                0x0000000000000000       0x4c drivers/built-in.o
 .text.uclass_find_device_by_of_offset
                0x0000000000000000       0x6c drivers/built-in.o
 .text.uclass_get_device_by_of_offset
                0x0000000000000000       0x30 drivers/built-in.o
 .text.list_count_items
                0x0000000000000000       0x20 drivers/built-in.o
 .text.dm_fdt_pre_reloc
                0x0000000000000000       0x68 drivers/built-in.o
 .text.devres_get
                0x0000000000000000       0x44 drivers/built-in.o
 .text.devres_release
                0x0000000000000000       0x3c drivers/built-in.o
 .text.simple_bus_translate
                0x0000000000000000       0x38 drivers/built-in.o
 .text.ofnode_read_fmap_entry
                0x0000000000000000       0xf4 drivers/built-in.o
 .text.ofnode_decode_region
                0x0000000000000000       0x54 drivers/built-in.o
 .text.ofnode_decode_memory_region
                0x0000000000000000      0x114 drivers/built-in.o
 .text.ofnode_read_s32_default
                0x0000000000000000       0x20 drivers/built-in.o
 .text.ofnode_read_u64
                0x0000000000000000       0x5c drivers/built-in.o
 .text.ofnode_read_u64_default
                0x0000000000000000       0x20 drivers/built-in.o
 .text.ofnode_find_subnode
                0x0000000000000000       0x1c drivers/built-in.o
 .text.ofnode_get_parent
                0x0000000000000000       0x18 drivers/built-in.o
 .text.ofnode_get_by_phandle
                0x0000000000000000       0x18 drivers/built-in.o
 .text.ofnode_read_size
                0x0000000000000000       0x30 drivers/built-in.o
 .text.decode_timing_property
                0x0000000000000000       0x70 drivers/built-in.o
 .text.ofnode_read_string_index
                0x0000000000000000       0x44 drivers/built-in.o
 .text.ofnode_read_string_count
                0x0000000000000000       0x14 drivers/built-in.o
 .text.ofnode_count_phandle_with_args
                0x0000000000000000       0x34 drivers/built-in.o
 .text.ofnode_get_chosen_prop
                0x0000000000000000       0x20 drivers/built-in.o
 .text.ofnode_get_chosen_node
                0x0000000000000000       0x20 drivers/built-in.o
 .text.ofnode_decode_display_timing
                0x0000000000000000      0x2b8 drivers/built-in.o
 .text.ofnode_is_available
                0x0000000000000000       0x20 drivers/built-in.o
 .text.ofnode_get_addr_size
                0x0000000000000000       0x18 drivers/built-in.o
 .text.ofnode_read_u8_array_ptr
                0x0000000000000000       0x18 drivers/built-in.o
 .text.ofnode_read_pci_addr
                0x0000000000000000       0xac drivers/built-in.o
 .text.ofnode_read_pci_vendev
                0x0000000000000000       0xd8 drivers/built-in.o
 .text.ofnode_read_addr_cells
                0x0000000000000000       0x10 drivers/built-in.o
 .text.ofnode_read_size_cells
                0x0000000000000000       0x10 drivers/built-in.o
 .text.ofnode_read_simple_addr_cells
                0x0000000000000000       0x10 drivers/built-in.o
 .text.ofnode_read_simple_size_cells
                0x0000000000000000       0x10 drivers/built-in.o
 .text.ofnode_get_addr_index
                0x0000000000000000       0x60 drivers/built-in.o
 .text.ofnode_get_addr
                0x0000000000000000        0x8 drivers/built-in.o
 .text.ofnode_translate_address
                0x0000000000000000       0x14 drivers/built-in.o
 .text.ofnode_device_is_compatible
                0x0000000000000000       0x24 drivers/built-in.o
 .text.ofnode_by_compatible
                0x0000000000000000       0x1c drivers/built-in.o
 .text.ofnode_by_prop_value
                0x0000000000000000       0x28 drivers/built-in.o
 .text.ofnode_write_prop
                0x0000000000000000        0x8 drivers/built-in.o
 .text.ofnode_write_string
                0x0000000000000000        0x8 drivers/built-in.o
 .text.ofnode_set_enabled
                0x0000000000000000        0x8 drivers/built-in.o
 .text._input_send_keycodes
                0x0000000000000000      0x434 drivers/built-in.o
 .text.input_tstc
                0x0000000000000000       0x48 drivers/built-in.o
 .text.input_getc
                0x0000000000000000       0x5c drivers/built-in.o
 .text.input_send_keycodes
                0x0000000000000000        0x8 drivers/built-in.o
 .text.input_add_keycode
                0x0000000000000000       0x88 drivers/built-in.o
 .text.input_add_table
                0x0000000000000000       0x40 drivers/built-in.o
 .text.input_set_delays
                0x0000000000000000        0xc drivers/built-in.o
 .text.input_allow_repeats
                0x0000000000000000        0x8 drivers/built-in.o
 .text.input_leds_changed
                0x0000000000000000       0x14 drivers/built-in.o
 .text.input_add_tables
                0x0000000000000000       0x74 drivers/built-in.o
 .text.input_init
                0x0000000000000000       0x24 drivers/built-in.o
 .text.input_stdio_register
                0x0000000000000000       0x54 drivers/built-in.o
 .text.create_keymap
                0x0000000000000000       0x94 drivers/built-in.o
 .text.key_matrix_decode
                0x0000000000000000       0xec drivers/built-in.o
 .text.key_matrix_decode_fdt
                0x0000000000000000       0xac drivers/built-in.o
 .text.key_matrix_init
                0x0000000000000000       0x3c drivers/built-in.o
 .text.pinctrl_decode_pin_config
                0x0000000000000000       0x4c drivers/built-in.o
 .text.pinctrl_decode_pin_config_dm
                0x0000000000000000       0x64 drivers/built-in.o
 .text.pinctrl_request
                0x0000000000000000       0x20 drivers/built-in.o
 .text.pinctrl_request_noflags
                0x0000000000000000        0x8 drivers/built-in.o
 .text.pinctrl_get_periph_id
                0x0000000000000000       0x20 drivers/built-in.o
 .text.pinctrl_get_gpio_mux
                0x0000000000000000       0x20 drivers/built-in.o
 .text.pinctrl_generic_set_state_subnode
                0x0000000000000000      0x2c4 drivers/built-in.o
 .text.pinctrl_generic_set_state
                0x0000000000000000       0x58 drivers/built-in.o
 .text.blk_get_by_device
                0x0000000000000000       0x54 drivers/built-in.o
 .text.blk_unbind_all
                0x0000000000000000       0x98 drivers/built-in.o
 .text.fastboot_get_progress_callback
                0x0000000000000000       0x10 drivers/built-in.o
 .text.fastboot_set_progress_callback
                0x0000000000000000       0x10 drivers/built-in.o
 .text.read_from_partition_multi
                0x0000000000000000      0x214 drivers/built-in.o
 .text.fastboot_flash_find_index
                0x0000000000000000       0x38 drivers/built-in.o
 .text.fastboot_flash_get_ptn
                0x0000000000000000       0x28 drivers/built-in.o
 .text.fastboot_flash_get_ptn_count
                0x0000000000000000       0x10 drivers/built-in.o
 .text.cpu_mmc_init
                0x0000000000000000        0x8 drivers/built-in.o
 .text.board_mmc_init
                0x0000000000000000        0x8 drivers/built-in.o
 .text.mmc_set_preinit
                0x0000000000000000        0x8 drivers/built-in.o
 .text.mmc_of_parse
                0x0000000000000000      0x234 drivers/built-in.o
 .text.mmc_get_next_devnum
                0x0000000000000000        0x8 drivers/built-in.o
 .text.mmc_unbind
                0x0000000000000000       0x34 drivers/built-in.o
 .text.esdhc_status_fixup
                0x0000000000000000        0x8 drivers/built-in.o
 .text.fdt_fixup_esdhc
                0x0000000000000000       0x44 drivers/built-in.o
 .text.rtc_to_tm
                0x0000000000000000      0x20c drivers/built-in.o
 .text.board_video_skip
                0x0000000000000000        0x8 drivers/built-in.o
 .text.video_position_cursor
                0x0000000000000000       0x60 drivers/built-in.o
 .text.video_get_pixel_width
                0x0000000000000000       0x14 drivers/built-in.o
 .text.video_get_pixel_height
                0x0000000000000000       0x14 drivers/built-in.o
 .text.video_get_screen_rows
                0x0000000000000000       0x28 drivers/built-in.o
 .text.video_get_screen_columns
                0x0000000000000000       0x18 drivers/built-in.o
 .text.mxs_lcd_get_panel
                0x0000000000000000       0x3c drivers/built-in.o
 .text.video_get_video_mode
                0x0000000000000000      0x184 drivers/built-in.o
 .text.video_get_ctfb_res_modes
                0x0000000000000000       0xf4 drivers/built-in.o
 .text.video_get_option_string
                0x0000000000000000       0xb0 drivers/built-in.o
 .text.video_get_option_int
                0x0000000000000000       0x84 drivers/built-in.o
 .text.video_edid_dtd_to_ctfb_res_modes
                0x0000000000000000      0x234 drivers/built-in.o
 .rodata.kbd_to_ansi364
                0x0000000000000000       0x20 drivers/built-in.o
 .rodata.kbd_plain_xlate
                0x0000000000000000       0x64 drivers/built-in.o
 .rodata.kbd_plain_xlate_german
                0x0000000000000000       0x84 drivers/built-in.o
 .rodata.CSWTCH.33
                0x0000000000000000        0xd drivers/built-in.o
 .rodata.rtc_days_in_month
                0x0000000000000000        0xc drivers/built-in.o
 .rodata.vesa_modes
                0x0000000000000000       0xe4 drivers/built-in.o
 .data          0x0000000000000000        0x0 drivers/built-in.o
 .data.kbd_ctrl_xlate
                0x0000000000000000       0x64 drivers/built-in.o
 .data.kbd_right_alt_xlate_german
                0x0000000000000000       0x58 drivers/built-in.o
 .data.kbd_shift_xlate_german
                0x0000000000000000       0x84 drivers/built-in.o
 .data.kbd_entry
                0x0000000000000000       0x8c drivers/built-in.o
 .data.kbd_shift_xlate
                0x0000000000000000       0x64 drivers/built-in.o
 .bss           0x0000000000000000        0x0 drivers/built-in.o
 .bss.desc      0x0000000000000000       0x80 drivers/built-in.o
 .text          0x0000000000000000        0x0 drivers/dma/built-in.o
 .text.mxs_dma_circ_start
                0x0000000000000000       0x7c drivers/dma/built-in.o
 .data          0x0000000000000000        0x0 drivers/dma/built-in.o
 .bss           0x0000000000000000        0x0 drivers/dma/built-in.o
 .text          0x0000000000000000        0x0 drivers/gpio/built-in.o
 .text.gpio_requestf
                0x0000000000000000       0x44 drivers/gpio/built-in.o
 .text.dm_gpio_get_open_drain
                0x0000000000000000       0x50 drivers/gpio/built-in.o
 .text.dm_gpio_set_open_drain
                0x0000000000000000       0x54 drivers/gpio/built-in.o
 .text.dm_gpio_set_dir
                0x0000000000000000        0x8 drivers/gpio/built-in.o
 .text.gpio_set_value
                0x0000000000000000       0x2c drivers/gpio/built-in.o
 .text.gpio_claim_vector
                0x0000000000000000       0x88 drivers/gpio/built-in.o
 .text.gpio_get_values_as_int
                0x0000000000000000       0x44 drivers/gpio/built-in.o
 .text.dm_gpio_get_values_as_int
                0x0000000000000000       0x4c drivers/gpio/built-in.o
 .text.gpio_get_list_count
                0x0000000000000000       0x38 drivers/gpio/built-in.o
 .text.gpio_get_number
                0x0000000000000000       0x20 drivers/gpio/built-in.o
 .data          0x0000000000000000        0x0 drivers/gpio/built-in.o
 .bss           0x0000000000000000        0x0 drivers/gpio/built-in.o
 .text          0x0000000000000000        0x0 drivers/i2c/built-in.o
 .text.i2c_dump_msgs
                0x0000000000000000       0x8c drivers/i2c/built-in.o
 .text.dm_i2c_xfer
                0x0000000000000000       0x3c drivers/i2c/built-in.o
 .text.dm_i2c_reg_read
                0x0000000000000000       0x20 drivers/i2c/built-in.o
 .text.dm_i2c_reg_write
                0x0000000000000000       0x20 drivers/i2c/built-in.o
 .text.i2c_get_chip_for_busnum
                0x0000000000000000       0x5c drivers/i2c/built-in.o
 .data          0x0000000000000000        0x0 drivers/i2c/built-in.o
 .bss           0x0000000000000000        0x0 drivers/i2c/built-in.o
 .text          0x0000000000000000        0x0 drivers/mtd/built-in.o
 .text.mtd_ooblayout_ecc
                0x0000000000000000       0x70 drivers/mtd/built-in.o
 .text.mtd_ooblayout_free
                0x0000000000000000       0x70 drivers/mtd/built-in.o
 .text.mtd_ooblayout_find_region
                0x0000000000000000       0x84 drivers/mtd/built-in.o
 .text.mtd_ooblayout_get_bytes
                0x0000000000000000       0x94 drivers/mtd/built-in.o
 .text.mtd_ooblayout_set_bytes
                0x0000000000000000       0x94 drivers/mtd/built-in.o
 .text.idr_find
                0x0000000000000000       0x14 drivers/mtd/built-in.o
 .text.idr_alloc
                0x0000000000000000       0x40 drivers/mtd/built-in.o
 .text.mtd_get_unmapped_area
                0x0000000000000000       0x60 drivers/mtd/built-in.o
 .text.mtd_panic_write
                0x0000000000000000       0xa0 drivers/mtd/built-in.o
 .text.mtd_ooblayout_find_eccregion
                0x0000000000000000       0x1c drivers/mtd/built-in.o
 .text.mtd_ooblayout_get_eccbytes
                0x0000000000000000       0x24 drivers/mtd/built-in.o
 .text.mtd_ooblayout_set_eccbytes
                0x0000000000000000       0x24 drivers/mtd/built-in.o
 .text.mtd_ooblayout_get_databytes
                0x0000000000000000       0x24 drivers/mtd/built-in.o
 .text.mtd_ooblayout_set_databytes
                0x0000000000000000       0x24 drivers/mtd/built-in.o
 .text.mtd_ooblayout_count_freebytes
                0x0000000000000000       0x44 drivers/mtd/built-in.o
 .text.mtd_ooblayout_count_eccbytes
                0x0000000000000000       0x44 drivers/mtd/built-in.o
 .text.mtd_get_fact_prot_info
                0x0000000000000000       0x34 drivers/mtd/built-in.o
 .text.mtd_read_fact_prot_reg
                0x0000000000000000       0x44 drivers/mtd/built-in.o
 .text.mtd_get_user_prot_info
                0x0000000000000000       0x34 drivers/mtd/built-in.o
 .text.mtd_read_user_prot_reg
                0x0000000000000000       0x44 drivers/mtd/built-in.o
 .text.mtd_write_user_prot_reg
                0x0000000000000000       0x64 drivers/mtd/built-in.o
 .text.mtd_lock_user_prot_reg
                0x0000000000000000       0x2c drivers/mtd/built-in.o
 .text.mtd_lock
                0x0000000000000000       0x74 drivers/mtd/built-in.o
 .text.mtd_is_locked
                0x0000000000000000       0x74 drivers/mtd/built-in.o
 .text.mtd_block_isreserved
                0x0000000000000000       0x4c drivers/mtd/built-in.o
 .data          0x0000000000000000        0x0 drivers/mtd/built-in.o
 .bss           0x0000000000000000        0x0 drivers/mtd/built-in.o
 .bss.mtd_table
                0x0000000000000000       0x80 drivers/mtd/built-in.o
 .text          0x0000000000000000        0x0 drivers/mtd/nand/raw/built-in.o
 .text.nand_mtd_to_devnum
                0x0000000000000000       0x30 drivers/mtd/nand/raw/built-in.o
 .text.nand_check_ecc_caps
                0x0000000000000000      0x168 drivers/mtd/nand/raw/built-in.o
 .text.nand_match_ecc_req
                0x0000000000000000      0x214 drivers/mtd/nand/raw/built-in.o
 .text.nand_maximize_ecc
                0x0000000000000000      0x1e4 drivers/mtd/nand/raw/built-in.o
 .text.nand_scan
                0x0000000000000000       0x24 drivers/mtd/nand/raw/built-in.o
 .text.onfi_async_timing_mode_to_sdr_timings
                0x0000000000000000       0x20 drivers/mtd/nand/raw/built-in.o
 .text.mxs_nand_init_spl
                0x0000000000000000      0x12c drivers/mtd/nand/raw/built-in.o
 .rodata.__func__.12582
                0x0000000000000000       0x13 drivers/mtd/nand/raw/built-in.o
 .rodata.__func__.12545
                0x0000000000000000       0x14 drivers/mtd/nand/raw/built-in.o
 .rodata.__func__.12615
                0x0000000000000000       0x12 drivers/mtd/nand/raw/built-in.o
 .data          0x0000000000000000        0x0 drivers/mtd/nand/raw/built-in.o
 .data.nand_manuf_ids
                0x0000000000000000       0x78 drivers/mtd/nand/raw/built-in.o
 .bss           0x0000000000000000        0x0 drivers/mtd/nand/raw/built-in.o
 .bss.__warned.12585
                0x0000000000000000        0x1 drivers/mtd/nand/raw/built-in.o
 .bss.__warned.12549
                0x0000000000000000        0x1 drivers/mtd/nand/raw/built-in.o
 .bss.__warned.12619
                0x0000000000000000        0x1 drivers/mtd/nand/raw/built-in.o
 .text          0x0000000000000000        0x0 drivers/mtd/spi/built-in.o
 .text.spl_flash_get_sw_write_prot
                0x0000000000000000       0x20 drivers/mtd/spi/built-in.o
 .text.spi_flash_free
                0x0000000000000000       0x10 drivers/mtd/spi/built-in.o
 .text.spi_flash_probe
                0x0000000000000000       0x2c drivers/mtd/spi/built-in.o
 .data          0x0000000000000000        0x0 drivers/mtd/spi/built-in.o
 .bss           0x0000000000000000        0x0 drivers/mtd/spi/built-in.o
 .text          0x0000000000000000        0x0 drivers/mtd/ubi/built-in.o
 .text.ubi_enumerate_volumes
                0x0000000000000000       0x48 drivers/mtd/ubi/built-in.o
 .text.ubi_get_by_major
                0x0000000000000000       0x88 drivers/mtd/ubi/built-in.o
 .text.ubi_major2num
                0x0000000000000000       0x44 drivers/mtd/ubi/built-in.o
 .text.ubi_vtbl_rename_volumes
                0x0000000000000000       0xe4 drivers/mtd/ubi/built-in.o
 .text.ubi_remove_volume
                0x0000000000000000      0x180 drivers/mtd/ubi/built-in.o
 .text.ubi_rename_volumes
                0x0000000000000000       0xa4 drivers/mtd/ubi/built-in.o
 .text.ubi_start_leb_change
                0x0000000000000000      0x114 drivers/mtd/ubi/built-in.o
 .text.ubi_more_leb_change_data
                0x0000000000000000      0x158 drivers/mtd/ubi/built-in.o
 .text.ubi_leb_write
                0x0000000000000000       0xd0 drivers/mtd/ubi/built-in.o
 .text.ubi_leb_change
                0x0000000000000000       0xc4 drivers/mtd/ubi/built-in.o
 .text.ubi_leb_erase
                0x0000000000000000       0x8c drivers/mtd/ubi/built-in.o
 .text.ubi_leb_map
                0x0000000000000000       0x90 drivers/mtd/ubi/built-in.o
 .text.ubi_sync
                0x0000000000000000       0x3c drivers/mtd/ubi/built-in.o
 .text.ubi_flush
                0x0000000000000000       0x40 drivers/mtd/ubi/built-in.o
 .text.ubi_next_sqnum
                0x0000000000000000       0x1c drivers/mtd/ubi/built-in.o
 .text.self_check_eba
                0x0000000000000000      0x2dc drivers/mtd/ubi/built-in.o
 .text.ubi_thread
                0x0000000000000000       0xe0 drivers/mtd/ubi/built-in.o
 .text.ubi_dump_mkvol_req
                0x0000000000000000      0x108 drivers/mtd/ubi/built-in.o
 .rodata.__func__.11677
                0x0000000000000000       0x11 drivers/mtd/ubi/built-in.o
 .rodata.__func__.11646
                0x0000000000000000       0x12 drivers/mtd/ubi/built-in.o
 .rodata.__func__.11673
                0x0000000000000000       0x19 drivers/mtd/ubi/built-in.o
 .rodata.__func__.11844
                0x0000000000000000        0xf drivers/mtd/ubi/built-in.o
 .rodata.__func__.11909
                0x0000000000000000        0xb drivers/mtd/ubi/built-in.o
 .data          0x0000000000000000        0x0 drivers/mtd/ubi/built-in.o
 .bss           0x0000000000000000        0x0 drivers/mtd/ubi/built-in.o
 .text          0x0000000000000000        0x0 drivers/net/built-in.o
 .text.init_clk_fec
                0x0000000000000000        0x4 drivers/net/built-in.o
 .data          0x0000000000000000        0x0 drivers/net/built-in.o
 .bss           0x0000000000000000        0x0 drivers/net/built-in.o
 .text          0x0000000000000000        0x0 drivers/net/phy/built-in.o
 .text.phy_set_supported
                0x0000000000000000       0x5c drivers/net/phy/built-in.o
 .text.miiphy_reset
                0x0000000000000000       0x24 drivers/net/phy/built-in.o
 .text.board_phy_config
                0x0000000000000000       0x1c drivers/net/phy/built-in.o
 .text.phy_shutdown
                0x0000000000000000       0x28 drivers/net/phy/built-in.o
 .data          0x0000000000000000        0x0 drivers/net/phy/built-in.o
 .bss           0x0000000000000000        0x0 drivers/net/phy/built-in.o
 .text          0x0000000000000000        0x0 drivers/power/regulator/built-in.o
 .text.regulator_show
                0x0000000000000000       0x94 drivers/power/regulator/built-in.o
 .text.regulator_mode
                0x0000000000000000       0x2c drivers/power/regulator/built-in.o
 .text.regulator_set_value_force
                0x0000000000000000       0x3c drivers/power/regulator/built-in.o
 .text.regulator_get_current
                0x0000000000000000       0x34 drivers/power/regulator/built-in.o
 .text.regulator_set_current
                0x0000000000000000       0x70 drivers/power/regulator/built-in.o
 .text.regulator_set_value
                0x0000000000000000       0xfc drivers/power/regulator/built-in.o
 .text.regulator_set_enable_if_allowed
                0x0000000000000000       0x18 drivers/power/regulator/built-in.o
 .text.regulator_get_mode
                0x0000000000000000       0x34 drivers/power/regulator/built-in.o
 .text.regulator_set_mode
                0x0000000000000000       0x3c drivers/power/regulator/built-in.o
 .text.regulator_get_by_platname
                0x0000000000000000       0x84 drivers/power/regulator/built-in.o
 .text.regulator_get_by_devname
                0x0000000000000000       0x10 drivers/power/regulator/built-in.o
 .text.regulator_autoset
                0x0000000000000000       0x8c drivers/power/regulator/built-in.o
 .text.regulator_autoset_by_name
                0x0000000000000000       0x34 drivers/power/regulator/built-in.o
 .text.regulator_list_autoset
                0x0000000000000000       0x84 drivers/power/regulator/built-in.o
 .text.regulators_enable_boot_on
                0x0000000000000000       0x80 drivers/power/regulator/built-in.o
 .data          0x0000000000000000        0x0 drivers/power/regulator/built-in.o
 .bss           0x0000000000000000        0x0 drivers/power/regulator/built-in.o
 .text          0x0000000000000000        0x0 drivers/serial/built-in.o
 .text.serial_reinit_all
                0x0000000000000000       0x2c drivers/serial/built-in.o
 .data          0x0000000000000000        0x0 drivers/serial/built-in.o
 .bss           0x0000000000000000        0x0 drivers/serial/built-in.o
 .text          0x0000000000000000        0x0 drivers/spi/built-in.o
 .text.spi_chip_select
                0x0000000000000000       0x18 drivers/spi/built-in.o
 .text.spi_cs_info
                0x0000000000000000       0x5c drivers/spi/built-in.o
 .text.spi_cs_is_valid
                0x0000000000000000       0x3c drivers/spi/built-in.o
 .text.spi_setup_slave
                0x0000000000000000       0x3c drivers/spi/built-in.o
 .text.spi_free_slave
                0x0000000000000000       0x20 drivers/spi/built-in.o
 .data          0x0000000000000000        0x0 drivers/spi/built-in.o
 .bss           0x0000000000000000        0x0 drivers/spi/built-in.o
 .text          0x0000000000000000        0x0 drivers/usb/common/built-in.o
 .text.usb_get_dr_mode
                0x0000000000000000       0x74 drivers/usb/common/built-in.o
 .text.usb_get_maximum_speed
                0x0000000000000000       0x74 drivers/usb/common/built-in.o
 .rodata.str1.1
                0x0000000000000000       0x9c drivers/usb/common/built-in.o
 .rodata.speed_names
                0x0000000000000000       0x18 drivers/usb/common/built-in.o
 .rodata.usb_dr_modes
                0x0000000000000000       0x10 drivers/usb/common/built-in.o
 .data          0x0000000000000000        0x0 drivers/usb/common/built-in.o
 .bss           0x0000000000000000        0x0 drivers/usb/common/built-in.o
 .comment       0x0000000000000000       0x37 drivers/usb/common/built-in.o
 .note.GNU-stack
                0x0000000000000000        0x0 drivers/usb/common/built-in.o
 .ARM.attributes
                0x0000000000000000       0x2d drivers/usb/common/built-in.o
 .debug_aranges
                0x0000000000000000       0x28 drivers/usb/common/built-in.o
 .debug_info    0x0000000000000000      0x9d4 drivers/usb/common/built-in.o
 .debug_abbrev  0x0000000000000000      0x1e6 drivers/usb/common/built-in.o
 .debug_line    0x0000000000000000      0x1b8 drivers/usb/common/built-in.o
 .debug_frame   0x0000000000000000       0x48 drivers/usb/common/built-in.o
 .debug_str     0x0000000000000000      0xcaa drivers/usb/common/built-in.o
 .debug_loc     0x0000000000000000       0xf6 drivers/usb/common/built-in.o
 .debug_ranges  0x0000000000000000       0x18 drivers/usb/common/built-in.o
 .text          0x0000000000000000        0x0 drivers/usb/eth/built-in.o
 .data          0x0000000000000000        0x0 drivers/usb/eth/built-in.o
 .bss           0x0000000000000000        0x0 drivers/usb/eth/built-in.o
 .text          0x0000000000000000        0x0 drivers/usb/gadget/built-in.o
 .text.usb_gadget_config_buf
                0x0000000000000000       0x94 drivers/usb/gadget/built-in.o
 .text.dfu_usb_get_reset
                0x0000000000000000       0x20 drivers/usb/gadget/built-in.o
 .text.usb_function_deactivate
                0x0000000000000000       0x58 drivers/usb/gadget/built-in.o
 .text.usb_function_activate
                0x0000000000000000       0x58 drivers/usb/gadget/built-in.o
 .text.usb_string_ids_tab
                0x0000000000000000       0x40 drivers/usb/gadget/built-in.o
 .text.usb_string_ids_n
                0x0000000000000000       0x2c drivers/usb/gadget/built-in.o
 .text.board_usb_init
                0x0000000000000000        0x8 drivers/usb/gadget/built-in.o
 .text.board_usb_cleanup
                0x0000000000000000        0x8 drivers/usb/gadget/built-in.o
 .data          0x0000000000000000        0x0 drivers/usb/gadget/built-in.o
 .bss           0x0000000000000000        0x0 drivers/usb/gadget/built-in.o
 .text          0x0000000000000000        0x0 drivers/usb/gadget/udc/built-in.o
 .data          0x0000000000000000        0x0 drivers/usb/gadget/udc/built-in.o
 .bss           0x0000000000000000        0x0 drivers/usb/gadget/udc/built-in.o
 .text          0x0000000000000000        0x0 drivers/usb/host/built-in.o
 .text.create_int_queue
                0x0000000000000000       0x54 drivers/usb/host/built-in.o
 .text.poll_int_queue
                0x0000000000000000       0x30 drivers/usb/host/built-in.o
 .text.destroy_int_queue
                0x0000000000000000       0x30 drivers/usb/host/built-in.o
 .text.usb_detect_change
                0x0000000000000000       0xb8 drivers/usb/host/built-in.o
 .text.ehci_setup_phy
                0x0000000000000000        0x8 drivers/usb/host/built-in.o
 .text.ehci_shutdown_phy
                0x0000000000000000        0x8 drivers/usb/host/built-in.o
 .text.usb_phy_mode
                0x0000000000000000       0x1c drivers/usb/host/built-in.o
 .text.board_usb_phy_mode
                0x0000000000000000        0x4 drivers/usb/host/built-in.o
 .text.board_ehci_power
                0x0000000000000000        0x8 drivers/usb/host/built-in.o
 .data          0x0000000000000000        0x0 drivers/usb/host/built-in.o
 .bss           0x0000000000000000        0x0 drivers/usb/host/built-in.o
 .text          0x0000000000000000        0x0 env/built-in.o
 .text.env_flags_parse_varaccess_from_binflags
                0x0000000000000000       0x54 env/built-in.o
 .text.mmc_get_env_dev
                0x0000000000000000        0x8 env/built-in.o
 .text.mmc_get_env_part
                0x0000000000000000        0x8 env/built-in.o
 .data          0x0000000000000000        0x0 env/built-in.o
 .bss           0x0000000000000000        0x0 env/built-in.o
 .text          0x0000000000000000        0x0 fs/built-in.o
 .text.fs_get_type_name
                0x0000000000000000       0x1c fs/built-in.o
 .text.fs_uuid  0x0000000000000000       0x28 fs/built-in.o
 .text.do_fs_uuid
                0x0000000000000000       0x8c fs/built-in.o
 .text.print_revoke_blks
                0x0000000000000000       0x54 fs/built-in.o
 .text.fat_register_device
                0x0000000000000000       0x8c fs/built-in.o
 .text.file_fat_read
                0x0000000000000000       0x38 fs/built-in.o
 .text.next_sqnum
                0x0000000000000000       0x70 fs/built-in.o
 .text.ubifs_leb_write
                0x0000000000000000       0xb4 fs/built-in.o
 .text.ubifs_leb_change
                0x0000000000000000       0xa8 fs/built-in.o
 .text.ubifs_leb_map
                0x0000000000000000       0x9c fs/built-in.o
 .text.ubifs_prepare_node
                0x0000000000000000      0x128 fs/built-in.o
 .text.ubifs_prep_grp_node
                0x0000000000000000       0xfc fs/built-in.o
 .text.ubifs_wbuf_sync_nolock
                0x0000000000000000      0x230 fs/built-in.o
 .text.ubifs_wbuf_add_ino_nolock
                0x0000000000000000       0x2c fs/built-in.o
 .text.ubifs_sync_wbufs_by_inode
                0x0000000000000000       0x8c fs/built-in.o
 .text.set_anon_super
                0x0000000000000000        0x8 fs/built-in.o
 .text.iget_failed
                0x0000000000000000        0x4 fs/built-in.o
 .text.unlock_new_inode
                0x0000000000000000        0x4 fs/built-in.o
 .text.fixup_leb
                0x0000000000000000       0xd4 fs/built-in.o
 .text.ubifs_write_sb_node
                0x0000000000000000       0x40 fs/built-in.o
 .text.ubifs_fixup_free_space
                0x0000000000000000      0x280 fs/built-in.o
 .text.pack_bits
                0x0000000000000000      0x170 fs/built-in.o
 .text.set_ltab
                0x0000000000000000       0x74 fs/built-in.o
 .text.scan_get_pnode
                0x0000000000000000      0x1e4 fs/built-in.o
 .text.ubifs_pack_pnode
                0x0000000000000000       0xec fs/built-in.o
 .text.ubifs_pack_nnode
                0x0000000000000000       0xe0 fs/built-in.o
 .text.ubifs_pack_ltab
                0x0000000000000000       0xb4 fs/built-in.o
 .text.ubifs_pack_lsave
                0x0000000000000000       0x9c fs/built-in.o
 .text.ubifs_create_dflt_lpt
                0x0000000000000000      0x87c fs/built-in.o
 .text.scan_get_nnode
                0x0000000000000000      0x120 fs/built-in.o
 .text.ubifs_lpt_lookup
                0x0000000000000000       0x9c fs/built-in.o
 .text.ubifs_lpt_scan_nolock
                0x0000000000000000      0x394 fs/built-in.o
 .text.dbg_check_lpt_nodes
                0x0000000000000000        0x8 fs/built-in.o
 .text.alloc_lpt_leb
                0x0000000000000000       0xd0 fs/built-in.o
 .text.need_write_all
                0x0000000000000000       0xa8 fs/built-in.o
 .text.lpt_tgc_start
                0x0000000000000000       0x8c fs/built-in.o
 .text.first_dirty_cnode
                0x0000000000000000       0x6c fs/built-in.o
 .text.upd_ltab
                0x0000000000000000       0x7c fs/built-in.o
 .text.pnode_lookup
                0x0000000000000000       0x84 fs/built-in.o
 .text.do_make_pnode_dirty
                0x0000000000000000       0xa8 fs/built-in.o
 .text.lpt_gc   0x0000000000000000      0x4c0 fs/built-in.o
 .text.ubifs_lpt_start_commit
                0x0000000000000000      0x9bc fs/built-in.o
 .text.ubifs_lpt_post_commit
                0x0000000000000000       0xa0 fs/built-in.o
 .text.ubifs_ensure_cat
                0x0000000000000000       0x48 fs/built-in.o
 .text.ubifs_get_lp_stats
                0x0000000000000000       0x14 fs/built-in.o
 .text.ubifs_read_one_lp
                0x0000000000000000       0xa0 fs/built-in.o
 .text.ubifs_fast_find_free
                0x0000000000000000       0x60 fs/built-in.o
 .text.ubifs_fast_find_empty
                0x0000000000000000       0x90 fs/built-in.o
 .text.ubifs_fast_find_freeable
                0x0000000000000000       0xb4 fs/built-in.o
 .text.ubifs_fast_find_frdi_idx
                0x0000000000000000       0x98 fs/built-in.o
 .text.dbg_check_cats
                0x0000000000000000        0x8 fs/built-in.o
 .text.dbg_check_heap
                0x0000000000000000        0x4 fs/built-in.o
 .text.dbg_check_lprops
                0x0000000000000000        0x8 fs/built-in.o
 .text.left_znode
                0x0000000000000000       0x70 fs/built-in.o
 .text.lookup_znode
                0x0000000000000000      0x310 fs/built-in.o
 .text.ubifs_tnc_get_bu_keys
                0x0000000000000000      0x258 fs/built-in.o
 .text.ubifs_tnc_bulk_read
                0x0000000000000000      0x3d4 fs/built-in.o
 .text.ubifs_tnc_lookup_nm
                0x0000000000000000       0xfc fs/built-in.o
 .text.ubifs_tnc_replace
                0x0000000000000000      0x300 fs/built-in.o
 .text.is_idx_node_in_tnc
                0x0000000000000000       0x38 fs/built-in.o
 .text.ubifs_tnc_has_node
                0x0000000000000000      0x1c0 fs/built-in.o
 .text.ubifs_dirty_idx_node
                0x0000000000000000       0x48 fs/built-in.o
 .text.dbg_check_inode_size
                0x0000000000000000        0x8 fs/built-in.o
 .text.ubifs_tnc_levelorder_next
                0x0000000000000000      0x1d0 fs/built-in.o
 .text.dbg_ntype
                0x0000000000000000       0x1c fs/built-in.o
 .text.dbg_cstate
                0x0000000000000000       0x1c fs/built-in.o
 .text.dbg_jhead
                0x0000000000000000       0x1c fs/built-in.o
 .text.ubifs_dump_budget_req
                0x0000000000000000       0x98 fs/built-in.o
 .text.ubifs_dump_lstats
                0x0000000000000000       0x70 fs/built-in.o
 .text.ubifs_dump_budg
                0x0000000000000000        0x4 fs/built-in.o
 .text.ubifs_dump_lprop
                0x0000000000000000      0x214 fs/built-in.o
 .text.ubifs_dump_lprops
                0x0000000000000000       0xc0 fs/built-in.o
 .text.ubifs_dump_lpt_info
                0x0000000000000000      0x20c fs/built-in.o
 .text.ubifs_dump_sleb
                0x0000000000000000       0x70 fs/built-in.o
 .text.ubifs_dump_leb
                0x0000000000000000      0x144 fs/built-in.o
 .text.dump_znode
                0x0000000000000000       0x10 fs/built-in.o
 .text.ubifs_dump_heap
                0x0000000000000000       0x94 fs/built-in.o
 .text.ubifs_dump_tnc
                0x0000000000000000       0xb0 fs/built-in.o
 .text.dbg_walk_index
                0x0000000000000000      0x228 fs/built-in.o
 .text.ubifs_dump_index
                0x0000000000000000       0x14 fs/built-in.o
 .text.add_node
                0x0000000000000000       0xd0 fs/built-in.o
 .text.destroy_done_tree
                0x0000000000000000       0x30 fs/built-in.o
 .text.ubifs_add_bud_to_log
                0x0000000000000000      0x2f8 fs/built-in.o
 .text.ubifs_log_start_commit
                0x0000000000000000      0x338 fs/built-in.o
 .text.ubifs_log_end_commit
                0x0000000000000000       0x2c fs/built-in.o
 .text.ubifs_log_post_commit
                0x0000000000000000       0xb0 fs/built-in.o
 .text.ubifs_consolidate_log
                0x0000000000000000      0x2d4 fs/built-in.o
 .text.ubifs_add_orphan
                0x0000000000000000      0x138 fs/built-in.o
 .text.ubifs_delete_orphan
                0x0000000000000000      0x100 fs/built-in.o
 .text.ubifs_orphan_start_commit
                0x0000000000000000       0xbc fs/built-in.o
 .text.ubifs_orphan_end_commit
                0x0000000000000000      0x4e0 fs/built-in.o
 .text.recover_head
                0x0000000000000000       0xd4 fs/built-in.o
 .text.ubifs_write_rcvrd_mst_node
                0x0000000000000000      0x15c fs/built-in.o
 .text.ubifs_recover_inl_heads
                0x0000000000000000       0x70 fs/built-in.o
 .text.ubifs_clean_lebs
                0x0000000000000000      0x1f8 fs/built-in.o
 .text.ubifs_rcvry_gc_commit
                0x0000000000000000        0x8 fs/built-in.o
 .rodata.__func__.13136
                0x0000000000000000        0xb fs/built-in.o
 .rodata.__func__.13146
                0x0000000000000000       0x13 fs/built-in.o
 .rodata.__func__.13086
                0x0000000000000000       0x25 fs/built-in.o
 .rodata.__func__.13168
                0x0000000000000000       0x17 fs/built-in.o
 .rodata.__func__.13078
                0x0000000000000000       0x10 fs/built-in.o
 .rodata.__func__.13119
                0x0000000000000000       0x16 fs/built-in.o
 .rodata.__func__.13595
                0x0000000000000000        0xf fs/built-in.o
 .rodata.__func__.13113
                0x0000000000000000        0xa fs/built-in.o
 .rodata.__func__.13611
                0x0000000000000000       0x16 fs/built-in.o
 .rodata.__func__.13377
                0x0000000000000000       0x17 fs/built-in.o
 .rodata.__func__.13102
                0x0000000000000000        0x9 fs/built-in.o
 .rodata.__func__.13067
                0x0000000000000000       0x23 fs/built-in.o
 .rodata.__func__.13353
                0x0000000000000000        0xc fs/built-in.o
 .rodata.__func__.13361
                0x0000000000000000        0x7 fs/built-in.o
 .rodata.__func__.13090
                0x0000000000000000       0x15 fs/built-in.o
 .rodata.__func__.13270
                0x0000000000000000       0x19 fs/built-in.o
 .rodata.__func__.13256
                0x0000000000000000       0x16 fs/built-in.o
 .rodata.__func__.13263
                0x0000000000000000       0x19 fs/built-in.o
 .rodata.__func__.13244
                0x0000000000000000       0x12 fs/built-in.o
 .rodata.__func__.13251
                0x0000000000000000       0x15 fs/built-in.o
 .rodata.__func__.13738
                0x0000000000000000        0xd fs/built-in.o
 .rodata.__func__.13422
                0x0000000000000000        0xa fs/built-in.o
 .rodata.__func__.13432
                0x0000000000000000       0x13 fs/built-in.o
 .rodata.__func__.13450
                0x0000000000000000       0x14 fs/built-in.o
 .rodata.__func__.13781
                0x0000000000000000       0x13 fs/built-in.o
 .rodata.__func__.13469
                0x0000000000000000        0xd fs/built-in.o
 .rodata.__func__.13063
                0x0000000000000000       0x1a fs/built-in.o
 .rodata.CSWTCH.52
                0x0000000000000000       0x18 fs/built-in.o
 .rodata.__func__.13316
                0x0000000000000000        0xf fs/built-in.o
 .rodata.CSWTCH.61
                0x0000000000000000       0x18 fs/built-in.o
 .rodata.__func__.13284
                0x0000000000000000       0x12 fs/built-in.o
 .rodata.__func__.13410
                0x0000000000000000        0xf fs/built-in.o
 .rodata.CSWTCH.54
                0x0000000000000000        0xc fs/built-in.o
 .rodata.__func__.13109
                0x0000000000000000       0x15 fs/built-in.o
 .rodata.__func__.13250
                0x0000000000000000       0x16 fs/built-in.o
 .rodata.__func__.13096
                0x0000000000000000       0x1a fs/built-in.o
 .rodata.__func__.13171
                0x0000000000000000        0xf fs/built-in.o
 .rodata.__func__.13118
                0x0000000000000000       0x13 fs/built-in.o
 .data          0x0000000000000000        0x0 fs/built-in.o
 .bss           0x0000000000000000        0x0 fs/built-in.o
 .bss.ext4fs_symlinknest
                0x0000000000000000        0x4 fs/built-in.o
 .text          0x0000000000000000        0x0 lib/built-in.o
 .text.efi_serialize_load_option
                0x0000000000000000       0xc0 lib/built-in.o
 .text.indent_string
                0x0000000000000000       0x30 lib/built-in.o
 .text.__efi_nesting
                0x0000000000000000       0x10 lib/built-in.o
 .text.__efi_nesting_inc
                0x0000000000000000       0x18 lib/built-in.o
 .text.__efi_nesting_dec
                0x0000000000000000       0x18 lib/built-in.o
 .text.efi_dp_from_dev
                0x0000000000000000       0x3c lib/built-in.o
 .text.efi_hii_packagelist_exists
                0x0000000000000000       0x34 lib/built-in.o
 .text.efi_hii_package_len
                0x0000000000000000       0x1c lib/built-in.o
 .text.get_package_list_handle
                0x0000000000000000       0x64 lib/built-in.o
 .text.set_keyboard_layout
                0x0000000000000000       0x14 lib/built-in.o
 .text.unregister_package_notify
                0x0000000000000000       0x14 lib/built-in.o
 .text.register_package_notify
                0x0000000000000000       0x4c lib/built-in.o
 .text.export_package_lists
                0x0000000000000000       0x34 lib/built-in.o
 .text.list_package_lists
                0x0000000000000000      0x114 lib/built-in.o
 .text.find_keyboard_layouts
                0x0000000000000000       0xbc lib/built-in.o
 .text.remove_guid_package
                0x0000000000000000       0x3c lib/built-in.o
 .text.remove_strings_package
                0x0000000000000000       0x74 lib/built-in.o
 .text.free_keyboard_layouts
                0x0000000000000000       0x54 lib/built-in.o
 .text.remove_keyboard_package
                0x0000000000000000       0x48 lib/built-in.o
 .text.free_packagelist
                0x0000000000000000       0x40 lib/built-in.o
 .text.remove_package_list
                0x0000000000000000       0x44 lib/built-in.o
 .text.language_match
                0x0000000000000000       0x4c lib/built-in.o
 .text.get_keyboard_layout
                0x0000000000000000       0xdc lib/built-in.o
 .text.get_secondary_languages
                0x0000000000000000       0x9c lib/built-in.o
 .text.get_string
                0x0000000000000000       0xd0 lib/built-in.o
 .text.get_languages
                0x0000000000000000      0x104 lib/built-in.o
 .text.set_string
                0x0000000000000000      0x120 lib/built-in.o
 .text.new_string
                0x0000000000000000      0x120 lib/built-in.o
 .text.add_packages
                0x0000000000000000      0x3b8 lib/built-in.o
 .text.update_package_list
                0x0000000000000000      0x108 lib/built-in.o
 .text.new_package_list
                0x0000000000000000       0xc4 lib/built-in.o
 .text.extract_config_access
                0x0000000000000000       0x14 lib/built-in.o
 .text.route_config_access
                0x0000000000000000       0x14 lib/built-in.o
 .text.form_callback
                0x0000000000000000       0x14 lib/built-in.o
 .text.get_alt_config
                0x0000000000000000       0x14 lib/built-in.o
 .text.config_to_block
                0x0000000000000000       0x14 lib/built-in.o
 .text.block_to_config
                0x0000000000000000       0x14 lib/built-in.o
 .text.route_config
                0x0000000000000000       0x14 lib/built-in.o
 .text.export_config
                0x0000000000000000       0x14 lib/built-in.o
 .text.extract_config
                0x0000000000000000       0x14 lib/built-in.o
 .text.invalidate_icache_all
                0x0000000000000000        0x4 lib/built-in.o
 .text.efi_add_runtime_mmio
                0x0000000000000000       0xb0 lib/built-in.o
 .text.u16_strnlen
                0x0000000000000000       0x24 lib/built-in.o
 .text.u16_strcpy
                0x0000000000000000       0x20 lib/built-in.o
 .text.u16_strdup
                0x0000000000000000       0x44 lib/built-in.o
 .text.crc7     0x0000000000000000       0x24 lib/built-in.o
 .text.crc8     0x0000000000000000       0x4c lib/built-in.o
 .text.crc16_ccitt_wd_buf
                0x0000000000000000       0x38 lib/built-in.o
 .text.ldiv     0x0000000000000000       0x50 lib/built-in.o
 .text.rc4_encode
                0x0000000000000000       0xec lib/built-in.o
 .text.__rb_erase_color
                0x0000000000000000      0x250 lib/built-in.o
 .text.__rb_insert_augmented
                0x0000000000000000      0x16c lib/built-in.o
 .text.rb_prev  0x0000000000000000       0x60 lib/built-in.o
 .text.rb_replace_node
                0x0000000000000000       0x60 lib/built-in.o
 .text.inflateInit_
                0x0000000000000000       0x10 lib/built-in.o
 .text.fdt_nop_property
                0x0000000000000000       0x40 lib/built-in.o
 .text.fdt_nop_node
                0x0000000000000000       0x50 lib/built-in.o
 .text.fdt_sw_check_header_
                0x0000000000000000       0x1c lib/built-in.o
 .text.fdt_grab_space_
                0x0000000000000000       0x64 lib/built-in.o
 .text.fdt_create
                0x0000000000000000       0x64 lib/built-in.o
 .text.fdt_resize
                0x0000000000000000       0xb4 lib/built-in.o
 .text.fdt_add_reservemap_entry
                0x0000000000000000       0x90 lib/built-in.o
 .text.fdt_finish_reservemap
                0x0000000000000000       0x1c lib/built-in.o
 .text.fdt_begin_node
                0x0000000000000000       0x68 lib/built-in.o
 .text.fdt_end_node
                0x0000000000000000       0x40 lib/built-in.o
 .text.fdt_property_placeholder
                0x0000000000000000      0x10c lib/built-in.o
 .text.fdt_property
                0x0000000000000000       0x3c lib/built-in.o
 .text.fdt_finish
                0x0000000000000000      0x100 lib/built-in.o
 .text.fdt_set_name
                0x0000000000000000       0x88 lib/built-in.o
 .text.fdt_appendprop
                0x0000000000000000       0xd4 lib/built-in.o
 .text.fdt_pack
                0x0000000000000000       0x5c lib/built-in.o
 .text.fdt_create_empty_tree
                0x0000000000000000       0x74 lib/built-in.o
 .text.fdt_get_alias
                0x0000000000000000       0x28 lib/built-in.o
 .text.fdt_node_offset_by_prop_value
                0x0000000000000000       0x98 lib/built-in.o
 .text.fdt_stringlist_contains
                0x0000000000000000       0x7c lib/built-in.o
 .text.fdt_stringlist_count
                0x0000000000000000       0x64 lib/built-in.o
 .text.fdt_stringlist_get
                0x0000000000000000       0xac lib/built-in.o
 .text.fdt_node_check_compatible
                0x0000000000000000       0x40 lib/built-in.o
 .text.fdt_node_offset_by_compatible
                0x0000000000000000       0x70 lib/built-in.o
 .text.fdt_add_region
                0x0000000000000000       0x94 lib/built-in.o
 .text.fdt_find_regions
                0x0000000000000000      0x3b4 lib/built-in.o
 .text.fdt_add_alias_regions
                0x0000000000000000      0x19c lib/built-in.o
 .text.fdt_next_region
                0x0000000000000000      0x52c lib/built-in.o
 .text.fdt_first_region
                0x0000000000000000       0x48 lib/built-in.o
 .text.fdtdec_get_uint
                0x0000000000000000       0x38 lib/built-in.o
 .text.fdtdec_get_compatible
                0x0000000000000000       0x10 lib/built-in.o
 .text.fdtdec_get_uint64
                0x0000000000000000       0x48 lib/built-in.o
 .text.get_next_memory_node
                0x0000000000000000       0x54 lib/built-in.o
 .text.fdtdec_lookup
                0x0000000000000000       0x4c lib/built-in.o
 .text.fdtdec_next_compatible
                0x0000000000000000       0x10 lib/built-in.o
 .text.fdtdec_next_compatible_subnode
                0x0000000000000000       0x68 lib/built-in.o
 .text.fdtdec_next_alias
                0x0000000000000000       0x94 lib/built-in.o
 .text.fdtdec_add_aliases_for_id
                0x0000000000000000      0x288 lib/built-in.o
 .text.fdtdec_find_aliases_for_id
                0x0000000000000000       0x44 lib/built-in.o
 .text.fdtdec_get_chosen_prop
                0x0000000000000000       0x34 lib/built-in.o
 .text.fdtdec_get_chosen_node
                0x0000000000000000       0x28 lib/built-in.o
 .text.fdtdec_check_fdt
                0x0000000000000000       0x10 lib/built-in.o
 .text.decode_timing_property
                0x0000000000000000       0x84 lib/built-in.o
 .text.fdtdec_locate_array
                0x0000000000000000       0x28 lib/built-in.o
 .text.fdtdec_get_child_count
                0x0000000000000000       0x34 lib/built-in.o
 .text.fdtdec_locate_byte_array
                0x0000000000000000       0x24 lib/built-in.o
 .text.fdtdec_get_config_bool
                0x0000000000000000       0x44 lib/built-in.o
 .text.fdtdec_get_addr_size_auto_parent
                0x0000000000000000       0x6c lib/built-in.o
 .text.fdtdec_get_addr_size_auto_noparent
                0x0000000000000000       0x54 lib/built-in.o
 .text.fdtdec_decode_display_timing
                0x0000000000000000      0x2dc lib/built-in.o
 .text.fdtdec_setup_mem_size_base
                0x0000000000000000       0x68 lib/built-in.o
 .text.fdtdec_setup_memory_banksize
                0x0000000000000000       0xb8 lib/built-in.o
 .text.fdtdec_decode_ram_size
                0x0000000000000000      0x1fc lib/built-in.o
 .text.print_freq
                0x0000000000000000      0x1a0 lib/built-in.o
 .text.crc32_wd_buf
                0x0000000000000000       0x38 lib/built-in.o
 .text.div64_u64_rem
                0x0000000000000000      0x17c lib/built-in.o
 .text.div64_u64
                0x0000000000000000      0x144 lib/built-in.o
 .text.div64_s64
                0x0000000000000000       0x50 lib/built-in.o
 .text.iter_div_u64_rem
                0x0000000000000000       0x40 lib/built-in.o
 .text.lmb_init
                0x0000000000000000       0x18 lib/built-in.o
 .text.lmb_is_reserved
                0x0000000000000000       0x5c lib/built-in.o
 .text.board_lmb_reserve
                0x0000000000000000        0x4 lib/built-in.o
 .text.arch_lmb_reserve
                0x0000000000000000        0x4 lib/built-in.o
 .text.membuff_purge
                0x0000000000000000       0x10 lib/built-in.o
 .text.membuff_putraw
                0x0000000000000000       0xc8 lib/built-in.o
 .text.membuff_putbyte
                0x0000000000000000       0x30 lib/built-in.o
 .text.membuff_getraw
                0x0000000000000000       0x8c lib/built-in.o
 .text.membuff_getbyte
                0x0000000000000000       0x34 lib/built-in.o
 .text.membuff_peekbyte
                0x0000000000000000       0x30 lib/built-in.o
 .text.membuff_get
                0x0000000000000000       0x84 lib/built-in.o
 .text.membuff_put
                0x0000000000000000       0x64 lib/built-in.o
 .text.membuff_isempty
                0x0000000000000000       0x18 lib/built-in.o
 .text.membuff_avail
                0x0000000000000000       0x54 lib/built-in.o
 .text.membuff_size
                0x0000000000000000        0xc lib/built-in.o
 .text.membuff_makecontig
                0x0000000000000000       0x80 lib/built-in.o
 .text.membuff_free
                0x0000000000000000       0x30 lib/built-in.o
 .text.membuff_readline
                0x0000000000000000       0xb4 lib/built-in.o
 .text.membuff_extend_by
                0x0000000000000000       0xc0 lib/built-in.o
 .text.membuff_init
                0x0000000000000000       0x18 lib/built-in.o
 .text.membuff_new
                0x0000000000000000       0x38 lib/built-in.o
 .text.membuff_uninit
                0x0000000000000000       0x18 lib/built-in.o
 .text.membuff_dispose
                0x0000000000000000       0x24 lib/built-in.o
 .text.strchrnul
                0x0000000000000000       0x20 lib/built-in.o
 .text.strcspn  0x0000000000000000       0x38 lib/built-in.o
 .text.strswab  0x0000000000000000       0x48 lib/built-in.o
 .text.memscan  0x0000000000000000       0x2c lib/built-in.o
 .text.memchr_inv
                0x0000000000000000      0x138 lib/built-in.o
 .text.table_compute_checksum
                0x0000000000000000       0x28 lib/built-in.o
 .text.get_ticks
                0x0000000000000000       0x40 lib/built-in.o
 .text.timer_init
                0x0000000000000000        0x8 lib/built-in.o
 .text.get_timer
                0x0000000000000000       0x18 lib/built-in.o
 .text.__udelay
                0x0000000000000000       0xa8 lib/built-in.o
 .text.print_hex_dump_bytes
                0x0000000000000000       0x20 lib/built-in.o
 .text.panic_str
                0x0000000000000000        0xc lib/built-in.o
 .text.__assert_fail
                0x0000000000000000       0x14 lib/built-in.o
 .text.scnprintf
                0x0000000000000000       0x28 lib/built-in.o
 .text.print_grouped_ull
                0x0000000000000000       0x88 lib/built-in.o
 .text.strmhz   0x0000000000000000       0x64 lib/built-in.o
 .rodata.efi_guid_event_group_ready_to_boot
                0x0000000000000000       0x10 lib/built-in.o
 .rodata.efi_guid_event_group_memory_map_change
                0x0000000000000000       0x10 lib/built-in.o
 .rodata.efi_guid_event_group_virtual_address_change
                0x0000000000000000       0x10 lib/built-in.o
 .rodata.efi_hii_database
                0x0000000000000000       0x2c lib/built-in.o
 .rodata.efi_hii_string
                0x0000000000000000       0x14 lib/built-in.o
 .rodata.efi_guid_hii_database_protocol
                0x0000000000000000       0x10 lib/built-in.o
 .rodata.efi_guid_hii_string_protocol
                0x0000000000000000       0x10 lib/built-in.o
 .rodata.efi_hii_config_routing
                0x0000000000000000       0x18 lib/built-in.o
 .rodata.efi_hii_config_access
                0x0000000000000000        0xc lib/built-in.o
 .rodata.efi_guid_hii_config_routing_protocol
                0x0000000000000000       0x10 lib/built-in.o
 .rodata.efi_guid_hii_config_access_protocol
                0x0000000000000000       0x10 lib/built-in.o
 .rodata.crc7_syndrome_table
                0x0000000000000000      0x100 lib/built-in.o
 .rodata.z_errmsg
                0x0000000000000000       0x28 lib/built-in.o
 .rodata.compat_names
                0x0000000000000000       0x8c lib/built-in.o
 .rodata.names.8385
                0x0000000000000000        0x3 lib/built-in.o
 .rodata.hex_asc_upper
                0x0000000000000000       0x11 lib/built-in.o
 .data          0x0000000000000000        0x0 lib/built-in.o
 .data.efi_package_lists
                0x0000000000000000        0x8 lib/built-in.o
 .data.efi_keyboard_layout_list
                0x0000000000000000        0x8 lib/built-in.o
 .bss           0x0000000000000000        0x0 lib/built-in.o
 .bss.nesting_level
                0x0000000000000000        0x4 lib/built-in.o
 .text          0x0000000000000000        0x0 net/built-in.o
 .text.add_ip_checksums
                0x0000000000000000       0x3c net/built-in.o
 .text.eth_init_state_only
                0x0000000000000000       0x38 net/built-in.o
 .text.net_get_udp_handler
                0x0000000000000000       0x10 net/built-in.o
 .text.net_set_arp_handler
                0x0000000000000000       0x20 net/built-in.o
 .text.random_port
                0x0000000000000000       0x18 net/built-in.o
 .text.vlan_to_string
                0x0000000000000000       0x44 net/built-in.o
 .text.env_get_vlan
                0x0000000000000000       0x10 net/built-in.o
 .data          0x0000000000000000        0x0 net/built-in.o
 .data.tftp_timeout_ms
                0x0000000000000000        0x4 net/built-in.o
 .bss           0x0000000000000000        0x0 net/built-in.o
 .bss.net_busy_flag
                0x0000000000000000        0x4 net/built-in.o
 .text          0x0000000000000000        0x0 arch/arm/lib/eabi_compat.o
 .data          0x0000000000000000        0x0 arch/arm/lib/eabi_compat.o
 .bss           0x0000000000000000        0x0 arch/arm/lib/eabi_compat.o
 .text.raise    0x0000000000000000       0x1c arch/arm/lib/eabi_compat.o
 .text.__aeabi_unwind_cpp_pr0
                0x0000000000000000        0x4 arch/arm/lib/eabi_compat.o
 .text.__aeabi_unwind_cpp_pr1
                0x0000000000000000        0x4 arch/arm/lib/eabi_compat.o
 .text.__aeabi_memcpy
                0x0000000000000000        0x4 arch/arm/lib/eabi_compat.o
 .text.__aeabi_memset
                0x0000000000000000       0x10 arch/arm/lib/eabi_compat.o
 .rodata.str1.1
                0x0000000000000000       0x1b arch/arm/lib/eabi_compat.o
 .debug_info    0x0000000000000000      0x257 arch/arm/lib/eabi_compat.o
 .debug_abbrev  0x0000000000000000      0x141 arch/arm/lib/eabi_compat.o
 .debug_loc     0x0000000000000000      0x108 arch/arm/lib/eabi_compat.o
 .debug_aranges
                0x0000000000000000       0x40 arch/arm/lib/eabi_compat.o
 .debug_ranges  0x0000000000000000       0x30 arch/arm/lib/eabi_compat.o
 .debug_line    0x0000000000000000       0xf6 arch/arm/lib/eabi_compat.o
 .debug_str     0x0000000000000000      0x366 arch/arm/lib/eabi_compat.o
 .comment       0x0000000000000000       0x37 arch/arm/lib/eabi_compat.o
 .note.GNU-stack
                0x0000000000000000        0x0 arch/arm/lib/eabi_compat.o
 .ARM.attributes
                0x0000000000000000       0x2d arch/arm/lib/eabi_compat.o
 .debug_frame   0x0000000000000000       0x68 arch/arm/lib/eabi_compat.o
 .text          0x0000000000000000        0x0 arch/arm/lib/lib.a(ashldi3.o)
 .data          0x0000000000000000        0x0 arch/arm/lib/lib.a(ashldi3.o)
 .bss           0x0000000000000000        0x0 arch/arm/lib/lib.a(ashldi3.o)
 .text          0x0000000000000000        0x0 arch/arm/lib/lib.a(ashrdi3.o)
 .data          0x0000000000000000        0x0 arch/arm/lib/lib.a(ashrdi3.o)
 .bss           0x0000000000000000        0x0 arch/arm/lib/lib.a(ashrdi3.o)
 .text          0x0000000000000000        0x0 arch/arm/lib/lib.a(lib1funcs.o)
 .data          0x0000000000000000        0x0 arch/arm/lib/lib.a(lib1funcs.o)
 .bss           0x0000000000000000        0x0 arch/arm/lib/lib.a(lib1funcs.o)
 .text.__umodsi3
                0x0000000000000000       0xa0 arch/arm/lib/lib.a(lib1funcs.o)
 .text.__modsi3
                0x0000000000000000       0xb8 arch/arm/lib/lib.a(lib1funcs.o)
 .text          0x0000000000000000        0x0 arch/arm/lib/lib.a(lshrdi3.o)
 .data          0x0000000000000000        0x0 arch/arm/lib/lib.a(lshrdi3.o)
 .bss           0x0000000000000000        0x0 arch/arm/lib/lib.a(lshrdi3.o)
 .text          0x0000000000000000        0x0 arch/arm/lib/lib.a(uldivmod.o)
 .data          0x0000000000000000        0x0 arch/arm/lib/lib.a(uldivmod.o)
 .bss           0x0000000000000000        0x0 arch/arm/lib/lib.a(uldivmod.o)
 .text          0x0000000000000000        0x0 arch/arm/lib/lib.a(div0.o)
 .data          0x0000000000000000        0x0 arch/arm/lib/lib.a(div0.o)
 .bss           0x0000000000000000        0x0 arch/arm/lib/lib.a(div0.o)

Memory Configuration

Name             Origin             Length             Attributes
*default*        0x0000000000000000 0xffffffffffffffff

Linker script and memory map

Address of section .text set to 0x87800000
                0x0000000000000000                . = 0x0
                0x0000000000000000                . = ALIGN (0x4)

.text           0x0000000087800000      0x3c0
 *(.__image_copy_start)
 .__image_copy_start
                0x0000000087800000        0x0 arch/arm/lib/built-in.o
                0x0000000087800000                __image_copy_start
 *(.vectors)
 .vectors       0x0000000087800000      0x300 arch/arm/lib/built-in.o
                0x0000000087800000                _start
                0x0000000087800020                _undefined_instruction
                0x0000000087800024                _software_interrupt
                0x0000000087800028                _prefetch_abort
                0x000000008780002c                _data_abort
                0x0000000087800030                _not_used
                0x0000000087800034                _irq
                0x0000000087800038                _fiq
                0x0000000087800040                IRQ_STACK_START_IN
 arch/arm/cpu/armv7/start.o(.text*)
 .text          0x0000000087800300       0xc0 arch/arm/cpu/armv7/start.o
                0x0000000087800300                reset
                0x0000000087800304                save_boot_params_ret
                0x0000000087800340                c_runtime_cpu_setup
                0x0000000087800350                save_boot_params
                0x0000000087800354                cpu_init_cp15
                0x00000000878003b4                cpu_init_crit

.glue_7         0x00000000878003c0        0x0
 .glue_7        0x00000000878003c0        0x0 linker stubs

.glue_7t        0x00000000878003c0        0x0
 .glue_7t       0x00000000878003c0        0x0 linker stubs

.vfp11_veneer   0x00000000878003c0        0x0
 .vfp11_veneer  0x00000000878003c0        0x0 linker stubs

.v4_bx          0x00000000878003c0        0x0
 .v4_bx         0x00000000878003c0        0x0 linker stubs

.iplt           0x00000000878003c0        0x0
 .iplt          0x00000000878003c0        0x0 arch/arm/cpu/armv7/start.o

.__efi_runtime_start
                0x00000000878003c0        0x0
 *(.__efi_runtime_start)
 .__efi_runtime_start
                0x00000000878003c0        0x0 arch/arm/lib/built-in.o

.efi_runtime    0x00000000878003c0      0x7c0
 *(.text.efi_runtime*)
 .text.efi_runtime
                0x00000000878003c0      0x14c lib/built-in.o
                0x00000000878003c0                efi_reset_system
                0x00000000878003c4                efi_get_time
                0x00000000878003e4                efi_update_capsule
                0x00000000878003ec                efi_query_capsule_caps
                0x00000000878003f4                efi_query_variable_info
                0x00000000878003fc                efi_update_table_header_crc32
                0x0000000087800420                crc32_no_comp
                0x00000000878004f8                crc32
 .text.efi_runtime_relocate
                0x000000008780050c      0x16c lib/built-in.o
                0x000000008780050c                efi_runtime_relocate
 *(.rodata.efi_runtime*)
 .rodata.efi_runtime_detach_list
                0x0000000087800678       0x50 lib/built-in.o
 *(.data.efi_runtime*)
 .data.efi_runtime
                0x00000000878006c8      0x4b0 lib/built-in.o
                0x00000000878006c8                systab
                0x0000000087800728                efi_runtime_services
 .data.efi_runtime_mmio
                0x0000000087800b78        0x8 lib/built-in.o
                0x0000000087800b78                efi_runtime_mmio

.__efi_runtime_stop
                0x0000000087800b80        0x0
 *(.__efi_runtime_stop)
 .__efi_runtime_stop
                0x0000000087800b80        0x0 arch/arm/lib/built-in.o

.text_rest      0x0000000087800b80    0x8ea78
 *(.text*)
 .text          0x0000000087800b80      0x158 arch/arm/cpu/armv7/built-in.o
                0x0000000087800b80                __v7_flush_dcache_all
                0x0000000087800c14                v7_flush_dcache_all
                0x0000000087800c24                __v7_invalidate_dcache_all
                0x0000000087800cb8                v7_invalidate_dcache_all
                0x0000000087800cc8                allow_unaligned
 .text.invalidate_icache_all
                0x0000000087800cd8       0x18 arch/arm/cpu/armv7/built-in.o
                0x0000000087800cd8                invalidate_icache_all
 .text.v7_outer_cache_enable
                0x0000000087800cf0        0x4 arch/arm/cpu/armv7/built-in.o
                0x0000000087800cf0                v7_outer_cache_enable
 .text.v7_outer_cache_disable
                0x0000000087800cf4        0x4 arch/arm/cpu/armv7/built-in.o
                0x0000000087800cf4                v7_outer_cache_disable
 .text.v7_outer_cache_flush_all
                0x0000000087800cf8        0x4 arch/arm/cpu/armv7/built-in.o
                0x0000000087800cf8                v7_outer_cache_flush_all
 .text.flush_dcache_all
                0x0000000087800cfc       0x10 arch/arm/cpu/armv7/built-in.o
                0x0000000087800cfc                flush_dcache_all
 .text.v7_outer_cache_inval_all
                0x0000000087800d0c        0x4 arch/arm/cpu/armv7/built-in.o
                0x0000000087800d0c                v7_outer_cache_inval_all
 .text.invalidate_dcache_all
                0x0000000087800d10       0x10 arch/arm/cpu/armv7/built-in.o
                0x0000000087800d10                invalidate_dcache_all
 .text.arm_init_before_mmu
                0x0000000087800d20       0x28 arch/arm/cpu/armv7/built-in.o
                0x0000000087800d20                arm_init_before_mmu
 .text.v7_outer_cache_flush_range
                0x0000000087800d48        0x4 arch/arm/cpu/armv7/built-in.o
                0x0000000087800d48                v7_outer_cache_flush_range
 .text.flush_dcache_range
                0x0000000087800d4c       0x54 arch/arm/cpu/armv7/built-in.o
                0x0000000087800d4c                flush_dcache_range
 .text.mmu_page_table_flush
                0x0000000087800da0       0x24 arch/arm/cpu/armv7/built-in.o
                0x0000000087800da0                mmu_page_table_flush
 .text.v7_outer_cache_inval_range
                0x0000000087800dc4        0x4 arch/arm/cpu/armv7/built-in.o
                0x0000000087800dc4                v7_outer_cache_inval_range
 .text.invalidate_dcache_range
                0x0000000087800dc8       0x64 arch/arm/cpu/armv7/built-in.o
                0x0000000087800dc8                invalidate_dcache_range
 .text.cpu_cache_initialization
                0x0000000087800e2c        0x4 arch/arm/cpu/armv7/built-in.o
                0x0000000087800e2c                cpu_cache_initialization
 .text.cleanup_before_linux_select
                0x0000000087800e30       0x4c arch/arm/cpu/armv7/built-in.o
                0x0000000087800e30                cleanup_before_linux_select
 .text.cleanup_before_linux
                0x0000000087800e7c        0x8 arch/arm/cpu/armv7/built-in.o
                0x0000000087800e7c                cleanup_before_linux
 .text.lowlevel_init
                0x0000000087800e84       0x24 arch/arm/cpu/armv7/built-in.o
                0x0000000087800e84                lowlevel_init
 *fill*         0x0000000087800ea8       0x18 
 .text          0x0000000087800ec0      0x530 arch/arm/lib/built-in.o
                0x0000000087800ec0                _main
                0x0000000087800f60                memset
                0x0000000087801040                memcpy
 .text.setjmp   0x00000000878013f0       0x10 arch/arm/lib/built-in.o
                0x00000000878013f0                setjmp
 .text.longjmp  0x0000000087801400       0x1c arch/arm/lib/built-in.o
                0x0000000087801400                longjmp
 .text.relocate_vectors
                0x000000008780141c       0x70 arch/arm/lib/built-in.o
                0x000000008780141c                relocate_vectors
                0x0000000087801428                relocate_code
 .text.arch_fixup_fdt
                0x000000008780148c       0x38 arch/arm/lib/built-in.o
                0x000000008780148c                arch_fixup_fdt
 .text.setup_initrd_tag.isra.2
                0x00000000878014c4       0x40 arch/arm/lib/built-in.o
 .text.arch_lmb_reserve
                0x0000000087801504       0x50 arch/arm/lib/built-in.o
                0x0000000087801504                arch_lmb_reserve
 .text.board_quiesce_devices
                0x0000000087801554        0x4 arch/arm/lib/built-in.o
                0x0000000087801554                board_quiesce_devices
 .text.boot_jump_linux
                0x0000000087801558       0xd0 arch/arm/lib/built-in.o
 .text.setup_board_tags
                0x0000000087801628        0x4 arch/arm/lib/built-in.o
                0x0000000087801628                setup_board_tags
 .text.boot_prep_linux
                0x000000008780162c      0x1ec arch/arm/lib/built-in.o
 .text.do_bootm_linux
                0x0000000087801818       0x64 arch/arm/lib/built-in.o
                0x0000000087801818                do_bootm_linux
 .text.boot_prep_vxworks
                0x000000008780187c       0x50 arch/arm/lib/built-in.o
                0x000000008780187c                boot_prep_vxworks
 .text.boot_jump_vxworks
                0x00000000878018cc        0xc arch/arm/lib/built-in.o
                0x00000000878018cc                boot_jump_vxworks
 .text.bootz_setup
                0x00000000878018d8       0xa0 arch/arm/lib/built-in.o
                0x00000000878018d8                bootz_setup
 .text.arch_reserve_stacks
                0x0000000087801978       0x1c arch/arm/lib/built-in.o
                0x0000000087801978                arch_reserve_stacks
 .text.interrupt_init
                0x0000000087801994       0x1c arch/arm/lib/built-in.o
                0x0000000087801994                interrupt_init
 .text.enable_interrupts
                0x00000000878019b0        0x4 arch/arm/lib/built-in.o
                0x00000000878019b0                enable_interrupts
 .text.disable_interrupts
                0x00000000878019b4        0x8 arch/arm/lib/built-in.o
                0x00000000878019b4                disable_interrupts
 .text.bad_mode
                0x00000000878019bc       0x10 arch/arm/lib/built-in.o
                0x00000000878019bc                bad_mode
 .text.show_regs
                0x00000000878019cc      0x1cc arch/arm/lib/built-in.o
                0x00000000878019cc                show_regs
 .text.do_undefined_instruction
                0x0000000087801b98       0x38 arch/arm/lib/built-in.o
                0x0000000087801b98                do_undefined_instruction
 .text.do_software_interrupt
                0x0000000087801bd0       0x38 arch/arm/lib/built-in.o
                0x0000000087801bd0                do_software_interrupt
 .text.do_prefetch_abort
                0x0000000087801c08       0x38 arch/arm/lib/built-in.o
                0x0000000087801c08                do_prefetch_abort
 .text.do_data_abort
                0x0000000087801c40       0x38 arch/arm/lib/built-in.o
                0x0000000087801c40                do_data_abort
 .text.do_not_used
                0x0000000087801c78       0x38 arch/arm/lib/built-in.o
                0x0000000087801c78                do_not_used
 .text.do_fiq   0x0000000087801cb0       0x38 arch/arm/lib/built-in.o
                0x0000000087801cb0                do_fiq
 .text.do_irq   0x0000000087801ce8       0x38 arch/arm/lib/built-in.o
                0x0000000087801ce8                do_irq
 .text.do_reset
                0x0000000087801d20       0x30 arch/arm/lib/built-in.o
                0x0000000087801d20                do_reset
 .text.flush_cache
                0x0000000087801d50        0x8 arch/arm/lib/built-in.o
                0x0000000087801d50                flush_cache
 .text.check_cache_range
                0x0000000087801d58       0x38 arch/arm/lib/built-in.o
                0x0000000087801d58                check_cache_range
 .text.cache_disable
                0x0000000087801d90       0x50 arch/arm/lib/built-in.o
 .text.arm_init_domains
                0x0000000087801de0        0x4 arch/arm/lib/built-in.o
                0x0000000087801de0                arm_init_domains
 .text.set_section_dcache
                0x0000000087801de4       0x14 arch/arm/lib/built-in.o
                0x0000000087801de4                set_section_dcache
 .text.mmu_set_region_dcache_behaviour
                0x0000000087801df8       0x5c arch/arm/lib/built-in.o
                0x0000000087801df8                mmu_set_region_dcache_behaviour
 .text.dram_bank_mmu_setup
                0x0000000087801e54       0x44 arch/arm/lib/built-in.o
                0x0000000087801e54                dram_bank_mmu_setup
 .text.icache_enable
                0x0000000087801e98       0x14 arch/arm/lib/built-in.o
                0x0000000087801e98                icache_enable
 .text.icache_disable
                0x0000000087801eac        0x8 arch/arm/lib/built-in.o
                0x0000000087801eac                icache_disable
 .text.icache_status
                0x0000000087801eb4        0xc arch/arm/lib/built-in.o
                0x0000000087801eb4                icache_status
 .text.dcache_enable
                0x0000000087801ec0       0x80 arch/arm/lib/built-in.o
                0x0000000087801ec0                dcache_enable
 .text.dcache_disable
                0x0000000087801f40        0x8 arch/arm/lib/built-in.o
                0x0000000087801f40                dcache_disable
 .text.dcache_status
                0x0000000087801f48        0xc arch/arm/lib/built-in.o
                0x0000000087801f48                dcache_status
 .text.imx_iomux_v3_setup_pad
                0x0000000087801f54      0x1a8 arch/arm/mach-imx/built-in.o
                0x0000000087801f54                imx_iomux_v3_setup_pad
 .text.imx_iomux_v3_setup_multiple_pads
                0x00000000878020fc       0x2c arch/arm/mach-imx/built-in.o
                0x00000000878020fc                imx_iomux_v3_setup_multiple_pads
 .text.get_imx_reset_cause
                0x0000000087802128       0x30 arch/arm/mach-imx/built-in.o
                0x0000000087802128                get_imx_reset_cause
 .text.get_reset_cause
                0x0000000087802158       0xe0 arch/arm/mach-imx/built-in.o
 .text.get_reboot_reason
                0x0000000087802238       0x38 arch/arm/mach-imx/built-in.o
                0x0000000087802238                get_reboot_reason
 .text.imx_ddr_size
                0x0000000087802270       0x6c arch/arm/mach-imx/built-in.o
                0x0000000087802270                imx_ddr_size
 .text.get_imx_type
                0x00000000878022dc       0x20 arch/arm/mach-imx/built-in.o
                0x00000000878022dc                get_imx_type
 .text.print_cpuinfo
                0x00000000878022fc      0x158 arch/arm/mach-imx/built-in.o
                0x00000000878022fc                print_cpuinfo
 .text.get_ahb_clk
                0x0000000087802454       0x24 arch/arm/mach-imx/built-in.o
                0x0000000087802454                get_ahb_clk
 .text.arch_preboot_os
                0x0000000087802478        0x4 arch/arm/mach-imx/built-in.o
                0x0000000087802478                arch_preboot_os
 .text.get_clocks
                0x000000008780247c       0x1c arch/arm/mach-imx/built-in.o
                0x000000008780247c                get_clocks
 .text.mxs_wait_mask_set
                0x0000000087802498       0x44 arch/arm/mach-imx/built-in.o
                0x0000000087802498                mxs_wait_mask_set
 .text.mxs_wait_mask_clr
                0x00000000878024dc       0x40 arch/arm/mach-imx/built-in.o
                0x00000000878024dc                mxs_wait_mask_clr
 .text.mxs_reset_block
                0x000000008780251c       0xa4 arch/arm/mach-imx/built-in.o
                0x000000008780251c                mxs_reset_block
 .text.board_lmb_reserve
                0x00000000878025c0       0x3c arch/arm/mach-imx/built-in.o
                0x00000000878025c0                board_lmb_reserve
 .text.board_video_skip
                0x00000000878025fc      0x1c0 arch/arm/mach-imx/built-in.o
                0x00000000878025fc                board_video_skip
 .text.enable_caches
                0x00000000878027bc       0x60 arch/arm/mach-imx/built-in.o
                0x00000000878027bc                enable_caches
 .text.init_aips
                0x000000008780281c      0x124 arch/arm/mach-imx/built-in.o
                0x000000008780281c                init_aips
 .text.imx_wdog_disable_powerdown
                0x0000000087802940       0xd8 arch/arm/mach-imx/built-in.o
                0x0000000087802940                imx_wdog_disable_powerdown
 .text.init_src
                0x0000000087802a18       0x20 arch/arm/mach-imx/built-in.o
                0x0000000087802a18                init_src
 .text.boot_mode_apply
                0x0000000087802a38       0x30 arch/arm/mach-imx/built-in.o
                0x0000000087802a38                boot_mode_apply
 .text.imx_get_mac_from_fuse
                0x0000000087802a68      0x118 arch/arm/mach-imx/built-in.o
                0x0000000087802a68                imx_get_mac_from_fuse
 .text.timer_init
                0x0000000087802b80       0x48 arch/arm/mach-imx/built-in.o
                0x0000000087802b80                timer_init
 .text.get_ticks
                0x0000000087802bc8       0x18 arch/arm/mach-imx/built-in.o
                0x0000000087802bc8                get_ticks
 .text.get_timer
                0x0000000087802be0       0x60 arch/arm/mach-imx/built-in.o
                0x0000000087802be0                get_timer
 .text.__udelay
                0x0000000087802c40       0x9c arch/arm/mach-imx/built-in.o
                0x0000000087802c40                __udelay
 .text.get_tbclk
                0x0000000087802cdc        0x8 arch/arm/mach-imx/built-in.o
                0x0000000087802cdc                get_tbclk
 .text.create_usage
                0x0000000087802ce4       0xa0 arch/arm/mach-imx/built-in.o
 .text.do_boot_mode
                0x0000000087802d84       0xd4 arch/arm/mach-imx/built-in.o
 .text.add_board_boot_modes
                0x0000000087802e58       0x60 arch/arm/mach-imx/built-in.o
                0x0000000087802e58                add_board_boot_modes
 .text.get_cpu_rev
                0x0000000087802eb8       0xe4 arch/arm/mach-imx/built-in.o
                0x0000000087802eb8                get_cpu_rev
 .text.get_cpu_speed_grade_hz
                0x0000000087802f9c      0x17c arch/arm/mach-imx/built-in.o
                0x0000000087802f9c                get_cpu_speed_grade_hz
 .text.get_cpu_temp_grade
                0x0000000087803118       0x6c arch/arm/mach-imx/built-in.o
                0x0000000087803118                get_cpu_temp_grade
 .text.get_board_rev
                0x0000000087803184       0x30 arch/arm/mach-imx/built-in.o
                0x0000000087803184                get_board_rev
 .text.is_usb_boot
                0x00000000878031b4        0xc arch/arm/mach-imx/built-in.o
                0x00000000878031b4                is_usb_boot
 .text.mmc_get_boot_dev
                0x00000000878031c0       0x34 arch/arm/mach-imx/built-in.o
 .text.arch_cpu_init
                0x00000000878031f4      0x4f4 arch/arm/mach-imx/built-in.o
                0x00000000878031f4                arch_cpu_init
 .text.board_mmc_get_env_dev
                0x00000000878036e8        0x4 arch/arm/mach-imx/built-in.o
                0x00000000878036e8                board_mmc_get_env_dev
 .text.mmc_get_env_dev
                0x00000000878036ec       0x30 arch/arm/mach-imx/built-in.o
                0x00000000878036ec                mmc_get_env_dev
 .text.board_mmc_get_env_part
                0x000000008780371c        0x8 arch/arm/mach-imx/built-in.o
                0x000000008780371c                board_mmc_get_env_part
 .text.mmc_get_env_part
                0x0000000087803724       0x20 arch/arm/mach-imx/built-in.o
                0x0000000087803724                mmc_get_env_part
 .text.board_postclk_init
                0x0000000087803744       0x80 arch/arm/mach-imx/built-in.o
                0x0000000087803744                board_postclk_init
 .text.get_board_serial
                0x00000000878037c4       0x1c arch/arm/mach-imx/built-in.o
                0x00000000878037c4                get_board_serial
 .text.get_boot_device
                0x00000000878037e0       0xa0 arch/arm/mach-imx/built-in.o
                0x00000000878037e0                get_boot_device
 .text.set_wdog_reset
                0x0000000087803880       0x24 arch/arm/mach-imx/built-in.o
                0x0000000087803880                set_wdog_reset
 .text.reset_misc
                0x00000000878038a4        0x4 arch/arm/mach-imx/built-in.o
                0x00000000878038a4                reset_misc
 .text.s_init   0x00000000878038a8       0xcc arch/arm/mach-imx/built-in.o
                0x00000000878038a8                s_init
 .text.get_ipg_clk
                0x0000000087803974       0x28 arch/arm/mach-imx/built-in.o
 .text.enable_pll_video.constprop.0
                0x000000008780399c      0x118 arch/arm/mach-imx/built-in.o
 .text.get_uart_clk
                0x0000000087803ab4       0xe8 arch/arm/mach-imx/built-in.o
 .text.mxc_get_pll_pfd
                0x0000000087803b9c       0xe4 arch/arm/mach-imx/built-in.o
 .text.get_usdhc_clk
                0x0000000087803c80       0xf8 arch/arm/mach-imx/built-in.o
 .text.enable_ocotp_clk
                0x0000000087803d78       0x24 arch/arm/mach-imx/built-in.o
                0x0000000087803d78                enable_ocotp_clk
 .text.setup_gpmi_io_clk
                0x0000000087803d9c       0x4c arch/arm/mach-imx/built-in.o
                0x0000000087803d9c                setup_gpmi_io_clk
 .text.enable_usboh3_clk
                0x0000000087803de8       0x24 arch/arm/mach-imx/built-in.o
                0x0000000087803de8                enable_usboh3_clk
 .text.enable_enet_clk
                0x0000000087803e0c       0x78 arch/arm/mach-imx/built-in.o
                0x0000000087803e0c                enable_enet_clk
 .text.enable_i2c_clk
                0x0000000087803e84       0xe8 arch/arm/mach-imx/built-in.o
                0x0000000087803e84                enable_i2c_clk
 .text.get_periph_clk
                0x0000000087803f6c       0xdc arch/arm/mach-imx/built-in.o
                0x0000000087803f6c                get_periph_clk
 .text.get_axi_clk
                0x0000000087804048       0x4c arch/arm/mach-imx/built-in.o
 .text.enable_lcdif_clock
                0x0000000087804094      0x300 arch/arm/mach-imx/built-in.o
                0x0000000087804094                enable_lcdif_clock
 .text.mxs_set_lcdclk
                0x0000000087804394      0x3c4 arch/arm/mach-imx/built-in.o
                0x0000000087804394                mxs_set_lcdclk
 .text.enable_qspi_clk
                0x0000000087804758       0xa8 arch/arm/mach-imx/built-in.o
                0x0000000087804758                enable_qspi_clk
 .text.enable_fec_anatop_clock
                0x0000000087804800      0x114 arch/arm/mach-imx/built-in.o
                0x0000000087804800                enable_fec_anatop_clock
 .text.imx_get_uartclk
                0x0000000087804914        0x4 arch/arm/mach-imx/built-in.o
                0x0000000087804914                imx_get_uartclk
 .text.enable_thermal_clk
                0x0000000087804918       0x60 arch/arm/mach-imx/built-in.o
                0x0000000087804918                enable_thermal_clk
 .text.mxc_get_clock
                0x0000000087804978      0x4ec arch/arm/mach-imx/built-in.o
                0x0000000087804978                mxc_get_clock
 .text.imx_get_fecclk
                0x0000000087804e64        0x8 arch/arm/mach-imx/built-in.o
                0x0000000087804e64                imx_get_fecclk
 .text.do_mx6_showclocks
                0x0000000087804e6c      0x24c arch/arm/mach-imx/built-in.o
                0x0000000087804e6c                do_mx6_showclocks
 .text.check_module_fused
                0x00000000878050b8       0x70 arch/arm/mach-imx/built-in.o
                0x00000000878050b8                check_module_fused
 .text.ft_system_setup
                0x0000000087805128       0xf8 arch/arm/mach-imx/built-in.o
                0x0000000087805128                ft_system_setup
 .text.mx6_esdhc_fused
                0x0000000087805220       0x64 arch/arm/mach-imx/built-in.o
                0x0000000087805220                mx6_esdhc_fused
 .text.mx6_usb_fused
                0x0000000087805284       0x14 arch/arm/mach-imx/built-in.o
                0x0000000087805284                mx6_usb_fused
 .text.mx6_qspi_fused
                0x0000000087805298        0x8 arch/arm/mach-imx/built-in.o
                0x0000000087805298                mx6_qspi_fused
 .text.mx6_i2c_fused
                0x00000000878052a0       0x64 arch/arm/mach-imx/built-in.o
                0x00000000878052a0                mx6_i2c_fused
 .text.mx6_enet_fused
                0x0000000087805304       0x34 arch/arm/mach-imx/built-in.o
                0x0000000087805304                mx6_enet_fused
 .text.mmc_map_to_kernel_blk
                0x0000000087805338        0x4 board/freescale/common/built-in.o
                0x0000000087805338                mmc_map_to_kernel_blk
 .text.board_late_mmc_env_init
                0x000000008780533c       0x9c board/freescale/common/built-in.o
                0x000000008780533c                board_late_mmc_env_init
 .text.do_enable_parallel_lcd
                0x00000000878053d8       0x70 board/freescale/mx6ullevk/built-in.o
                0x00000000878053d8                do_enable_parallel_lcd
 .text.dram_init
                0x0000000087805448       0x18 board/freescale/mx6ullevk/built-in.o
                0x0000000087805448                dram_init
 .text.board_phy_config
                0x0000000087805460       0x4c board/freescale/mx6ullevk/built-in.o
                0x0000000087805460                board_phy_config
 .text.board_early_init_f
                0x00000000878054ac       0x1c board/freescale/mx6ullevk/built-in.o
                0x00000000878054ac                board_early_init_f
 .text.board_init
                0x00000000878054c8       0x94 board/freescale/mx6ullevk/built-in.o
                0x00000000878054c8                board_init
 .text.board_late_init
                0x000000008780555c       0x98 board/freescale/mx6ullevk/built-in.o
                0x000000008780555c                board_late_init
 .text.checkboard
                0x00000000878055f4       0x2c board/freescale/mx6ullevk/built-in.o
                0x00000000878055f4                checkboard
 .text.do_go_exec
                0x0000000087805620       0x10 cmd/built-in.o
                0x0000000087805620                do_go_exec
 .text.do_go    0x0000000087805630       0x6c cmd/built-in.o
 .text.do_bootm
                0x000000008780569c      0x110 cmd/built-in.o
                0x000000008780569c                do_bootm
 .text.do_bootd
                0x00000000878057ac       0x20 cmd/built-in.o
                0x00000000878057ac                do_bootd
 .text.image_info
                0x00000000878057cc       0xec cmd/built-in.o
 .text.do_iminfo
                0x00000000878058b8       0x5c cmd/built-in.o
 .text.bootm_maybe_autostart
                0x0000000087805914       0x78 cmd/built-in.o
                0x0000000087805914                bootm_maybe_autostart
 .text.do_help  0x000000008780598c       0x44 cmd/built-in.o
 .text.do_version
                0x00000000878059d0       0x40 cmd/built-in.o
 .text.blk_common_cmd
                0x0000000087805a10      0x314 cmd/built-in.o
                0x0000000087805a10                blk_common_cmd
 .text.source   0x0000000087805d24       0xd8 cmd/built-in.o
                0x0000000087805d24                source
 .text.do_source
                0x0000000087805dfc       0x48 cmd/built-in.o
 .text.print_num
                0x0000000087805e44       0x18 cmd/built-in.o
 .text.do_bdinfo
                0x0000000087805e5c      0x10c cmd/built-in.o
 .text.do_blkcache
                0x0000000087805f68       0x64 cmd/built-in.o
 .text.blkc_configure
                0x0000000087805fcc       0x68 cmd/built-in.o
 .text.blkc_show
                0x0000000087806034       0x40 cmd/built-in.o
 .text.do_bmp   0x0000000087806074       0x54 cmd/built-in.o
 .text.do_bmp_info
                0x00000000878060c8      0x10c cmd/built-in.o
 .text.bmp_display
                0x00000000878061d4       0x50 cmd/built-in.o
                0x00000000878061d4                bmp_display
 .text.do_bmp_display
                0x0000000087806224       0xf8 cmd/built-in.o
 .text.efi_install_fdt
                0x000000008780631c      0x238 cmd/built-in.o
 .text.do_bootefi_exec
                0x0000000087806554      0x244 cmd/built-in.o
 .text.do_bootefi
                0x0000000087806798      0x16c cmd/built-in.o
 .text.efi_set_bootdev
                0x0000000087806904       0x70 cmd/built-in.o
                0x0000000087806904                efi_set_bootdev
 .text.do_bootz
                0x0000000087806974       0xf8 cmd/built-in.o
                0x0000000087806974                do_bootz
 .text.parse_argv
                0x0000000087806a6c       0x64 cmd/built-in.o
 .text.do_icache
                0x0000000087806ad0       0x88 cmd/built-in.o
 .text.do_dcache
                0x0000000087806b58       0x88 cmd/built-in.o
 .text.do_coninfo
                0x0000000087806be0       0xb0 cmd/built-in.o
 .text.do_dm_dump_devres
                0x0000000087806c90        0x8 cmd/built-in.o
 .text.do_dm    0x0000000087806c98       0x74 cmd/built-in.o
 .text.do_dm_dump_uclass
                0x0000000087806d0c       0x10 cmd/built-in.o
 .text.do_dm_dump_all
                0x0000000087806d1c       0x10 cmd/built-in.o
 .text.do_echo  0x0000000087806d2c       0xb0 cmd/built-in.o
 .text.load_elf_image_phdr
                0x0000000087806ddc      0x130 cmd/built-in.o
 .text.valid_elf_image
                0x0000000087806f0c       0x4c cmd/built-in.o
                0x0000000087806f0c                valid_elf_image
 .text.do_bootelf
                0x0000000087806f58      0x2b4 cmd/built-in.o
                0x0000000087806f58                do_bootelf
 .text.do_bootvx
                0x000000008780720c      0x310 cmd/built-in.o
                0x000000008780720c                do_bootvx
 .text.do_exit  0x000000008780751c       0x3c cmd/built-in.o
 .text.do_ext4_size
                0x0000000087807558       0x18 cmd/built-in.o
                0x0000000087807558                do_ext4_size
 .text.do_ext4_load
                0x0000000087807570       0x18 cmd/built-in.o
                0x0000000087807570                do_ext4_load
 .text.do_ext4_ls
                0x0000000087807588       0x18 cmd/built-in.o
                0x0000000087807588                do_ext4_ls
 .text.do_ext4_write
                0x00000000878075a0       0x18 cmd/built-in.o
                0x00000000878075a0                do_ext4_write
 .text.do_ext2load
                0x00000000878075b8       0x18 cmd/built-in.o
                0x00000000878075b8                do_ext2load
 .text.do_ext2ls
                0x00000000878075d0       0x18 cmd/built-in.o
 .text.do_fat_size
                0x00000000878075e8       0x18 cmd/built-in.o
                0x00000000878075e8                do_fat_size
 .text.do_fat_fsload
                0x0000000087807600       0x18 cmd/built-in.o
                0x0000000087807600                do_fat_fsload
 .text.do_fat_ls
                0x0000000087807618       0x18 cmd/built-in.o
 .text.do_fat_fsinfo
                0x0000000087807630       0x90 cmd/built-in.o
 .text.do_fat_fswrite
                0x00000000878076c0      0x14c cmd/built-in.o
 .text.do_fat_rm
                0x000000008780780c       0x18 cmd/built-in.o
 .text.do_fat_mkdir
                0x0000000087807824       0x18 cmd/built-in.o
 .text.fdt_valid
                0x000000008780783c       0xbc cmd/built-in.o
 .text.is_printable_string
                0x00000000878078f8       0x98 cmd/built-in.o
 .text.print_data
                0x0000000087807990      0x174 cmd/built-in.o
 .text.set_working_fdt_addr
                0x0000000087807b04       0x1c cmd/built-in.o
                0x0000000087807b04                set_working_fdt_addr
 .text.do_fdt   0x0000000087807b20     0x10ac cmd/built-in.o
 .text.do_flinfo
                0x0000000087808bcc        0x8 cmd/built-in.o
 .text.do_flerase
                0x0000000087808bd4        0x8 cmd/built-in.o
 .text.do_protect
                0x0000000087808bdc       0x10 cmd/built-in.o
 .text.do_size_wrapper
                0x0000000087808bec       0x18 cmd/built-in.o
 .text.do_load_wrapper
                0x0000000087808c04       0x64 cmd/built-in.o
 .text.do_save_wrapper
                0x0000000087808c68       0x18 cmd/built-in.o
 .text.do_ls_wrapper
                0x0000000087808c80       0x18 cmd/built-in.o
 .text.do_fstype_wrapper
                0x0000000087808c98        0x4 cmd/built-in.o
 .text.strtou32
                0x0000000087808c9c       0x44 cmd/built-in.o
 .text.do_fuse  0x0000000087808ce0      0x360 cmd/built-in.o
 .text.gpio_get_description
                0x0000000087809040       0xd4 cmd/built-in.o
 .text.do_gpio  0x0000000087809114      0x380 cmd/built-in.o
 .text.do_i2c   0x0000000087809494       0x64 cmd/built-in.o
 .text.i2c_get_cur_bus
                0x00000000878094f8       0x38 cmd/built-in.o
 .text.do_i2c_bus_speed
                0x0000000087809530       0x98 cmd/built-in.o
 .text.do_i2c_reset
                0x00000000878095c8       0x3c cmd/built-in.o
 .text.i2c_get_cur_bus_chip
                0x0000000087809604       0x38 cmd/built-in.o
 .text.do_i2c_probe
                0x000000008780963c       0xc0 cmd/built-in.o
 .text.do_i2c_bus_num
                0x00000000878096fc       0xa4 cmd/built-in.o
 .text.show_bus
                0x00000000878097a0       0x98 cmd/built-in.o
 .text.do_i2c_show_bus
                0x0000000087809838       0xb8 cmd/built-in.o
 .text.get_alen.constprop.4
                0x00000000878098f0       0x3c cmd/built-in.o
 .text.do_i2c_read
                0x000000008780992c       0xf4 cmd/built-in.o
 .text.do_i2c_flags
                0x0000000087809a20       0xbc cmd/built-in.o
 .text.do_i2c_olen
                0x0000000087809adc       0xb8 cmd/built-in.o
 .text.do_i2c_md
                0x0000000087809b94      0x210 cmd/built-in.o
 .text.do_i2c_mw
                0x0000000087809da4      0x138 cmd/built-in.o
 .text.do_i2c_crc
                0x0000000087809edc      0x16c cmd/built-in.o
 .text.do_i2c_write
                0x000000008780a048      0x1a8 cmd/built-in.o
 .text.mod_i2c_mem.isra.2
                0x000000008780a1f0      0x228 cmd/built-in.o
 .text.do_i2c_nm
                0x000000008780a418        0x8 cmd/built-in.o
 .text.do_i2c_mm
                0x000000008780a420        0x8 cmd/built-in.o
 .text.do_i2c_loop
                0x000000008780a428      0x13c cmd/built-in.o
 .text.evalexp  0x000000008780a564       0x74 cmd/built-in.o
 .text.evalstr  0x000000008780a5d8       0x6c cmd/built-in.o
 .text.binary_test
                0x000000008780a644      0x1b4 cmd/built-in.o
 .text.do_itest
                0x000000008780a7f8       0x88 cmd/built-in.o
 .text.bin_data_init
                0x000000008780a880       0x2c cmd/built-in.o
 .text.k_data_save
                0x000000008780a8ac       0x4c cmd/built-in.o
 .text.k_data_restore
                0x000000008780a8f8       0x4c cmd/built-in.o
 .text.getcxmodem
                0x000000008780a944       0x20 cmd/built-in.o
 .text.load_serial_ymodem
                0x000000008780a964       0xd0 cmd/built-in.o
 .text.bin_data_char
                0x000000008780aa34       0x2c cmd/built-in.o
 .text.chk1.constprop.1
                0x000000008780aa60       0x2c cmd/built-in.o
 .text.s1_sendpacket.constprop.2
                0x000000008780aa8c       0x50 cmd/built-in.o
 .text.load_serial
                0x000000008780aadc      0x1e0 cmd/built-in.o
 .text.do_load_serial
                0x000000008780acbc       0xdc cmd/built-in.o
 .text.do_load_serial_bin
                0x000000008780ad98      0x7a8 cmd/built-in.o
 .text.do_mem_mw
                0x000000008780b540       0xc0 cmd/built-in.o
 .text.do_mem_loop
                0x000000008780b600       0xec cmd/built-in.o
 .text.do_mem_md
                0x000000008780b6ec       0xec cmd/built-in.o
 .text.do_mem_cmp
                0x000000008780b7d8      0x164 cmd/built-in.o
 .text.do_mem_base
                0x000000008780b93c       0x40 cmd/built-in.o
 .text.do_mem_cp
                0x000000008780b97c       0xac cmd/built-in.o
 .text.do_mem_crc
                0x000000008780ba28       0x48 cmd/built-in.o
 .text.do_mem_mtest
                0x000000008780ba70      0x230 cmd/built-in.o
 .text.mod_mem.isra.2
                0x000000008780bca0      0x164 cmd/built-in.o
 .text.do_mem_mm
                0x000000008780be04        0x8 cmd/built-in.o
 .text.do_mem_nm
                0x000000008780be0c        0x8 cmd/built-in.o
 .text.extract_range
                0x000000008780be14       0xe4 cmd/built-in.o
 .text.do_mii   0x000000008780bef8      0x8f8 cmd/built-in.o
 .text.do_mdio  0x000000008780c7f0      0x4dc cmd/built-in.o
 .text.do_sleep
                0x000000008780cccc       0xcc cmd/built-in.o
 .text.do_mmcops
                0x000000008780cd98       0xc4 cmd/built-in.o
 .text.init_mmc_device
                0x000000008780ce5c       0x78 cmd/built-in.o
 .text.do_mmc_rst_func
                0x000000008780ced4       0xa0 cmd/built-in.o
 .text.do_mmc_rescan
                0x000000008780cf74       0x24 cmd/built-in.o
 .text.do_mmc_partconf
                0x000000008780cf98      0x100 cmd/built-in.o
 .text.do_mmc_boot_resize
                0x000000008780d098       0xcc cmd/built-in.o
 .text.do_mmc_bootbus
                0x000000008780d164       0xb4 cmd/built-in.o
 .text.do_mmc_hwpartition
                0x000000008780d218      0x518 cmd/built-in.o
 .text.do_mmc_list
                0x000000008780d730       0x14 cmd/built-in.o
 .text.do_mmc_dev
                0x000000008780d744      0x140 cmd/built-in.o
 .text.do_mmc_part
                0x000000008780d884       0x60 cmd/built-in.o
 .text.do_mmc_erase
                0x000000008780d8e4       0xe8 cmd/built-in.o
 .text.do_mmc_write
                0x000000008780d9cc      0x100 cmd/built-in.o
 .text.do_mmc_read
                0x000000008780dacc       0xe0 cmd/built-in.o
 .text.do_mmcinfo
                0x000000008780dbac      0x3a8 cmd/built-in.o
 .text.do_mmc_setdsr
                0x000000008780df54       0xb0 cmd/built-in.o
 .text.complete_mtd
                0x000000008780e004       0x2c cmd/built-in.o
 .text.mtd_dump_buf
                0x000000008780e030       0x98 cmd/built-in.o
 .text.mtd_show_parts
                0x000000008780e0c8       0x88 cmd/built-in.o
 .text.get_mtd_by_name
                0x000000008780e150       0x40 cmd/built-in.o
 .text.do_mtd_bad
                0x000000008780e190       0xc4 cmd/built-in.o
 .text.do_mtd_list
                0x000000008780e254      0x228 cmd/built-in.o
 .text.mtd_name_complete
                0x000000008780e47c       0xf4 cmd/built-in.o
 .text.do_mtd   0x000000008780e570       0x90 cmd/built-in.o
 .text.mtd_is_aligned_with_block_size.isra.6
                0x000000008780e600       0x44 cmd/built-in.o
 .text.do_mtd_erase
                0x000000008780e644      0x244 cmd/built-in.o
 .text.mtd_is_aligned_with_min_io_size.isra.7
                0x000000008780e888       0x44 cmd/built-in.o
 .text.mtd_len_to_pages.isra.8
                0x000000008780e8cc       0x40 cmd/built-in.o
 .text.do_mtd_io
                0x000000008780e90c      0x6c0 cmd/built-in.o
 .text.part_delall
                0x000000008780efcc       0x44 cmd/built-in.o
 .text.memsize_parse
                0x000000008780f010       0x80 cmd/built-in.o
 .text.mtd_part_info
                0x000000008780f090       0xa8 cmd/built-in.o
 .text.env_get_mtdparts
                0x000000008780f138       0x40 cmd/built-in.o
 .text.memsize_format
                0x000000008780f178       0x90 cmd/built-in.o
 .text.index_partitions
                0x000000008780f208       0xb0 cmd/built-in.o
 .text.current_save
                0x000000008780f2b8       0xcc cmd/built-in.o
 .text.part_sort_add
                0x000000008780f384      0x11c cmd/built-in.o
 .text.device_del
                0x000000008780f4a0       0x7c cmd/built-in.o
 .text.generate_mtdparts_save.constprop.8
                0x000000008780f51c      0x2d8 cmd/built-in.o
 .text.device_delall.constprop.10
                0x000000008780f7f4       0x64 cmd/built-in.o
 .text.mtd_devices_init
                0x000000008780f858       0x2c cmd/built-in.o
 .text.get_mtd_info.constprop.11
                0x000000008780f884       0x90 cmd/built-in.o
 .text.part_validate
                0x000000008780f914      0x3b8 cmd/built-in.o
 .text.device_find
                0x000000008780fccc       0x4c cmd/built-in.o
                0x000000008780fccc                device_find
 .text.device_parse
                0x000000008780fd18      0x50c cmd/built-in.o
 .text.mtd_id_parse
                0x0000000087810224      0x14c cmd/built-in.o
                0x0000000087810224                mtd_id_parse
 .text.find_dev_and_part
                0x0000000087810370      0x1c4 cmd/built-in.o
                0x0000000087810370                find_dev_and_part
 .text.mtdparts_init
                0x0000000087810534      0x67c cmd/built-in.o
                0x0000000087810534                mtdparts_init
 .text.do_chpart
                0x0000000087810bb0       0xe0 cmd/built-in.o
 .text.do_mtdparts
                0x0000000087810c90      0x5ec cmd/built-in.o
 .text.set_dev  0x000000008781127c       0x60 cmd/built-in.o
 .text.nand_print_and_set_info
                0x00000000878112dc       0xe8 cmd/built-in.o
 .text.do_nand  0x00000000878113c4      0xc3c cmd/built-in.o
 .text.nand_load_image
                0x0000000087812000      0x1b8 cmd/built-in.o
 .text.do_nandboot
                0x00000000878121b8      0x230 cmd/built-in.o
 .text.netboot_common
                0x00000000878123e8      0x2c0 cmd/built-in.o
 .text.do_bootp
                0x00000000878126a8        0xc cmd/built-in.o
 .text.do_dhcp  0x00000000878126b4        0xc cmd/built-in.o
 .text.do_nfs   0x00000000878126c0        0xc cmd/built-in.o
 .text.do_tftpb
                0x00000000878126cc       0x40 cmd/built-in.o
                0x00000000878126cc                do_tftpb
 .text.do_ping  0x000000008781270c       0x78 cmd/built-in.o
 .text.efi_dump_single_var
                0x0000000087812784      0x144 cmd/built-in.o
 .text.do_env_print_efi
                0x00000000878128c8      0x188 cmd/built-in.o
                0x00000000878128c8                do_env_print_efi
 .text.do_env_set_efi
                0x0000000087812a50      0x394 cmd/built-in.o
                0x0000000087812a50                do_env_set_efi
 .text.do_part_list
                0x0000000087812de4      0x17c cmd/built-in.o
 .text.do_part_info
                0x0000000087812f60      0x110 cmd/built-in.o
 .text.do_part  0x0000000087813070      0x10c cmd/built-in.o
 .text.do_pinmux
                0x000000008781317c       0x60 cmd/built-in.o
 .text.do_list  0x00000000878131dc       0xb4 cmd/built-in.o
 .text.show_pinmux
                0x0000000087813290       0xd0 cmd/built-in.o
 .text.do_status
                0x0000000087813360       0xf8 cmd/built-in.o
 .text.do_dev   0x0000000087813458       0x88 cmd/built-in.o
 .text.do_raw_read
                0x00000000878134e0      0x164 cmd/built-in.o
                0x00000000878134e0                do_raw_read
 .text.bytes_per_second
                0x0000000087813644       0x50 cmd/built-in.o
 .text.do_spi_flash
                0x0000000087813694      0x8b4 cmd/built-in.o
 .text.get_arg  0x0000000087813f48       0x58 cmd/built-in.o
 .text.substitute
                0x0000000087813fa0       0xf0 cmd/built-in.o
 .text.regex_sub
                0x0000000087814090      0x470 cmd/built-in.o
 .text.do_setexpr
                0x0000000087814500      0x1a0 cmd/built-in.o
 .text.do_false
                0x00000000878146a0        0x8 cmd/built-in.o
 .text.do_true  0x00000000878146a8        0x8 cmd/built-in.o
 .text.do_test  0x00000000878146b0      0x33c cmd/built-in.o
 .text.ubi_find_volume
                0x00000000878149ec       0x70 cmd/built-in.o
 .text.ubi_volume_continue_write
                0x0000000087814a5c       0xa0 cmd/built-in.o
 .text.ubi_detach
                0x0000000087814afc       0x3c cmd/built-in.o
 .text.ubi_volume_begin_write
                0x0000000087814b38       0xa4 cmd/built-in.o
                0x0000000087814b38                ubi_volume_begin_write
 .text.ubi_volume_write
                0x0000000087814bdc        0x8 cmd/built-in.o
                0x0000000087814bdc                ubi_volume_write
 .text.ubi_volume_read
                0x0000000087814be4      0x214 cmd/built-in.o
                0x0000000087814be4                ubi_volume_read
 .text.ubi_part
                0x0000000087814df8       0xf0 cmd/built-in.o
                0x0000000087814df8                ubi_part
 .text.do_ubi   0x0000000087814ee8      0x8ac cmd/built-in.o
 .text.do_ubifs_ls
                0x0000000087815794       0x64 cmd/built-in.o
 .text.do_ubifs_load
                0x00000000878157f8       0xc8 cmd/built-in.o
 .text.cmd_ubifs_mount
                0x00000000878158c0       0x4c cmd/built-in.o
                0x00000000878158c0                cmd_ubifs_mount
 .text.do_ubifs_mount
                0x000000008781590c       0x18 cmd/built-in.o
 .text.ubifs_is_mounted
                0x0000000087815924       0x10 cmd/built-in.o
                0x0000000087815924                ubifs_is_mounted
 .text.cmd_ubifs_umount
                0x0000000087815934       0x48 cmd/built-in.o
                0x0000000087815934                cmd_ubifs_umount
 .text.do_ubifs_umount
                0x000000008781597c       0x14 cmd/built-in.o
 .text.usb_get_class_desc
                0x0000000087815990       0xbc cmd/built-in.o
 .text.usb_display_class_sub
                0x0000000087815a4c      0x170 cmd/built-in.o
 .text.usb_display_desc
                0x0000000087815bbc      0x150 cmd/built-in.o
 .text.usb_show_tree_graph
                0x0000000087815d0c      0x22c cmd/built-in.o
 .text.usb_show_subtree
                0x0000000087815f38       0x30 cmd/built-in.o
 .text.usb_for_each_root_dev
                0x0000000087815f68       0x68 cmd/built-in.o
 .text.usb_display_string
                0x0000000087815fd0       0x44 cmd/built-in.o
 .text.usb_display_config
                0x0000000087816014      0x20c cmd/built-in.o
 .text.usb_show_info
                0x0000000087816220       0x74 cmd/built-in.o
 .text.usb_find_device
                0x0000000087816294       0xb4 cmd/built-in.o
 .text.do_usbboot
                0x0000000087816348        0xc cmd/built-in.o
 .text.do_usb_start
                0x0000000087816354       0x30 cmd/built-in.o
 .text.usb_show_tree
                0x0000000087816384        0xc cmd/built-in.o
                0x0000000087816384                usb_show_tree
 .text.do_usb   0x0000000087816390      0x3fc cmd/built-in.o
 .text.common_diskboot
                0x000000008781678c      0x234 cmd/built-in.o
                0x000000008781678c                common_diskboot
 .text.do_fastboot
                0x00000000878169c0      0x1e0 cmd/built-in.o
 .text.do_imgextract
                0x0000000087816ba0      0x298 cmd/built-in.o
 .text.do_env_delete
                0x0000000087816e38       0x9c cmd/built-in.o
 .text.do_env_exists
                0x0000000087816ed4       0x64 cmd/built-in.o
 .text._do_env_set
                0x0000000087816f38      0x1f8 cmd/built-in.o
 .text.do_env_set
                0x0000000087817130       0x24 cmd/built-in.o
 .text.do_env_save
                0x0000000087817154       0x14 cmd/built-in.o
 .text.do_env   0x0000000087817168       0x64 cmd/built-in.o
 .text.env_print
                0x00000000878171cc       0xc0 cmd/built-in.o
 .text.do_env_print
                0x000000008781728c       0xdc cmd/built-in.o
 .text.do_env_import
                0x0000000087817368      0x2e4 cmd/built-in.o
 .text.do_env_default
                0x000000008781764c       0xb8 cmd/built-in.o
 .text.get_env_id
                0x0000000087817704       0x10 cmd/built-in.o
                0x0000000087817704                get_env_id
 .text.env_set  0x0000000087817714       0x68 cmd/built-in.o
                0x0000000087817714                env_set
 .text.env_set_ulong
                0x000000008781777c       0x20 cmd/built-in.o
                0x000000008781777c                env_set_ulong
 .text.env_set_hex
                0x000000008781779c       0x34 cmd/built-in.o
                0x000000008781779c                env_set_hex
 .text.do_env_export
                0x00000000878177d0      0x22c cmd/built-in.o
 .text.eth_parse_enetaddr
                0x00000000878179fc       0x5c cmd/built-in.o
                0x00000000878179fc                eth_parse_enetaddr
 .text.envmatch
                0x0000000087817a58       0x6c cmd/built-in.o
                0x0000000087817a58                envmatch
 .text.env_get_f
                0x0000000087817ac4       0xd0 cmd/built-in.o
                0x0000000087817ac4                env_get_f
 .text.env_get  0x0000000087817b94       0x78 cmd/built-in.o
                0x0000000087817b94                env_get
 .text.env_get_hex
                0x0000000087817c0c       0x3c cmd/built-in.o
                0x0000000087817c0c                env_get_hex
 .text.eth_env_get_enetaddr
                0x0000000087817c48       0x5c cmd/built-in.o
                0x0000000087817c48                eth_env_get_enetaddr
 .text.eth_env_set_enetaddr
                0x0000000087817ca4       0x4c cmd/built-in.o
                0x0000000087817ca4                eth_env_set_enetaddr
 .text.env_get_ulong
                0x0000000087817cf0       0x30 cmd/built-in.o
                0x0000000087817cf0                env_get_ulong
 .text.do_env_edit.part.3
                0x0000000087817d20       0xa4 cmd/built-in.o
 .text.do_env_edit
                0x0000000087817dc4       0x2c cmd/built-in.o
 .text.board_init_f_alloc_reserve
                0x0000000087817df0        0xc common/built-in.o
                0x0000000087817df0                board_init_f_alloc_reserve
 .text.board_init_f_init_reserve
                0x0000000087817dfc       0x20 common/built-in.o
                0x0000000087817dfc                board_init_f_init_reserve
 .text.show_boot_progress
                0x0000000087817e1c        0x8 common/built-in.o
                0x0000000087817e1c                show_boot_progress
 .text.main_loop
                0x0000000087817e24       0x4c common/built-in.o
                0x0000000087817e24                main_loop
 .text.mdelay   0x0000000087817e70        0xc common/built-in.o
 .text.dummy    0x0000000087817e7c        0x4 common/built-in.o
 .text.get_version
                0x0000000087817e80        0x8 common/built-in.o
                0x0000000087817e80                get_version
 .text.jumptable_init
                0x0000000087817e88      0x1d8 common/built-in.o
                0x0000000087817e88                jumptable_init
 .text.hash_command
                0x0000000087818060       0xb4 common/built-in.o
                0x0000000087818060                hash_command
 .text.b_reset  0x0000000087818114       0x1c common/built-in.o
 .text.static_get
                0x0000000087818130       0x1c common/built-in.o
 .text.static_peek
                0x000000008781814c        0xc common/built-in.o
 .text.file_peek
                0x0000000087818158        0xc common/built-in.o
 .text.mapset   0x0000000087818164       0x20 common/built-in.o
 .text.syntax_err
                0x0000000087818184        0xc common/built-in.o
 .text.free_pipe_list
                0x0000000087818190       0xf0 common/built-in.o
 .text.xmalloc  0x0000000087818280       0x20 common/built-in.o
 .text.new_pipe
                0x00000000878182a0       0x28 common/built-in.o
 .text.xrealloc
                0x00000000878182c8       0x20 common/built-in.o
 .text.done_command
                0x00000000878182e8       0x88 common/built-in.o
 .text.done_pipe
                0x0000000087818370       0x4c common/built-in.o
 .text.done_word
                0x00000000878183bc      0x2e4 common/built-in.o
 .text.do_showvar
                0x00000000878186a0       0xfc common/built-in.o
 .text.is_assignment
                0x000000008781879c       0x5c common/built-in.o
 .text.file_get
                0x00000000878187f8      0x1f0 common/built-in.o
 .text.b_addchr
                0x00000000878189e8       0x78 common/built-in.o
 .text.b_addqchr
                0x0000000087818a60       0x50 common/built-in.o
 .text.get_local_var
                0x0000000087818ab0       0xa0 common/built-in.o
                0x0000000087818ab0                get_local_var
 .text.set_local_var
                0x0000000087818b50      0x1bc common/built-in.o
                0x0000000087818b50                set_local_var
 .text.insert_var_value_sub
                0x0000000087818d0c      0x2c0 common/built-in.o
 .text.parse_string_outer
                0x0000000087818fcc       0xe4 common/built-in.o
                0x0000000087818fcc                parse_string_outer
 .text.run_list_real
                0x00000000878190b0      0x7e8 common/built-in.o
 .text.parse_stream_outer
                0x0000000087819898      0x6cc common/built-in.o
 .text.parse_file_outer
                0x0000000087819f64       0x44 common/built-in.o
                0x0000000087819f64                parse_file_outer
 .text.u_boot_hush_start
                0x0000000087819fa8       0x54 common/built-in.o
                0x0000000087819fa8                u_boot_hush_start
 .text.bootdelay_process
                0x0000000087819ffc      0x188 common/built-in.o
                0x0000000087819ffc                bootdelay_process
 .text.autoboot_command
                0x000000008781a184       0xf8 common/built-in.o
                0x000000008781a184                autoboot_command
 .text.log_init
                0x000000008781a27c       0x10 common/built-in.o
 .text.display_text_info
                0x000000008781a28c        0x8 common/built-in.o
 .text.setup_mon_len
                0x000000008781a294       0x20 common/built-in.o
 .text.setup_spl_handoff
                0x000000008781a2b4        0x8 common/built-in.o
 .text.mach_cpu_init
                0x000000008781a2bc        0x8 common/built-in.o
                0x000000008781a2bc                mach_cpu_init
 .text.reserve_round_4k
                0x000000008781a2c4       0x18 common/built-in.o
 .text.reserve_mmu
                0x000000008781a2dc       0x38 common/built-in.o
                0x000000008781a2dc                reserve_mmu
 .text.reserve_video
                0x000000008781a314        0x8 common/built-in.o
 .text.reserve_trace
                0x000000008781a31c        0x8 common/built-in.o
 .text.reserve_uboot
                0x000000008781a324       0x40 common/built-in.o
 .text.reserve_malloc
                0x000000008781a364       0x18 common/built-in.o
 .text.setup_machine
                0x000000008781a37c        0x8 common/built-in.o
 .text.reserve_global_data
                0x000000008781a384       0x1c common/built-in.o
 .text.reserve_fdt
                0x000000008781a3a0       0x4c common/built-in.o
 .text.reserve_bootstage
                0x000000008781a3ec        0x8 common/built-in.o
 .text.reserve_bloblist
                0x000000008781a3f4        0x8 common/built-in.o
 .text.display_new_sp
                0x000000008781a3fc        0x8 common/built-in.o
 .text.reloc_bootstage
                0x000000008781a404        0x8 common/built-in.o
 .text.reloc_bloblist
                0x000000008781a40c        0x8 common/built-in.o
 .text.initf_console_record
                0x000000008781a414        0x8 common/built-in.o
 .text.reserve_arch
                0x000000008781a41c        0x8 common/built-in.o
                0x000000008781a41c                reserve_arch
 .text.arch_cpu_init_dm
                0x000000008781a424        0x8 common/built-in.o
                0x000000008781a424                arch_cpu_init_dm
 .text.dram_init_banksize
                0x000000008781a42c       0x24 common/built-in.o
                0x000000008781a42c                dram_init_banksize
 .text.setup_reloc
                0x000000008781a450       0x40 common/built-in.o
 .text.reloc_fdt
                0x000000008781a490       0x44 common/built-in.o
 .text.reserve_board
                0x000000008781a4d4       0x40 common/built-in.o
 .text.announce_dram_init
                0x000000008781a514       0x18 common/built-in.o
 .text.init_baud_rate
                0x000000008781a52c       0x2c common/built-in.o
 .text.initf_dm
                0x000000008781a558        0x8 common/built-in.o
 .text.initf_bootstage
                0x000000008781a560       0x14 common/built-in.o
 .text.coloured_LED_init
                0x000000008781a574        0x4 common/built-in.o
                0x000000008781a574                coloured_LED_init
 .text.red_led_on
                0x000000008781a578        0x4 common/built-in.o
                0x000000008781a578                red_led_on
 .text.board_add_ram_info
                0x000000008781a57c        0x4 common/built-in.o
                0x000000008781a57c                board_add_ram_info
 .text.show_dram_config
                0x000000008781a580       0x38 common/built-in.o
 .text.board_get_usable_ram_top
                0x000000008781a5b8       0x14 common/built-in.o
                0x000000008781a5b8                board_get_usable_ram_top
 .text.setup_dest_addr
                0x000000008781a5cc       0x40 common/built-in.o
 .text.reserve_stacks
                0x000000008781a60c       0x1c common/built-in.o
 .text.board_init_f
                0x000000008781a628       0x68 common/built-in.o
                0x000000008781a628                board_init_f
 .text.bootstage_relocate
                0x000000008781a690        0x8 common/built-in.o
 .text.initr_trace
                0x000000008781a698        0x8 common/built-in.o
 .text.initr_reloc
                0x000000008781a6a0       0x18 common/built-in.o
 .text.initr_barrier
                0x000000008781a6b8        0x8 common/built-in.o
 .text.initr_console_record
                0x000000008781a6c0        0x8 common/built-in.o
 .text.power_init_board
                0x000000008781a6c8        0x8 common/built-in.o
                0x000000008781a6c8                power_init_board
 .text.initr_announce
                0x000000008781a6d0        0x8 common/built-in.o
 .text.run_main_loop
                0x000000008781a6d8        0xc common/built-in.o
 .text.initr_check_fastboot
                0x000000008781a6e4       0x10 common/built-in.o
 .text.initr_net
                0x000000008781a6f4       0x1c common/built-in.o
 .text.initr_fastboot_setup
                0x000000008781a710       0x10 common/built-in.o
 .text.initr_ethaddr
                0x000000008781a720       0x20 common/built-in.o
 .text.initr_enable_interrupts
                0x000000008781a740       0x10 common/built-in.o
 .text.initr_jumptable
                0x000000008781a750       0x10 common/built-in.o
 .text.initr_env
                0x000000008781a760       0x64 common/built-in.o
 .text.initr_mmc
                0x000000008781a7c4       0x20 common/built-in.o
 .text.initr_nand
                0x000000008781a7e4       0x30 common/built-in.o
 .text.initr_serial
                0x000000008781a814       0x10 common/built-in.o
 .text.initr_dm
                0x000000008781a824       0x14 common/built-in.o
 .text.initr_bootstage
                0x000000008781a838       0x14 common/built-in.o
 .text.initr_malloc
                0x000000008781a84c       0x24 common/built-in.o
 .text.initr_reloc_global_data
                0x000000008781a870       0x48 common/built-in.o
 .text.initr_caches
                0x000000008781a8b8       0x10 common/built-in.o
 .text.cpu_secondary_init_r
                0x000000008781a8c8        0x4 common/built-in.o
                0x000000008781a8c8                cpu_secondary_init_r
 .text.initr_secondary_cpu
                0x000000008781a8cc       0x10 common/built-in.o
 .text.board_init_r
                0x000000008781a8dc       0x64 common/built-in.o
                0x000000008781a8dc                board_init_r
 .text.show_board_info
                0x000000008781a940       0x38 common/built-in.o
                0x000000008781a940                show_board_info
 .text.bootm_find_images
                0x000000008781a978       0xa8 common/built-in.o
                0x000000008781a978                bootm_find_images
 .text.bootm_decomp_image
                0x000000008781aa20      0x180 common/built-in.o
                0x000000008781aa20                bootm_decomp_image
 .text.bootm_disable_interrupts
                0x000000008781aba0       0x18 common/built-in.o
                0x000000008781aba0                bootm_disable_interrupts
 .text.do_bootm_states
                0x000000008781abb8      0x7e8 common/built-in.o
                0x000000008781abb8                do_bootm_states
 .text.switch_to_non_secure_mode
                0x000000008781b3a0        0x4 common/built-in.o
                0x000000008781b3a0                switch_to_non_secure_mode
 .text.do_bootm_vxworks
                0x000000008781b3a4      0x128 common/built-in.o
                0x000000008781b3a4                do_bootm_vxworks
 .text.copy_args
                0x000000008781b4cc       0x50 common/built-in.o
 .text.do_bootm_rtems
                0x000000008781b51c       0x40 common/built-in.o
 .text.do_bootm_plan9
                0x000000008781b55c       0xa4 common/built-in.o
 .text.do_bootm_standalone
                0x000000008781b600       0x64 common/built-in.o
 .text.do_bootm_qnxelf
                0x000000008781b664       0x78 common/built-in.o
 .text.do_bootm_netbsd
                0x000000008781b6dc       0xf8 common/built-in.o
 .text.board_preboot_os
                0x000000008781b7d4        0x4 common/built-in.o
                0x000000008781b7d4                board_preboot_os
 .text.boot_selected_os
                0x000000008781b7d8       0x5c common/built-in.o
                0x000000008781b7d8                boot_selected_os
 .text.bootm_os_get_boot_func
                0x000000008781b834       0x10 common/built-in.o
                0x000000008781b834                bootm_os_get_boot_func
 .text.of_bus_default_map
                0x000000008781b844       0xdc common/built-in.o
 .text.fdt_support_default_count_cells
                0x000000008781b920       0x58 common/built-in.o
                0x000000008781b920                fdt_support_default_count_cells
 .text.of_bus_default_translate
                0x000000008781b978       0xa4 common/built-in.o
 .text.fdt_find_and_setprop
                0x000000008781ba1c       0x70 common/built-in.o
                0x000000008781ba1c                fdt_find_and_setprop
 .text.fdt_find_or_add_subnode
                0x000000008781ba8c       0x68 common/built-in.o
                0x000000008781ba8c                fdt_find_or_add_subnode
 .text.fdt_root
                0x000000008781baf4       0x90 common/built-in.o
                0x000000008781baf4                fdt_root
 .text.fdt_initrd
                0x000000008781bb84      0x1c8 common/built-in.o
                0x000000008781bb84                fdt_initrd
 .text.fdt_chosen
                0x000000008781bd4c       0xa8 common/built-in.o
                0x000000008781bd4c                fdt_chosen
 .text.do_fixup_by_path
                0x000000008781bdf4       0x54 common/built-in.o
                0x000000008781bdf4                do_fixup_by_path
 .text.fdt_fixup_memory_banks
                0x000000008781be48      0x238 common/built-in.o
                0x000000008781be48                fdt_fixup_memory_banks
 .text.fdt_fixup_memory
                0x000000008781c080       0x20 common/built-in.o
                0x000000008781c080                fdt_fixup_memory
 .text.fdt_fixup_ethernet
                0x000000008781c0a0      0x1a4 common/built-in.o
                0x000000008781c0a0                fdt_fixup_ethernet
 .text.fdt_shrink_to_minimum
                0x000000008781c244       0xd4 common/built-in.o
                0x000000008781c244                fdt_shrink_to_minimum
 .text.fdt_increase_size
                0x000000008781c318       0x14 common/built-in.o
                0x000000008781c318                fdt_increase_size
 .text.fdt_translate_address
                0x000000008781c32c      0x29c common/built-in.o
                0x000000008781c32c                fdt_translate_address
 .text.fdt_overlay_apply_verbose
                0x000000008781c5c8       0x6c common/built-in.o
                0x000000008781c5c8                fdt_overlay_apply_verbose
 .text.miiphy_get_dev_by_name
                0x000000008781c634       0x60 common/built-in.o
                0x000000008781c634                miiphy_get_dev_by_name
 .text.miiphy_init
                0x000000008781c694       0x24 common/built-in.o
                0x000000008781c694                miiphy_init
 .text.mdio_alloc
                0x000000008781c6b8       0x30 common/built-in.o
                0x000000008781c6b8                mdio_alloc
 .text.mdio_free
                0x000000008781c6e8        0x4 common/built-in.o
                0x000000008781c6e8                mdio_free
 .text.mdio_register
                0x000000008781c6ec       0x9c common/built-in.o
                0x000000008781c6ec                mdio_register
 .text.mdio_unregister
                0x000000008781c788       0x3c common/built-in.o
                0x000000008781c788                mdio_unregister
 .text.mdio_list_devices
                0x000000008781c7c4       0x9c common/built-in.o
                0x000000008781c7c4                mdio_list_devices
 .text.miiphy_set_current_dev
                0x000000008781c860       0x40 common/built-in.o
                0x000000008781c860                miiphy_set_current_dev
 .text.miiphy_get_active_dev
                0x000000008781c8a0       0x54 common/built-in.o
 .text.mdio_get_current_dev
                0x000000008781c8f4       0x10 common/built-in.o
                0x000000008781c8f4                mdio_get_current_dev
 .text.mdio_phydev_for_ethname
                0x000000008781c904       0x8c common/built-in.o
                0x000000008781c904                mdio_phydev_for_ethname
 .text.miiphy_get_current_dev
                0x000000008781c990       0x18 common/built-in.o
                0x000000008781c990                miiphy_get_current_dev
 .text.miiphy_read
                0x000000008781c9a8       0x4c common/built-in.o
                0x000000008781c9a8                miiphy_read
 .text.miiphy_write
                0x000000008781c9f4       0x40 common/built-in.o
                0x000000008781c9f4                miiphy_write
 .text.miiphy_listdev
                0x000000008781ca34       0x74 common/built-in.o
                0x000000008781ca34                miiphy_listdev
 .text.miiphy_info
                0x000000008781caa8       0x88 common/built-in.o
                0x000000008781caa8                miiphy_info
 .text.miiphy_speed
                0x000000008781cb30       0xc8 common/built-in.o
                0x000000008781cb30                miiphy_speed
 .text.miiphy_duplex
                0x000000008781cbf8       0xc0 common/built-in.o
                0x000000008781cbf8                miiphy_duplex
 .text.miiphy_is_1000base_x
                0x000000008781ccb8        0x8 common/built-in.o
                0x000000008781ccb8                miiphy_is_1000base_x
 .text.usb_set_maxpacket_ep
                0x000000008781ccc0       0x70 common/built-in.o
 .text.usb_control_msg
                0x000000008781cd30       0x9c common/built-in.o
                0x000000008781cd30                usb_control_msg
 .text.usb_get_descriptor
                0x000000008781cdcc       0x58 common/built-in.o
 .text.get_descriptor_len
                0x000000008781ce24       0x90 common/built-in.o
 .text.usb_setup_descriptor
                0x000000008781ceb4       0xd8 common/built-in.o
 .text.usb_get_string
                0x000000008781cf8c       0x70 common/built-in.o
 .text.usb_string_sub
                0x000000008781cffc      0x108 common/built-in.o
 .text.usb_bulk_msg
                0x000000008781d104       0x7c common/built-in.o
                0x000000008781d104                usb_bulk_msg
 .text.usb_maxpacket
                0x000000008781d180       0x1c common/built-in.o
                0x000000008781d180                usb_maxpacket
 .text.usb_clear_halt
                0x000000008781d19c       0x90 common/built-in.o
                0x000000008781d19c                usb_clear_halt
 .text.usb_get_configuration_len
                0x000000008781d22c       0x74 common/built-in.o
                0x000000008781d22c                usb_get_configuration_len
 .text.usb_get_configuration_no
                0x000000008781d2a0       0x34 common/built-in.o
                0x000000008781d2a0                usb_get_configuration_no
 .text.usb_set_interface
                0x000000008781d2d4       0xb4 common/built-in.o
                0x000000008781d2d4                usb_set_interface
 .text.usb_string
                0x000000008781d388      0x104 common/built-in.o
                0x000000008781d388                usb_string
 .text.usb_select_config
                0x000000008781d48c      0x46c common/built-in.o
                0x000000008781d48c                usb_select_config
 .text.usb_setup_device
                0x000000008781d8f8      0x100 common/built-in.o
                0x000000008781d8f8                usb_setup_device
 .text.board_usb_init
                0x000000008781d9f8        0x8 common/built-in.o
                0x000000008781d9f8                board_usb_init
 .text.board_usb_cleanup
                0x000000008781da00        0x8 common/built-in.o
                0x000000008781da00                board_usb_cleanup
 .text.usb_device_has_child_on_port
                0x000000008781da08        0x8 common/built-in.o
                0x000000008781da08                usb_device_has_child_on_port
 .text.usb_find_usb2_hub_address_port
                0x000000008781da10       0x78 common/built-in.o
                0x000000008781da10                usb_find_usb2_hub_address_port
 .text.usb_set_port_feature
                0x000000008781da88       0x4c common/built-in.o
 .text.usb_clear_port_feature
                0x000000008781dad4       0x4c common/built-in.o
 .text.usb_get_hub_descriptor
                0x000000008781db20       0x5c common/built-in.o
 .text.usb_hub_reset_devices
                0x000000008781db7c        0x4 common/built-in.o
                0x000000008781db7c                usb_hub_reset_devices
 .text.usb_hub_is_root_hub
                0x000000008781db80       0x18 common/built-in.o
                0x000000008781db80                usb_hub_is_root_hub
 .text.usb_get_port_status
                0x000000008781db98       0xac common/built-in.o
                0x000000008781db98                usb_get_port_status
 .text.usb_hub_port_connect_change
                0x000000008781dc44      0x178 common/built-in.o
                0x000000008781dc44                usb_hub_port_connect_change
 .text.usb_hub_configure
                0x000000008781ddbc      0x5c8 common/built-in.o
 .text.usb_hub_scan
                0x000000008781e384       0x10 common/built-in.o
                0x000000008781e384                usb_hub_scan
 .text.usb_hub_post_probe
                0x000000008781e394        0x4 common/built-in.o
 .text.usb_stor_irq
                0x000000008781e398       0x1c common/built-in.o
 .text.usb_stor_BBB_reset
                0x000000008781e3b4       0xd4 common/built-in.o
 .text.usb_stor_CB_reset
                0x000000008781e488       0xd4 common/built-in.o
 .text.usb_stor_BBB_clear_endpt_stall.isra.0
                0x000000008781e55c       0x40 common/built-in.o
 .text.usb_stor_BBB_transport
                0x000000008781e59c      0x268 common/built-in.o
 .text.usb_stor_CB_comdat
                0x000000008781e804      0x20c common/built-in.o
 .text.usb_stor_CBI_get_status.isra.2
                0x000000008781ea10       0xc8 common/built-in.o
 .text.usb_stor_CB_transport
                0x000000008781ead8      0x22c common/built-in.o
 .text.usb_request_sense.constprop.11
                0x000000008781ed04       0x70 common/built-in.o
 .text.usb_stor_read
                0x000000008781ed74      0x16c common/built-in.o
 .text.usb_stor_write
                0x000000008781eee0      0x16c common/built-in.o
 .text.usb_stor_info
                0x000000008781f04c       0x70 common/built-in.o
                0x000000008781f04c                usb_stor_info
 .text.usb_stor_reset
                0x000000008781f0bc       0x14 common/built-in.o
                0x000000008781f0bc                usb_stor_reset
 .text.usb_stor_scan
                0x000000008781f0d0       0x48 common/built-in.o
                0x000000008781f0d0                usb_stor_scan
 .text.usb_storage_probe
                0x000000008781f118      0x23c common/built-in.o
                0x000000008781f118                usb_storage_probe
 .text.usb_stor_get_info
                0x000000008781f354      0x308 common/built-in.o
                0x000000008781f354                usb_stor_get_info
 .text.usb_mass_storage_probe
                0x000000008781f65c      0x16c common/built-in.o
 .text.iomux_doenv
                0x000000008781f7c8      0x1c8 common/built-in.o
                0x000000008781f7c8                iomux_doenv
 .text.splash_screen_prepare
                0x000000008781f990        0x8 common/built-in.o
                0x000000008781f990                splash_screen_prepare
 .text.splash_get_pos
                0x000000008781f998       0x84 common/built-in.o
                0x000000008781f998                splash_get_pos
 .text.delete_char.part.0
                0x000000008781fa1c       0xd0 common/built-in.o
 .text.cread_add_char
                0x000000008781faec       0xe8 common/built-in.o
 .text.cli_readline_into_buffer
                0x000000008781fbd4      0xa78 common/built-in.o
                0x000000008781fbd4                cli_readline_into_buffer
 .text.cli_readline
                0x000000008782064c       0x14 common/built-in.o
                0x000000008782064c                cli_readline
 .text.console_tstc
                0x0000000087820660       0x8c common/built-in.o
 .text.console_putc
                0x00000000878206ec       0x54 common/built-in.o
 .text.console_puts
                0x0000000087820740       0x54 common/built-in.o
 .text.on_console
                0x0000000087820794       0xc4 common/built-in.o
 .text.serial_printf
                0x0000000087820858       0x44 common/built-in.o
                0x0000000087820858                serial_printf
 .text.console_getc.isra.0
                0x000000008782089c       0x28 common/built-in.o
 .text.tstc     0x00000000878208c4       0x24 common/built-in.o
                0x00000000878208c4                tstc
 .text.putc     0x00000000878208e8       0x30 common/built-in.o
                0x00000000878208e8                putc
 .text.puts     0x0000000087820918       0x30 common/built-in.o
                0x0000000087820918                puts
 .text.getc     0x0000000087820948       0x44 common/built-in.o
                0x0000000087820948                getc
 .text.fputs    0x000000008782098c        0xc common/built-in.o
                0x000000008782098c                fputs
 .text.ctrlc    0x0000000087820998       0x58 common/built-in.o
                0x0000000087820998                ctrlc
 .text.confirm_yesno
                0x00000000878209f0       0xd4 common/built-in.o
                0x00000000878209f0                confirm_yesno
 .text.disable_ctrlc
                0x0000000087820ac4       0x18 common/built-in.o
                0x0000000087820ac4                disable_ctrlc
 .text.had_ctrlc
                0x0000000087820adc       0x10 common/built-in.o
                0x0000000087820adc                had_ctrlc
 .text.clear_ctrlc
                0x0000000087820aec       0x14 common/built-in.o
                0x0000000087820aec                clear_ctrlc
 .text.search_device
                0x0000000087820b00       0x28 common/built-in.o
                0x0000000087820b00                search_device
 .text.console_assign
                0x0000000087820b28       0xd8 common/built-in.o
                0x0000000087820b28                console_assign
 .text.console_init_f
                0x0000000087820c00       0x10 common/built-in.o
                0x0000000087820c00                console_init_f
 .text.stdio_print_current_devices
                0x0000000087820c10       0xb0 common/built-in.o
                0x0000000087820c10                stdio_print_current_devices
 .text.console_init_r
                0x0000000087820cc0      0x1b4 common/built-in.o
                0x0000000087820cc0                console_init_r
 .text.sbrk     0x0000000087820e74       0x6c common/built-in.o
                0x0000000087820e74                sbrk
 .text.mem_malloc_init
                0x0000000087820ee0       0x34 common/built-in.o
                0x0000000087820ee0                mem_malloc_init
 .text.malloc_trim
                0x0000000087820f14       0xcc common/built-in.o
                0x0000000087820f14                malloc_trim
 .text.free     0x0000000087820fe0      0x248 common/built-in.o
                0x0000000087820fe0                free
 .text.malloc   0x0000000087821228      0x61c common/built-in.o
                0x0000000087821228                malloc
 .text.calloc   0x0000000087821844      0x148 common/built-in.o
                0x0000000087821844                calloc
 .text.realloc  0x000000008782198c      0x428 common/built-in.o
                0x000000008782198c                realloc
 .text.memalign
                0x0000000087821db4      0x198 common/built-in.o
                0x0000000087821db4                memalign
 .text.initf_malloc
                0x0000000087821f4c       0x18 common/built-in.o
                0x0000000087821f4c                initf_malloc
 .text.alloc_simple
                0x0000000087821f64       0x4c common/built-in.o
 .text.malloc_simple
                0x0000000087821fb0        0x8 common/built-in.o
                0x0000000087821fb0                malloc_simple
 .text.on_loadaddr
                0x0000000087821fb8       0x38 common/built-in.o
 .text.image_check_hcrc
                0x0000000087821ff0       0x4c common/built-in.o
                0x0000000087821ff0                image_check_hcrc
 .text.image_check_dcrc
                0x000000008782203c       0x38 common/built-in.o
                0x000000008782203c                image_check_dcrc
 .text.image_multi_count
                0x0000000087822074       0x1c common/built-in.o
                0x0000000087822074                image_multi_count
 .text.image_multi_getimg
                0x0000000087822090       0x80 common/built-in.o
                0x0000000087822090                image_multi_getimg
 .text.env_get_bootm_low
                0x0000000087822110       0x30 common/built-in.o
                0x0000000087822110                env_get_bootm_low
 .text.env_get_bootm_size
                0x0000000087822140       0x68 common/built-in.o
                0x0000000087822140                env_get_bootm_size
 .text.env_get_bootm_mapsize
                0x00000000878221a8       0x30 common/built-in.o
                0x00000000878221a8                env_get_bootm_mapsize
 .text.memmove_wd
                0x00000000878221d8        0xc common/built-in.o
                0x00000000878221d8                memmove_wd
 .text.genimg_print_size
                0x00000000878221e4       0x30 common/built-in.o
                0x00000000878221e4                genimg_print_size
 .text.get_table_entry
                0x0000000087822214       0x24 common/built-in.o
                0x0000000087822214                get_table_entry
 .text.get_table_entry_name
                0x0000000087822238       0x20 common/built-in.o
                0x0000000087822238                get_table_entry_name
 .text.genimg_get_os_name
                0x0000000087822258       0x18 common/built-in.o
                0x0000000087822258                genimg_get_os_name
 .text.genimg_get_arch_name
                0x0000000087822270       0x18 common/built-in.o
                0x0000000087822270                genimg_get_arch_name
 .text.genimg_get_type_name
                0x0000000087822288       0x18 common/built-in.o
                0x0000000087822288                genimg_get_type_name
 .text.genimg_get_comp_name
                0x00000000878222a0       0x18 common/built-in.o
                0x00000000878222a0                genimg_get_comp_name
 .text.image_print_contents
                0x00000000878222b8      0x1a4 common/built-in.o
                0x00000000878222b8                image_print_contents
 .text.genimg_get_kernel_addr_fit
                0x000000008782245c       0x24 common/built-in.o
                0x000000008782245c                genimg_get_kernel_addr_fit
 .text.genimg_get_format
                0x0000000087822480       0x50 common/built-in.o
                0x0000000087822480                genimg_get_format
 .text.genimg_has_config
                0x00000000878224d0        0x8 common/built-in.o
                0x00000000878224d0                genimg_has_config
 .text.boot_get_ramdisk
                0x00000000878224d8      0x2c8 common/built-in.o
                0x00000000878224d8                boot_get_ramdisk
 .text.boot_ramdisk_high
                0x00000000878227a0      0x138 common/built-in.o
                0x00000000878227a0                boot_ramdisk_high
 .text.boot_get_setup
                0x00000000878228d8        0x8 common/built-in.o
                0x00000000878228d8                boot_get_setup
 .text.image_setup_linux
                0x00000000878228e0       0x68 common/built-in.o
                0x00000000878228e0                image_setup_linux
 .text.android_image_get_kernel
                0x0000000087822948      0x614 common/built-in.o
                0x0000000087822948                android_image_get_kernel
 .text.android_image_check_header
                0x0000000087822f5c       0x14 common/built-in.o
                0x0000000087822f5c                android_image_check_header
 .text.android_image_get_end
                0x0000000087822f70       0xb0 common/built-in.o
                0x0000000087822f70                android_image_get_end
 .text.android_image_get_kload
                0x0000000087823020       0x50 common/built-in.o
                0x0000000087823020                android_image_get_kload
 .text.android_image_get_ramdisk
                0x0000000087823070      0x114 common/built-in.o
                0x0000000087823070                android_image_get_ramdisk
 .text.android_image_get_second
                0x0000000087823184      0x13c common/built-in.o
                0x0000000087823184                android_image_get_second
 .text.android_print_contents
                0x00000000878232c0      0x218 common/built-in.o
                0x00000000878232c0                android_print_contents
 .text.fdt_error
                0x00000000878234d8       0x2c common/built-in.o
 .text.boot_fdt_add_mem_rsv_regions
                0x0000000087823504      0x16c common/built-in.o
                0x0000000087823504                boot_fdt_add_mem_rsv_regions
 .text.boot_relocate_fdt
                0x0000000087823670      0x198 common/built-in.o
                0x0000000087823670                boot_relocate_fdt
 .text.boot_get_fdt
                0x0000000087823808      0x31c common/built-in.o
                0x0000000087823808                boot_get_fdt
 .text.ft_verify_fdt
                0x0000000087823b24        0x8 common/built-in.o
                0x0000000087823b24                ft_verify_fdt
 .text.image_setup_libfdt
                0x0000000087823b2c      0x140 common/built-in.o
                0x0000000087823b2c                image_setup_libfdt
 .text.get_effective_memsize
                0x0000000087823c6c        0x8 common/built-in.o
                0x0000000087823c6c                get_effective_memsize
 .text.nulldev_putc
                0x0000000087823c74        0x4 common/built-in.o
 .text.nulldev_puts
                0x0000000087823c78        0x4 common/built-in.o
 .text.nulldev_input
                0x0000000087823c7c        0x8 common/built-in.o
 .text.stdio_serial_tstc
                0x0000000087823c84        0x4 common/built-in.o
 .text.stdio_serial_getc
                0x0000000087823c88        0x4 common/built-in.o
 .text.stdio_serial_puts
                0x0000000087823c8c        0x8 common/built-in.o
 .text.stdio_serial_putc
                0x0000000087823c94        0x8 common/built-in.o
 .text.stdio_get_list
                0x0000000087823c9c        0xc common/built-in.o
                0x0000000087823c9c                stdio_get_list
 .text.stdio_get_by_name
                0x0000000087823ca8       0x5c common/built-in.o
                0x0000000087823ca8                stdio_get_by_name
 .text.stdio_clone
                0x0000000087823d04       0x38 common/built-in.o
                0x0000000087823d04                stdio_clone
 .text.stdio_register_dev
                0x0000000087823d3c       0x50 common/built-in.o
                0x0000000087823d3c                stdio_register_dev
 .text.stdio_register
                0x0000000087823d8c        0x8 common/built-in.o
                0x0000000087823d8c                stdio_register
 .text.stdio_init_tables
                0x0000000087823d94       0x1c common/built-in.o
                0x0000000087823d94                stdio_init_tables
 .text.stdio_add_devices
                0x0000000087823db0       0xd0 common/built-in.o
                0x0000000087823db0                stdio_add_devices
 .text.run_command
                0x0000000087823e80       0x10 common/built-in.o
                0x0000000087823e80                run_command
 .text.run_command_list
                0x0000000087823e90       0x7c common/built-in.o
                0x0000000087823e90                run_command_list
 .text.do_run   0x0000000087823f0c       0x78 common/built-in.o
                0x0000000087823f0c                do_run
 .text.cli_process_fdt
                0x0000000087823f84       0x40 common/built-in.o
                0x0000000087823f84                cli_process_fdt
 .text.cli_secure_boot_cmd
                0x0000000087823fc4       0x78 common/built-in.o
                0x0000000087823fc4                cli_secure_boot_cmd
 .text.cli_loop
                0x000000008782403c        0xc common/built-in.o
                0x000000008782403c                cli_loop
 .text.cli_init
                0x0000000087824048        0x4 common/built-in.o
                0x0000000087824048                cli_init
 .text.find_cmd_tbl
                0x000000008782404c       0xa4 common/built-in.o
                0x000000008782404c                find_cmd_tbl
 .text.find_cmd
                0x00000000878240f0       0x28 common/built-in.o
                0x00000000878240f0                find_cmd
 .text.cmd_usage
                0x0000000087824118       0x5c common/built-in.o
                0x0000000087824118                cmd_usage
 .text._do_help
                0x0000000087824174      0x180 common/built-in.o
                0x0000000087824174                _do_help
 .text.var_complete
                0x00000000878242f4       0x98 common/built-in.o
                0x00000000878242f4                var_complete
 .text.complete_subcmdv
                0x000000008782438c      0x19c common/built-in.o
                0x000000008782438c                complete_subcmdv
 .text.cmd_auto_complete
                0x0000000087824528      0x3f8 common/built-in.o
                0x0000000087824528                cmd_auto_complete
 .text.cmd_get_data_size
                0x0000000087824920       0x5c common/built-in.o
                0x0000000087824920                cmd_get_data_size
 .text.cmd_always_repeatable
                0x000000008782497c       0x1c common/built-in.o
                0x000000008782497c                cmd_always_repeatable
 .text.cmd_never_repeatable
                0x0000000087824998       0x1c common/built-in.o
                0x0000000087824998                cmd_never_repeatable
 .text.cmd_discard_repeatable
                0x00000000878249b4       0x1c common/built-in.o
                0x00000000878249b4                cmd_discard_repeatable
 .text.cmd_process
                0x00000000878249d0      0x104 common/built-in.o
                0x00000000878249d0                cmd_process
 .text.cmd_process_error
                0x0000000087824ad4       0x38 common/built-in.o
                0x0000000087824ad4                cmd_process_error
 .text.hex1_bin
                0x0000000087824b0c       0x40 common/built-in.o
 .text.hex2_bin
                0x0000000087824b4c       0x38 common/built-in.o
 .text.srec_decode
                0x0000000087824b84      0x254 common/built-in.o
                0x0000000087824b84                srec_decode
 .text.CYGACC_COMM_IF_GETC_TIMEOUT.isra.0
                0x0000000087824dd8       0x4c common/built-in.o
 .text.xyzModem_flush
                0x0000000087824e24       0x1c common/built-in.o
 .text.xyzModem_get_hdr
                0x0000000087824e40      0x234 common/built-in.o
 .text.xyzModem_stream_open
                0x0000000087825074      0x23c common/built-in.o
                0x0000000087825074                xyzModem_stream_open
 .text.xyzModem_stream_read
                0x00000000878252b0      0x258 common/built-in.o
                0x00000000878252b0                xyzModem_stream_read
 .text.xyzModem_stream_close
                0x0000000087825508       0x54 common/built-in.o
                0x0000000087825508                xyzModem_stream_close
 .text.xyzModem_stream_terminate
                0x000000008782555c       0x94 common/built-in.o
                0x000000008782555c                xyzModem_stream_terminate
 .text.xyzModem_error
                0x00000000878255f0       0x20 common/built-in.o
                0x00000000878255f0                xyzModem_error
 .text.part_driver_lookup_type
                0x0000000087825610       0x84 disk/built-in.o
 .text.blk_get_dev
                0x0000000087825694       0x30 disk/built-in.o
                0x0000000087825694                blk_get_dev
 .text.dev_print
                0x00000000878256c4      0x238 disk/built-in.o
                0x00000000878256c4                dev_print
 .text.part_init
                0x00000000878258fc       0x64 disk/built-in.o
                0x00000000878258fc                part_init
 .text.part_print
                0x0000000087825960      0x12c disk/built-in.o
                0x0000000087825960                part_print
 .text.part_get_info
                0x0000000087825a8c       0x60 disk/built-in.o
                0x0000000087825a8c                part_get_info
 .text.part_get_info_whole_disk
                0x0000000087825aec       0x50 disk/built-in.o
                0x0000000087825aec                part_get_info_whole_disk
 .text.blk_get_device_by_str
                0x0000000087825b3c      0x138 disk/built-in.o
                0x0000000087825b3c                blk_get_device_by_str
 .text.blk_get_device_part_str
                0x0000000087825c74      0x44c disk/built-in.o
                0x0000000087825c74                blk_get_device_part_str
 .text.part_get_info_by_name_type
                0x00000000878260c0       0x78 disk/built-in.o
                0x00000000878260c0                part_get_info_by_name_type
 .text.part_get_info_by_name
                0x0000000087826138        0x8 disk/built-in.o
                0x0000000087826138                part_get_info_by_name
 .text.part_set_generic_name
                0x0000000087826140       0x4c disk/built-in.o
                0x0000000087826140                part_set_generic_name
 .text.test_block_type
                0x000000008782618c       0x84 disk/built-in.o
 .text.print_partition_extended
                0x0000000087826210      0x270 disk/built-in.o
 .text.part_print_dos
                0x0000000087826480       0x34 disk/built-in.o
                0x0000000087826480                part_print_dos
 .text.part_test_dos
                0x00000000878264b4       0x6c disk/built-in.o
 .text.part_get_info_extended
                0x0000000087826520      0x2d0 disk/built-in.o
 .text.part_get_info_dos
                0x00000000878267f0       0x24 disk/built-in.o
                0x00000000878267f0                part_get_info_dos
 .text.print_efiname
                0x0000000087826814       0x58 disk/built-in.o
 .text.part_test_efi
                0x000000008782686c       0xd0 disk/built-in.o
 .text.validate_gpt_header
                0x000000008782693c      0x224 disk/built-in.o
 .text.is_gpt_valid
                0x0000000087826b60      0x2d8 disk/built-in.o
 .text.is_pte_valid
                0x0000000087826e38       0x58 disk/built-in.o
 .text.part_print_efi
                0x0000000087826e90      0x270 disk/built-in.o
                0x0000000087826e90                part_print_efi
 .text.part_get_info_efi
                0x0000000087827100      0x1d4 disk/built-in.o
                0x0000000087827100                part_get_info_efi
 .text.is_valid_gpt_buf
                0x00000000878272d4       0xc0 disk/built-in.o
                0x00000000878272d4                is_valid_gpt_buf
 .text.write_backup_gpt_partitions
                0x0000000087827394      0x310 disk/built-in.o
                0x0000000087827394                write_backup_gpt_partitions
 .text.device_bind_common.isra.7
                0x00000000878276a4      0x364 drivers/built-in.o
 .text.alloc_priv
                0x0000000087827a08       0x58 drivers/built-in.o
 .text.device_bind_with_driver_data
                0x0000000087827a60       0x24 drivers/built-in.o
                0x0000000087827a60                device_bind_with_driver_data
 .text.device_bind
                0x0000000087827a84       0x28 drivers/built-in.o
                0x0000000087827a84                device_bind
 .text.device_bind_by_name
                0x0000000087827aac       0x68 drivers/built-in.o
                0x0000000087827aac                device_bind_by_name
 .text.device_probe
                0x0000000087827b14      0x29c drivers/built-in.o
                0x0000000087827b14                device_probe
 .text.dev_get_platdata
                0x0000000087827db0       0x34 drivers/built-in.o
                0x0000000087827db0                dev_get_platdata
 .text.dev_get_parent_platdata
                0x0000000087827de4       0x34 drivers/built-in.o
                0x0000000087827de4                dev_get_parent_platdata
 .text.dev_get_uclass_platdata
                0x0000000087827e18       0x34 drivers/built-in.o
                0x0000000087827e18                dev_get_uclass_platdata
 .text.dev_get_priv
                0x0000000087827e4c       0x34 drivers/built-in.o
                0x0000000087827e4c                dev_get_priv
 .text.dev_get_uclass_priv
                0x0000000087827e80       0x34 drivers/built-in.o
                0x0000000087827e80                dev_get_uclass_priv
 .text.dev_get_parent_priv
                0x0000000087827eb4       0x34 drivers/built-in.o
                0x0000000087827eb4                dev_get_parent_priv
 .text.device_find_first_child
                0x0000000087827ee8       0x1c drivers/built-in.o
                0x0000000087827ee8                device_find_first_child
 .text.device_find_next_child
                0x0000000087827f04       0x28 drivers/built-in.o
                0x0000000087827f04                device_find_next_child
 .text.dev_get_parent
                0x0000000087827f2c        0x8 drivers/built-in.o
                0x0000000087827f2c                dev_get_parent
 .text.dev_get_driver_data
                0x0000000087827f34        0x8 drivers/built-in.o
                0x0000000087827f34                dev_get_driver_data
 .text.dev_get_driver_ops
                0x0000000087827f3c       0x10 drivers/built-in.o
                0x0000000087827f3c                dev_get_driver_ops
 .text.device_get_uclass_id
                0x0000000087827f4c       0x10 drivers/built-in.o
                0x0000000087827f4c                device_get_uclass_id
 .text.device_has_active_children
                0x0000000087827f5c       0x3c drivers/built-in.o
                0x0000000087827f5c                device_has_active_children
 .text.device_is_last_sibling
                0x0000000087827f98       0x24 drivers/built-in.o
                0x0000000087827f98                device_is_last_sibling
 .text.device_set_name_alloced
                0x0000000087827fbc       0x10 drivers/built-in.o
                0x0000000087827fbc                device_set_name_alloced
 .text.devfdt_get_addr_index
                0x0000000087827fcc       0xd4 drivers/built-in.o
                0x0000000087827fcc                devfdt_get_addr_index
 .text.devfdt_get_addr
                0x00000000878280a0        0x8 drivers/built-in.o
                0x00000000878280a0                devfdt_get_addr
 .text.lists_driver_lookup_name
                0x00000000878280a8       0x4c drivers/built-in.o
                0x00000000878280a8                lists_driver_lookup_name
 .text.lists_uclass_lookup
                0x00000000878280f4       0x3c drivers/built-in.o
                0x00000000878280f4                lists_uclass_lookup
 .text.lists_bind_drivers
                0x0000000087828130       0x88 drivers/built-in.o
                0x0000000087828130                lists_bind_drivers
 .text.device_bind_driver_to_node
                0x00000000878281b8       0x48 drivers/built-in.o
                0x00000000878281b8                device_bind_driver_to_node
 .text.device_bind_driver
                0x0000000087828200       0x18 drivers/built-in.o
                0x0000000087828200                device_bind_driver
 .text.lists_bind_fdt
                0x0000000087828218      0x1a4 drivers/built-in.o
                0x0000000087828218                lists_bind_fdt
 .text.dm_scan_fdt_node
                0x00000000878283bc       0xf4 drivers/built-in.o
 .text.dm_scan_fdt_ofnode_path
                0x00000000878284b0       0x34 drivers/built-in.o
 .text.dm_root  0x00000000878284e4       0x28 drivers/built-in.o
                0x00000000878284e4                dm_root
 .text.dm_get_translation_offset
                0x000000008782850c       0x14 drivers/built-in.o
                0x000000008782850c                dm_get_translation_offset
 .text.dm_init  0x0000000087828520       0x60 drivers/built-in.o
                0x0000000087828520                dm_init
 .text.dm_remove_devices_flags
                0x0000000087828580       0x1c drivers/built-in.o
                0x0000000087828580                dm_remove_devices_flags
 .text.dm_scan_platdata
                0x000000008782859c       0x2c drivers/built-in.o
                0x000000008782859c                dm_scan_platdata
 .text.dm_scan_fdt_dev
                0x00000000878285c8       0x28 drivers/built-in.o
                0x00000000878285c8                dm_scan_fdt_dev
 .text.dm_scan_fdt
                0x00000000878285f0       0x18 drivers/built-in.o
                0x00000000878285f0                dm_scan_fdt
 .text.dm_extended_scan_fdt
                0x0000000087828608       0x44 drivers/built-in.o
                0x0000000087828608                dm_extended_scan_fdt
 .text.dm_scan_other
                0x000000008782864c        0x8 drivers/built-in.o
                0x000000008782864c                dm_scan_other
 .text.dm_init_and_scan
                0x0000000087828654       0x48 drivers/built-in.o
                0x0000000087828654                dm_init_and_scan
 .text.uclass_find
                0x000000008782869c       0x4c drivers/built-in.o
                0x000000008782869c                uclass_find
 .text.uclass_get
                0x00000000878286e8      0x128 drivers/built-in.o
                0x00000000878286e8                uclass_get
 .text.dev_get_uclass_index
                0x0000000087828810       0x5c drivers/built-in.o
                0x0000000087828810                dev_get_uclass_index
 .text.uclass_find_device
                0x000000008782886c       0x74 drivers/built-in.o
                0x000000008782886c                uclass_find_device
 .text.uclass_find_first_device
                0x00000000878288e0       0x40 drivers/built-in.o
                0x00000000878288e0                uclass_find_first_device
 .text.uclass_find_next_device
                0x0000000087828920       0x2c drivers/built-in.o
                0x0000000087828920                uclass_find_next_device
 .text.uclass_find_device_by_name
                0x000000008782894c       0x8c drivers/built-in.o
                0x000000008782894c                uclass_find_device_by_name
 .text.uclass_find_device_by_seq
                0x00000000878289d8       0x7c drivers/built-in.o
                0x00000000878289d8                uclass_find_device_by_seq
 .text.uclass_find_device_by_ofnode
                0x0000000087828a54       0x6c drivers/built-in.o
                0x0000000087828a54                uclass_find_device_by_ofnode
 .text.uclass_find_device_by_phandle
                0x0000000087828ac0       0x98 drivers/built-in.o
                0x0000000087828ac0                uclass_find_device_by_phandle
 .text.uclass_get_device_by_driver
                0x0000000087828b58       0x68 drivers/built-in.o
                0x0000000087828b58                uclass_get_device_by_driver
 .text.uclass_get_device_tail
                0x0000000087828bc0       0x2c drivers/built-in.o
                0x0000000087828bc0                uclass_get_device_tail
 .text.uclass_get_device
                0x0000000087828bec       0x30 drivers/built-in.o
                0x0000000087828bec                uclass_get_device
 .text.uclass_get_device_by_name
                0x0000000087828c1c       0x30 drivers/built-in.o
                0x0000000087828c1c                uclass_get_device_by_name
 .text.uclass_get_device_by_seq
                0x0000000087828c4c       0x54 drivers/built-in.o
                0x0000000087828c4c                uclass_get_device_by_seq
 .text.uclass_get_device_by_ofnode
                0x0000000087828ca0       0x30 drivers/built-in.o
                0x0000000087828ca0                uclass_get_device_by_ofnode
 .text.uclass_get_device_by_phandle_id
                0x0000000087828cd0       0x84 drivers/built-in.o
                0x0000000087828cd0                uclass_get_device_by_phandle_id
 .text.uclass_get_device_by_phandle
                0x0000000087828d54       0x30 drivers/built-in.o
                0x0000000087828d54                uclass_get_device_by_phandle
 .text.uclass_first_device
                0x0000000087828d84       0x38 drivers/built-in.o
                0x0000000087828d84                uclass_first_device
 .text.uclass_first_device_err
                0x0000000087828dbc       0x28 drivers/built-in.o
                0x0000000087828dbc                uclass_first_device_err
 .text.uclass_next_device
                0x0000000087828de4       0x40 drivers/built-in.o
                0x0000000087828de4                uclass_next_device
 .text.uclass_next_device_err
                0x0000000087828e24       0x28 drivers/built-in.o
                0x0000000087828e24                uclass_next_device_err
 .text.uclass_first_device_check
                0x0000000087828e4c       0x30 drivers/built-in.o
                0x0000000087828e4c                uclass_first_device_check
 .text.uclass_next_device_check
                0x0000000087828e7c       0x28 drivers/built-in.o
                0x0000000087828e7c                uclass_next_device_check
 .text.uclass_bind_device
                0x0000000087828ea4       0x7c drivers/built-in.o
                0x0000000087828ea4                uclass_bind_device
 .text.uclass_unbind_device
                0x0000000087828f20       0x50 drivers/built-in.o
                0x0000000087828f20                uclass_unbind_device
 .text.uclass_resolve_seq
                0x0000000087828f70       0xb0 drivers/built-in.o
                0x0000000087828f70                uclass_resolve_seq
 .text.uclass_pre_probe_device
                0x0000000087829020       0x64 drivers/built-in.o
                0x0000000087829020                uclass_pre_probe_device
 .text.uclass_post_probe_device
                0x0000000087829084       0x60 drivers/built-in.o
                0x0000000087829084                uclass_post_probe_device
 .text.uclass_pre_remove_device
                0x00000000878290e4       0x20 drivers/built-in.o
                0x00000000878290e4                uclass_pre_remove_device
 .text.dm_warn  0x0000000087829104       0x28 drivers/built-in.o
                0x0000000087829104                dm_warn
 .text.dm_ofnode_pre_reloc
                0x000000008782912c       0x50 drivers/built-in.o
                0x000000008782912c                dm_ofnode_pre_reloc
 .text.devm_kmalloc_release
                0x000000008782917c        0x4 drivers/built-in.o
 .text.devm_kmalloc_match
                0x0000000087829180       0x10 drivers/built-in.o
 .text.release_nodes
                0x0000000087829190       0x74 drivers/built-in.o
 .text._devres_alloc
                0x0000000087829204       0x28 drivers/built-in.o
                0x0000000087829204                _devres_alloc
 .text.devres_free
                0x000000008782922c       0x4c drivers/built-in.o
                0x000000008782922c                devres_free
 .text.devres_add
                0x0000000087829278       0x68 drivers/built-in.o
                0x0000000087829278                devres_add
 .text.devres_find
                0x00000000878292e0       0x6c drivers/built-in.o
                0x00000000878292e0                devres_find
 .text.devres_remove
                0x000000008782934c       0x30 drivers/built-in.o
                0x000000008782934c                devres_remove
 .text.devres_destroy
                0x000000008782937c       0x24 drivers/built-in.o
                0x000000008782937c                devres_destroy
 .text.devres_release_probe
                0x00000000878293a0        0xc drivers/built-in.o
                0x00000000878293a0                devres_release_probe
 .text.devres_release_all
                0x00000000878293ac        0xc drivers/built-in.o
                0x00000000878293ac                devres_release_all
 .text.devm_kmalloc
                0x00000000878293b8       0x30 drivers/built-in.o
                0x00000000878293b8                devm_kmalloc
 .text.devm_kfree
                0x00000000878293e8       0x48 drivers/built-in.o
                0x00000000878293e8                devm_kfree
 .text.device_unbind
                0x0000000087829430      0x114 drivers/built-in.o
                0x0000000087829430                device_unbind
 .text.device_chld_unbind
                0x0000000087829544       0x74 drivers/built-in.o
                0x0000000087829544                device_chld_unbind
 .text.device_free
                0x00000000878295b8       0x98 drivers/built-in.o
                0x00000000878295b8                device_free
 .text.device_remove
                0x0000000087829650      0x158 drivers/built-in.o
                0x0000000087829650                device_remove
 .text.device_chld_remove
                0x00000000878297a8       0x6c drivers/built-in.o
                0x00000000878297a8                device_chld_remove
 .text.simple_bus_post_bind
                0x0000000087829814       0x58 drivers/built-in.o
 .text.show_devices
                0x000000008782986c      0x104 drivers/built-in.o
 .text.dm_dump_all
                0x0000000087829970       0x3c drivers/built-in.o
                0x0000000087829970                dm_dump_all
 .text.dm_dump_uclass
                0x00000000878299ac       0xe4 drivers/built-in.o
                0x00000000878299ac                dm_dump_uclass
 .text.ofnode_read_u32
                0x0000000087829a90       0x54 drivers/built-in.o
                0x0000000087829a90                ofnode_read_u32
 .text.ofnode_read_u32_default
                0x0000000087829ae4       0x20 drivers/built-in.o
                0x0000000087829ae4                ofnode_read_u32_default
 .text.ofnode_read_string
                0x0000000087829b04       0x54 drivers/built-in.o
                0x0000000087829b04                ofnode_read_string
 .text.ofnode_read_u32_array
                0x0000000087829b58       0x28 drivers/built-in.o
                0x0000000087829b58                ofnode_read_u32_array
 .text.ofnode_first_subnode
                0x0000000087829b80       0x18 drivers/built-in.o
                0x0000000087829b80                ofnode_first_subnode
 .text.ofnode_next_subnode
                0x0000000087829b98       0x18 drivers/built-in.o
                0x0000000087829b98                ofnode_next_subnode
 .text.ofnode_get_name
                0x0000000087829bb0       0x14 drivers/built-in.o
                0x0000000087829bb0                ofnode_get_name
 .text.ofnode_stringlist_search
                0x0000000087829bc4       0x38 drivers/built-in.o
                0x0000000087829bc4                ofnode_stringlist_search
 .text.ofnode_parse_phandle_with_args
                0x0000000087829bfc       0x68 drivers/built-in.o
                0x0000000087829bfc                ofnode_parse_phandle_with_args
 .text.ofnode_path
                0x0000000087829c64       0x18 drivers/built-in.o
                0x0000000087829c64                ofnode_path
 .text.ofnode_get_property
                0x0000000087829c7c       0x18 drivers/built-in.o
                0x0000000087829c7c                ofnode_get_property
 .text.ofnode_read_bool
                0x0000000087829c94       0x18 drivers/built-in.o
                0x0000000087829c94                ofnode_read_bool
 .text.ofnode_pre_reloc
                0x0000000087829cac       0x68 drivers/built-in.o
                0x0000000087829cac                ofnode_pre_reloc
 .text.ofnode_read_resource
                0x0000000087829d14       0x64 drivers/built-in.o
                0x0000000087829d14                ofnode_read_resource
 .text.ofnode_read_resource_byname
                0x0000000087829d78       0x34 drivers/built-in.o
                0x0000000087829d78                ofnode_read_resource_byname
 .text.pinconfig_post_bind
                0x0000000087829dac       0xc4 drivers/built-in.o
 .text.pinctrl_post_bind
                0x0000000087829e70       0x30 drivers/built-in.o
 .text.pinctrl_select_state
                0x0000000087829ea0      0x17c drivers/built-in.o
                0x0000000087829ea0                pinctrl_select_state
 .text.pinctrl_get_pins_count
                0x000000008782a01c       0x20 drivers/built-in.o
                0x000000008782a01c                pinctrl_get_pins_count
 .text.pinctrl_get_pin_name
                0x000000008782a03c       0x44 drivers/built-in.o
                0x000000008782a03c                pinctrl_get_pin_name
 .text.pinctrl_get_pin_muxing
                0x000000008782a080       0x20 drivers/built-in.o
                0x000000008782a080                pinctrl_get_pin_muxing
 .text.imx_pinctrl_set_state
                0x000000008782a0a0      0x324 drivers/built-in.o
 .text.imx_pinctrl_probe
                0x000000008782a3c4      0x12c drivers/built-in.o
                0x000000008782a3c4                imx_pinctrl_probe
 .text.imx_pinctrl_remove
                0x000000008782a4f0       0x10 drivers/built-in.o
                0x000000008782a4f0                imx_pinctrl_remove
 .text.imx6_pinctrl_probe
                0x000000008782a500       0x1c drivers/built-in.o
 .text.get_desc
                0x000000008782a51c       0xac drivers/built-in.o
 .text.blk_post_probe
                0x000000008782a5c8       0x14 drivers/built-in.o
 .text.blk_get_if_type_name
                0x000000008782a5dc       0x10 drivers/built-in.o
                0x000000008782a5dc                blk_get_if_type_name
 .text.blk_get_devnum_by_typename
                0x000000008782a5ec       0xec drivers/built-in.o
                0x000000008782a5ec                blk_get_devnum_by_typename
 .text.blk_list_part
                0x000000008782a6d8       0x78 drivers/built-in.o
                0x000000008782a6d8                blk_list_part
 .text.blk_print_part_devnum
                0x000000008782a750       0x38 drivers/built-in.o
                0x000000008782a750                blk_print_part_devnum
 .text.blk_list_devices
                0x000000008782a788       0x64 drivers/built-in.o
                0x000000008782a788                blk_list_devices
 .text.blk_print_device_num
                0x000000008782a7ec       0x3c drivers/built-in.o
                0x000000008782a7ec                blk_print_device_num
 .text.blk_show_device
                0x000000008782a828       0x74 drivers/built-in.o
                0x000000008782a828                blk_show_device
 .text.blk_select_hwpart
                0x000000008782a89c       0x30 drivers/built-in.o
                0x000000008782a89c                blk_select_hwpart
 .text.blk_dselect_hwpart
                0x000000008782a8cc        0x8 drivers/built-in.o
                0x000000008782a8cc                blk_dselect_hwpart
 .text.blk_first_device
                0x000000008782a8d4       0x58 drivers/built-in.o
                0x000000008782a8d4                blk_first_device
 .text.blk_next_device
                0x000000008782a92c       0x50 drivers/built-in.o
                0x000000008782a92c                blk_next_device
 .text.blk_find_device
                0x000000008782a97c       0x80 drivers/built-in.o
                0x000000008782a97c                blk_find_device
 .text.blk_get_device
                0x000000008782a9fc       0x20 drivers/built-in.o
                0x000000008782a9fc                blk_get_device
 .text.blk_get_devnum_by_type
                0x000000008782aa1c       0x28 drivers/built-in.o
                0x000000008782aa1c                blk_get_devnum_by_type
 .text.blk_select_hwpart_devnum
                0x000000008782aa44       0x2c drivers/built-in.o
                0x000000008782aa44                blk_select_hwpart_devnum
 .text.blk_dread
                0x000000008782aa70       0xa4 drivers/built-in.o
                0x000000008782aa70                blk_dread
 .text.blk_read_devnum
                0x000000008782ab14       0x38 drivers/built-in.o
                0x000000008782ab14                blk_read_devnum
 .text.blk_dwrite
                0x000000008782ab4c       0x54 drivers/built-in.o
                0x000000008782ab4c                blk_dwrite
 .text.blk_write_devnum
                0x000000008782aba0       0x38 drivers/built-in.o
                0x000000008782aba0                blk_write_devnum
 .text.blk_derase
                0x000000008782abd8       0x4c drivers/built-in.o
                0x000000008782abd8                blk_derase
 .text.blk_get_from_parent
                0x000000008782ac24       0x4c drivers/built-in.o
                0x000000008782ac24                blk_get_from_parent
 .text.blk_find_max_devnum
                0x000000008782ac70       0x78 drivers/built-in.o
                0x000000008782ac70                blk_find_max_devnum
 .text.blk_next_free_devnum
                0x000000008782ace8       0x24 drivers/built-in.o
                0x000000008782ace8                blk_next_free_devnum
 .text.blk_create_device
                0x000000008782ad0c      0x124 drivers/built-in.o
                0x000000008782ad0c                blk_create_device
 .text.blk_create_devicef
                0x000000008782ae30       0xa0 drivers/built-in.o
                0x000000008782ae30                blk_create_devicef
 .text.blkcache_read
                0x000000008782aed0       0xf8 drivers/built-in.o
                0x000000008782aed0                blkcache_read
 .text.blkcache_fill
                0x000000008782afc8      0x140 drivers/built-in.o
                0x000000008782afc8                blkcache_fill
 .text.blkcache_invalidate
                0x000000008782b108       0x8c drivers/built-in.o
                0x000000008782b108                blkcache_invalidate
 .text.blkcache_configure
                0x000000008782b194       0x8c drivers/built-in.o
                0x000000008782b194                blkcache_configure
 .text.blkcache_stats
                0x000000008782b220       0x28 drivers/built-in.o
                0x000000008782b220                blkcache_stats
 .text.fastboot_response
                0x000000008782b248       0x68 drivers/built-in.o
                0x000000008782b248                fastboot_response
 .text.fastboot_fail
                0x000000008782b2b0       0x18 drivers/built-in.o
                0x000000008782b2b0                fastboot_fail
 .text.fastboot_okay
                0x000000008782b2c8       0x28 drivers/built-in.o
                0x000000008782b2c8                fastboot_okay
 .text.fastboot_set_reboot_flag
                0x000000008782b2f0        0x8 drivers/built-in.o
                0x000000008782b2f0                fastboot_set_reboot_flag
 .text.fastboot_boot
                0x000000008782b2f8       0x88 drivers/built-in.o
                0x000000008782b2f8                fastboot_boot
 .text.fastboot_init
                0x000000008782b380       0x5c drivers/built-in.o
                0x000000008782b380                fastboot_init
 .text.mmc_sparse_reserve
                0x000000008782b3dc        0x8 drivers/built-in.o
 .text.mmc_sparse_write
                0x000000008782b3e4       0xcc drivers/built-in.o
 .text.write_backup_gpt
                0x000000008782b4b0       0x94 drivers/built-in.o
                0x000000008782b4b0                write_backup_gpt
 .text.process_flash_blkdev
                0x000000008782b544      0x4d4 drivers/built-in.o
 .text.fastboot_process_erase
                0x000000008782ba18      0x1d0 drivers/built-in.o
                0x000000008782ba18                fastboot_process_erase
 .text.fastboot_process_flash
                0x000000008782bbe8       0x48 drivers/built-in.o
                0x000000008782bbe8                fastboot_process_flash
 .text.okay     0x000000008782bc30        0x8 drivers/built-in.o
 .text.upload   0x000000008782bc38       0x9c drivers/built-in.o
 .text.reboot_bootloader
                0x000000008782bcd4       0x30 drivers/built-in.o
 .text.download
                0x000000008782bd04       0xac drivers/built-in.o
 .text.getvar   0x000000008782bdb0        0x4 drivers/built-in.o
 .text.run_ucmd
                0x000000008782bdb4       0x5c drivers/built-in.o
 .text.run_acmd
                0x000000008782be10       0x4c drivers/built-in.o
 .text.erase    0x000000008782be5c       0x30 drivers/built-in.o
 .text.flash    0x000000008782be8c       0x4c drivers/built-in.o
 .text.fastboot_run_bootmode
                0x000000008782bed8        0xc drivers/built-in.o
                0x000000008782bed8                fastboot_run_bootmode
 .text.fastboot_data_remaining
                0x000000008782bee4       0x28 drivers/built-in.o
                0x000000008782bee4                fastboot_data_remaining
 .text.fastboot_data_download
                0x000000008782bf0c       0xac drivers/built-in.o
                0x000000008782bf0c                fastboot_data_download
 .text.fastboot_data_complete
                0x000000008782bfb8       0x5c drivers/built-in.o
                0x000000008782bfb8                fastboot_data_complete
 .text.fastboot_acmd_complete
                0x000000008782c014       0x10 drivers/built-in.o
                0x000000008782c014                fastboot_acmd_complete
 .text.fastboot_handle_command
                0x000000008782c024       0xb4 drivers/built-in.o
                0x000000008782c024                fastboot_handle_command
 .text.fastboot_none_resp
                0x000000008782c0d8        0xc drivers/built-in.o
                0x000000008782c0d8                fastboot_none_resp
 .text.board_fastboot_setup
                0x000000008782c0e4      0x3a8 drivers/built-in.o
                0x000000008782c0e4                board_fastboot_setup
 .text.fastboot_setup
                0x000000008782c48c      0x108 drivers/built-in.o
                0x000000008782c48c                fastboot_setup
 .text.strcmp_l1
                0x000000008782c594       0x38 drivers/built-in.o
 .text.get_block_size
                0x000000008782c5cc       0x70 drivers/built-in.o
 .text.get_single_var
                0x000000008782c63c      0x49c drivers/built-in.o
 .text.fastboot_getvar
                0x000000008782cad8      0x3d0 drivers/built-in.o
                0x000000008782cad8                fastboot_getvar
 .text.bootloader_mmc_offset
                0x000000008782cea8       0x8c drivers/built-in.o
 .text.bootloader_gpt_overlay
                0x000000008782cf34       0x38 drivers/built-in.o
                0x000000008782cf34                bootloader_gpt_overlay
 .text.fastboot_flash_add_ptn
                0x000000008782cf6c       0x40 drivers/built-in.o
                0x000000008782cf6c                fastboot_flash_add_ptn
 .text._fastboot_parts_load_from_ptable
                0x000000008782cfac      0x2fc drivers/built-in.o
 .text.fastboot_load_partitions
                0x000000008782d2a8       0x14 drivers/built-in.o
                0x000000008782d2a8                fastboot_load_partitions
 .text.fastboot_flash_dump_ptn
                0x000000008782d2bc       0x60 drivers/built-in.o
                0x000000008782d2bc                fastboot_flash_dump_ptn
 .text.fastboot_flash_find_ptn
                0x000000008782d31c       0x78 drivers/built-in.o
                0x000000008782d31c                fastboot_flash_find_ptn
 .text.fastboot_parts_is_raw
                0x000000008782d394       0x88 drivers/built-in.o
                0x000000008782d394                fastboot_parts_is_raw
 .text.fastboot_parts_get_name
                0x000000008782d41c       0xf4 drivers/built-in.o
                0x000000008782d41c                fastboot_parts_get_name
 .text.fastboot_parts_is_slot
                0x000000008782d510       0x88 drivers/built-in.o
                0x000000008782d510                fastboot_parts_is_slot
 .text.finish_access
                0x000000008782d598       0x34 drivers/built-in.o
 .text.wait_busy
                0x000000008782d5cc       0x2c drivers/built-in.o
 .text.prepare_access
                0x000000008782d5f8       0xd4 drivers/built-in.o
 .text.setup_direct_access
                0x000000008782d6cc      0x130 drivers/built-in.o
 .text.fuse_bank_physical
                0x000000008782d7fc      0x108 drivers/built-in.o
                0x000000008782d7fc                fuse_bank_physical
 .text.fuse_word_physical
                0x000000008782d904       0x50 drivers/built-in.o
                0x000000008782d904                fuse_word_physical
 .text.fuse_read
                0x000000008782d954       0x84 drivers/built-in.o
                0x000000008782d954                fuse_read
 .text.fuse_sense
                0x000000008782d9d8       0xe4 drivers/built-in.o
                0x000000008782d9d8                fuse_sense
 .text.fuse_prog
                0x000000008782dabc       0x80 drivers/built-in.o
                0x000000008782dabc                fuse_prog
 .text.fuse_override
                0x000000008782db3c       0x7c drivers/built-in.o
                0x000000008782db3c                fuse_override
 .text.mmc_send_ext_csd
                0x000000008782dbb8       0x4c drivers/built-in.o
 .text.mmc_send_op_cond_iter
                0x000000008782dc04       0x78 drivers/built-in.o
 .text.mmc_go_idle
                0x000000008782dc7c       0x4c drivers/built-in.o
 .text.mmc_set_capacity
                0x000000008782dcc8       0xb0 drivers/built-in.o
 .text.unlikely.mmc_read_and_compare_ext_csd
                0x000000008782dd78       0xa4 drivers/built-in.o
 .text.mmc_power_on.isra.8
                0x000000008782de1c       0x3c drivers/built-in.o
 .text.mmc_mode_name
                0x000000008782de58       0x1c drivers/built-in.o
                0x000000008782de58                mmc_mode_name
 .text.mmc_send_status
                0x000000008782de74       0xd0 drivers/built-in.o
                0x000000008782de74                mmc_send_status
 .text.__mmc_switch.isra.10
                0x000000008782df44       0x84 drivers/built-in.o
 .text.mmc_startup_v4
                0x000000008782dfc8      0x370 drivers/built-in.o
 .text.unlikely.mmc_set_card_speed.constprop.16
                0x000000008782e338       0xa0 drivers/built-in.o
 .text.mmc_set_blocklen
                0x000000008782e3d8       0x7c drivers/built-in.o
                0x000000008782e3d8                mmc_set_blocklen
 .text.mmc_bread
                0x000000008782e454      0x16c drivers/built-in.o
                0x000000008782e454                mmc_bread
 .text.mmc_switch
                0x000000008782e5c0       0x10 drivers/built-in.o
                0x000000008782e5c0                mmc_switch
 .text.mmc_switch_part
                0x000000008782e5d0       0x64 drivers/built-in.o
                0x000000008782e5d0                mmc_switch_part
 .text.mmc_hwpart_config
                0x000000008782e634      0x438 drivers/built-in.o
                0x000000008782e634                mmc_hwpart_config
 .text.mmc_set_clock
                0x000000008782ea6c       0x30 drivers/built-in.o
                0x000000008782ea6c                mmc_set_clock
 .text.mmc_startup
                0x000000008782ea9c      0xcb4 drivers/built-in.o
 .text.mmc_dump_capabilities
                0x000000008782f750        0x4 drivers/built-in.o
                0x000000008782f750                mmc_dump_capabilities
 .text.mmc_get_op_cond
                0x000000008782f754      0x2a8 drivers/built-in.o
                0x000000008782f754                mmc_get_op_cond
 .text.mmc_start_init
                0x000000008782f9fc       0x54 drivers/built-in.o
                0x000000008782f9fc                mmc_start_init
 .text.mmc_init
                0x000000008782fa50      0x108 drivers/built-in.o
                0x000000008782fa50                mmc_init
 .text.mmc_set_dsr
                0x000000008782fb58        0xc drivers/built-in.o
                0x000000008782fb58                mmc_set_dsr
 .text.mmc_initialize
                0x000000008782fb64       0x88 drivers/built-in.o
                0x000000008782fb64                mmc_initialize
 .text.mmc_blk_probe
                0x000000008782fbec       0x18 drivers/built-in.o
 .text.dm_mmc_set_ios
                0x000000008782fc04       0x20 drivers/built-in.o
                0x000000008782fc04                dm_mmc_set_ios
 .text.mmc_set_ios
                0x000000008782fc24        0x8 drivers/built-in.o
                0x000000008782fc24                mmc_set_ios
 .text.dm_mmc_send_init_stream
                0x000000008782fc2c       0x18 drivers/built-in.o
                0x000000008782fc2c                dm_mmc_send_init_stream
 .text.mmc_send_init_stream
                0x000000008782fc44        0x8 drivers/built-in.o
                0x000000008782fc44                mmc_send_init_stream
 .text.dm_mmc_get_wp
                0x000000008782fc4c       0x20 drivers/built-in.o
                0x000000008782fc4c                dm_mmc_get_wp
 .text.mmc_getwp
                0x000000008782fc6c        0x8 drivers/built-in.o
                0x000000008782fc6c                mmc_getwp
 .text.dm_mmc_get_cd
                0x000000008782fc74       0x20 drivers/built-in.o
                0x000000008782fc74                dm_mmc_get_cd
 .text.mmc_getcd
                0x000000008782fc94        0x8 drivers/built-in.o
                0x000000008782fc94                mmc_getcd
 .text.mmc_get_mmc_dev
                0x000000008782fc9c       0x24 drivers/built-in.o
                0x000000008782fc9c                mmc_get_mmc_dev
 .text.dm_mmc_send_cmd
                0x000000008782fcc0       0x44 drivers/built-in.o
                0x000000008782fcc0                dm_mmc_send_cmd
 .text.mmc_send_cmd
                0x000000008782fd04        0x8 drivers/built-in.o
                0x000000008782fd04                mmc_send_cmd
 .text.mmc_select_hwpart
                0x000000008782fd0c       0x58 drivers/built-in.o
 .text.find_mmc_device
                0x000000008782fd64       0x4c drivers/built-in.o
                0x000000008782fd64                find_mmc_device
 .text.get_mmc_num
                0x000000008782fdb0       0x18 drivers/built-in.o
                0x000000008782fdb0                get_mmc_num
 .text.mmc_get_blk_desc
                0x000000008782fdc8       0x28 drivers/built-in.o
                0x000000008782fdc8                mmc_get_blk_desc
 .text.mmc_do_preinit
                0x000000008782fdf0       0x74 drivers/built-in.o
                0x000000008782fdf0                mmc_do_preinit
 .text.print_mmc_devices
                0x000000008782fe64       0xf0 drivers/built-in.o
                0x000000008782fe64                print_mmc_devices
 .text.mmc_bind
                0x000000008782ff54       0xc4 drivers/built-in.o
                0x000000008782ff54                mmc_bind
 .text.mmc_berase
                0x0000000087830018      0x1cc drivers/built-in.o
                0x0000000087830018                mmc_berase
 .text.mmc_bwrite
                0x00000000878301e4      0x1a4 drivers/built-in.o
                0x00000000878301e4                mmc_bwrite
 .text.mmc_boot_partition_size_change
                0x0000000087830388       0xc4 drivers/built-in.o
                0x0000000087830388                mmc_boot_partition_size_change
 .text.mmc_set_boot_bus_width
                0x000000008783044c       0x18 drivers/built-in.o
                0x000000008783044c                mmc_set_boot_bus_width
 .text.mmc_set_part_conf
                0x0000000087830464       0x30 drivers/built-in.o
                0x0000000087830464                mmc_set_part_conf
 .text.mmc_set_rst_n_function
                0x0000000087830494       0x10 drivers/built-in.o
                0x0000000087830494                mmc_set_rst_n_function
 .text.fsl_esdhc_get_cd
                0x00000000878304a4       0x6c drivers/built-in.o
 .text.fsl_esdhc_set_ios
                0x0000000087830510      0x170 drivers/built-in.o
 .text.fsl_esdhc_bind
                0x0000000087830680       0x20 drivers/built-in.o
 .text.check_and_invalidate_dcache_range.isra.3
                0x00000000878306a0       0x30 drivers/built-in.o
 .text.fsl_esdhc_send_cmd
                0x00000000878306d0      0x460 drivers/built-in.o
 .text.init_clk_usdhc
                0x0000000087830b30        0x4 drivers/built-in.o
                0x0000000087830b30                init_clk_usdhc
 .text.fsl_esdhc_probe
                0x0000000087830b34      0x4f0 drivers/built-in.o
 .text.video_drawchars
                0x0000000087831024      0x44c drivers/built-in.o
 .text.video_invertchar
                0x0000000087831470       0x74 drivers/built-in.o
 .text.console_cursor_fix
                0x00000000878314e4       0x88 drivers/built-in.o
 .text.console_cursor_set_position
                0x000000008783156c       0x2c drivers/built-in.o
 .text.console_swap_colors
                0x0000000087831598       0x34 drivers/built-in.o
 .text.draw_bitmap
                0x00000000878315cc       0xdc drivers/built-in.o
 .text.console_clear_line
                0x00000000878316a8       0xcc drivers/built-in.o
 .text.console_newline
                0x0000000087831774       0xc4 drivers/built-in.o
 .text.board_cfb_skip
                0x0000000087831838        0x8 drivers/built-in.o
                0x0000000087831838                board_cfb_skip
 .text.console_cursor
                0x0000000087831840       0xcc drivers/built-in.o
                0x0000000087831840                console_cursor
 .text.video_set_cursor
                0x000000008783190c       0x30 drivers/built-in.o
 .text.parse_putc
                0x000000008783193c      0x194 drivers/built-in.o
 .text.cfb_video_putc
                0x0000000087831ad0      0x4a0 drivers/built-in.o
 .text.cfb_video_puts
                0x0000000087831f70       0x7c drivers/built-in.o
 .text.video_set_lut
                0x0000000087831fec        0x4 drivers/built-in.o
                0x0000000087831fec                video_set_lut
 .text.display_rle8_bitmap
                0x0000000087831ff0      0x3b8 drivers/built-in.o
 .text.plot_logo_or_black
                0x00000000878323a8      0x258 drivers/built-in.o
 .text.do_clrlogo
                0x0000000087832600       0x44 drivers/built-in.o
 .text.video_display_bitmap
                0x0000000087832644      0x9c0 drivers/built-in.o
                0x0000000087832644                video_display_bitmap
 .text.video_clear
                0x0000000087833004       0x54 drivers/built-in.o
                0x0000000087833004                video_clear
 .text.drv_video_init
                0x0000000087833058      0x428 drivers/built-in.o
                0x0000000087833058                drv_video_init
 .text.mxsfb_system_setup
                0x0000000087833480        0x4 drivers/built-in.o
                0x0000000087833480                mxsfb_system_setup
 .text.mxs_lcd_panel_setup
                0x0000000087833484       0x78 drivers/built-in.o
                0x0000000087833484                mxs_lcd_panel_setup
 .text.lcdif_power_down
                0x00000000878334fc       0x84 drivers/built-in.o
                0x00000000878334fc                lcdif_power_down
 .text.video_hw_init
                0x0000000087833580      0x44c drivers/built-in.o
                0x0000000087833580                video_hw_init
 .text.video_get_param_len.constprop.1
                0x00000000878339cc       0x20 drivers/built-in.o
 .text.video_get_params
                0x00000000878339ec      0x4e0 drivers/built-in.o
                0x00000000878339ec                video_get_params
 .text.reset_cpu
                0x0000000087833ecc       0x38 drivers/built-in.o
                0x0000000087833ecc                reset_cpu
 .text.thermal_get_temp
                0x0000000087833f04       0x20 drivers/built-in.o
                0x0000000087833f04                thermal_get_temp
 .text.read_cpu_temperature
                0x0000000087833f24      0x14c drivers/built-in.o
 .text.imx_thermal_get_temp
                0x0000000087834070       0x64 drivers/built-in.o
                0x0000000087834070                imx_thermal_get_temp
 .text.imx_thermal_probe
                0x00000000878340d4       0xc8 drivers/built-in.o
 .text.mxs_dma_validate_chan
                0x000000008783419c       0x34 drivers/dma/built-in.o
                0x000000008783419c                mxs_dma_validate_chan
 .text.mxs_dma_ack_irq
                0x00000000878341d0       0x38 drivers/dma/built-in.o
 .text.mxs_dma_reset
                0x0000000087834208       0x34 drivers/dma/built-in.o
 .text.mxs_dma_flush_desc
                0x000000008783423c        0x8 drivers/dma/built-in.o
                0x000000008783423c                mxs_dma_flush_desc
 .text.mxs_dma_release
                0x0000000087834244       0x48 drivers/dma/built-in.o
                0x0000000087834244                mxs_dma_release
 .text.mxs_dma_desc_alloc
                0x000000008783428c       0x30 drivers/dma/built-in.o
                0x000000008783428c                mxs_dma_desc_alloc
 .text.mxs_dma_desc_free
                0x00000000878342bc        0xc drivers/dma/built-in.o
                0x00000000878342bc                mxs_dma_desc_free
 .text.mxs_dma_desc_append
                0x00000000878342c8       0xc8 drivers/dma/built-in.o
                0x00000000878342c8                mxs_dma_desc_append
 .text.mxs_dma_go
                0x0000000087834390      0x31c drivers/dma/built-in.o
                0x0000000087834390                mxs_dma_go
 .text.mxs_dma_init
                0x00000000878346ac       0x54 drivers/dma/built-in.o
                0x00000000878346ac                mxs_dma_init
 .text.mxs_dma_init_channel
                0x0000000087834700       0x80 drivers/dma/built-in.o
                0x0000000087834700                mxs_dma_init_channel
 .text.gpio_post_bind
                0x0000000087834780        0x8 drivers/gpio/built-in.o
 .text.get_function
                0x0000000087834788       0xac drivers/gpio/built-in.o
 .text.gpio_to_device
                0x0000000087834834       0x84 drivers/gpio/built-in.o
 .text.check_reserved
                0x00000000878348b8       0x74 drivers/gpio/built-in.o
 .text.gpio_renumber
                0x000000008783492c       0x84 drivers/gpio/built-in.o
 .text.gpio_pre_remove
                0x00000000878349b0       0x50 drivers/gpio/built-in.o
 .text.gpio_post_probe
                0x0000000087834a00       0x38 drivers/gpio/built-in.o
 .text.dm_gpio_lookup_name
                0x0000000087834a38      0x104 drivers/gpio/built-in.o
                0x0000000087834a38                dm_gpio_lookup_name
 .text.gpio_lookup_name
                0x0000000087834b3c       0x70 drivers/gpio/built-in.o
                0x0000000087834b3c                gpio_lookup_name
 .text.gpio_xlate_offs_flags
                0x0000000087834bac       0x48 drivers/gpio/built-in.o
                0x0000000087834bac                gpio_xlate_offs_flags
 .text.dm_gpio_request
                0x0000000087834bf4       0xa0 drivers/gpio/built-in.o
                0x0000000087834bf4                dm_gpio_request
 .text.dm_gpio_requestf
                0x0000000087834c94       0x44 drivers/gpio/built-in.o
 .text.gpio_request
                0x0000000087834cd8       0x2c drivers/gpio/built-in.o
                0x0000000087834cd8                gpio_request
 .text._dm_gpio_free
                0x0000000087834d04       0x74 drivers/gpio/built-in.o
                0x0000000087834d04                _dm_gpio_free
 .text.gpio_free
                0x0000000087834d78       0x28 drivers/gpio/built-in.o
                0x0000000087834d78                gpio_free
 .text.gpio_direction_input
                0x0000000087834da0       0x4c drivers/gpio/built-in.o
                0x0000000087834da0                gpio_direction_input
 .text.gpio_direction_output
                0x0000000087834dec       0x54 drivers/gpio/built-in.o
                0x0000000087834dec                gpio_direction_output
 .text.dm_gpio_get_value
                0x0000000087834e40       0x48 drivers/gpio/built-in.o
                0x0000000087834e40                dm_gpio_get_value
 .text.dm_gpio_set_value
                0x0000000087834e88       0x54 drivers/gpio/built-in.o
                0x0000000087834e88                dm_gpio_set_value
 .text.dm_gpio_set_dir_flags
                0x0000000087834edc       0x84 drivers/gpio/built-in.o
                0x0000000087834edc                dm_gpio_set_dir_flags
 .text.gpio_request_tail
                0x0000000087834f60       0xe8 drivers/gpio/built-in.o
 .text.gpio_get_value
                0x0000000087835048       0x24 drivers/gpio/built-in.o
                0x0000000087835048                gpio_get_value
 .text.gpio_get_bank_info
                0x000000008783506c       0x1c drivers/gpio/built-in.o
                0x000000008783506c                gpio_get_bank_info
 .text.gpio_get_function
                0x0000000087835088        0xc drivers/gpio/built-in.o
                0x0000000087835088                gpio_get_function
 .text.gpio_get_raw_function
                0x0000000087835094        0xc drivers/gpio/built-in.o
                0x0000000087835094                gpio_get_raw_function
 .text.gpio_get_status
                0x00000000878350a0      0x128 drivers/gpio/built-in.o
                0x00000000878350a0                gpio_get_status
 .text.gpio_request_by_name_nodev
                0x00000000878351c8       0x64 drivers/gpio/built-in.o
                0x00000000878351c8                gpio_request_by_name_nodev
 .text.gpio_request_by_name
                0x000000008783522c       0x68 drivers/gpio/built-in.o
                0x000000008783522c                gpio_request_by_name
 .text.dm_gpio_free
                0x0000000087835294       0x10 drivers/gpio/built-in.o
                0x0000000087835294                dm_gpio_free
 .text.gpio_free_list
                0x00000000878352a4       0x3c drivers/gpio/built-in.o
                0x00000000878352a4                gpio_free_list
 .text.gpio_free_list_nodev
                0x00000000878352e0       0x10 drivers/gpio/built-in.o
                0x00000000878352e0                gpio_free_list_nodev
 .text.gpio_request_list_by_name_nodev
                0x00000000878352f0       0xb0 drivers/gpio/built-in.o
                0x00000000878352f0                gpio_request_list_by_name_nodev
 .text.gpio_request_list_by_name
                0x00000000878353a0       0x1c drivers/gpio/built-in.o
                0x00000000878353a0                gpio_request_list_by_name
 .text.gen_74x164_direction_input
                0x00000000878353bc        0x8 drivers/gpio/built-in.o
 .text.gen_74x164_get_function
                0x00000000878353c4        0x8 drivers/gpio/built-in.o
 .text.gen_74x164_xlate
                0x00000000878353cc       0x24 drivers/gpio/built-in.o
 .text.gen_74x164_get_value
                0x00000000878353f0       0x30 drivers/gpio/built-in.o
 .text.gen_74x164_write_conf
                0x0000000087835420       0x58 drivers/gpio/built-in.o
 .text.gen_74x164_set_value
                0x0000000087835478       0x50 drivers/gpio/built-in.o
 .text.gen_74x164_direction_output
                0x00000000878354c8        0x4 drivers/gpio/built-in.o
 .text.gen_74x164_probe
                0x00000000878354cc      0x108 drivers/gpio/built-in.o
 .text.mxc_gpio_get_function
                0x00000000878355d4       0x2c drivers/gpio/built-in.o
 .text.mxc_gpio_get_value
                0x0000000087835600       0x24 drivers/gpio/built-in.o
 .text.mxc_gpio_direction_input
                0x0000000087835624       0x30 drivers/gpio/built-in.o
 .text.mxc_gpio_probe
                0x0000000087835654       0x74 drivers/gpio/built-in.o
 .text.mxc_gpio_bind
                0x00000000878356c8       0x60 drivers/gpio/built-in.o
 .text.mxc_gpio_direction_output
                0x0000000087835728       0x58 drivers/gpio/built-in.o
 .text.mxc_gpio_set_value
                0x0000000087835780       0x3c drivers/gpio/built-in.o
 .text.i2c_setup_offset
                0x00000000878357bc       0x5c drivers/i2c/built-in.o
 .text.i2c_probe_chip
                0x0000000087835818       0x84 drivers/i2c/built-in.o
 .text.i2c_uclass_init
                0x000000008783589c       0x34 drivers/i2c/built-in.o
                0x000000008783589c                i2c_uclass_init
 .text.i2c_post_bind
                0x00000000878358d0       0x34 drivers/i2c/built-in.o
 .text.dm_i2c_read
                0x0000000087835904      0x164 drivers/i2c/built-in.o
                0x0000000087835904                dm_i2c_read
 .text.dm_i2c_write
                0x0000000087835a68      0x1d0 drivers/i2c/built-in.o
                0x0000000087835a68                dm_i2c_write
 .text.i2c_get_chip
                0x0000000087835c38       0xec drivers/i2c/built-in.o
                0x0000000087835c38                i2c_get_chip
 .text.dm_i2c_probe
                0x0000000087835d24       0x3c drivers/i2c/built-in.o
                0x0000000087835d24                dm_i2c_probe
 .text.dm_i2c_set_bus_speed
                0x0000000087835d60       0x4c drivers/i2c/built-in.o
                0x0000000087835d60                dm_i2c_set_bus_speed
 .text.i2c_post_probe
                0x0000000087835dac       0x3c drivers/i2c/built-in.o
 .text.dm_i2c_get_bus_speed
                0x0000000087835de8       0x34 drivers/i2c/built-in.o
                0x0000000087835de8                dm_i2c_get_bus_speed
 .text.i2c_set_chip_flags
                0x0000000087835e1c       0x50 drivers/i2c/built-in.o
                0x0000000087835e1c                i2c_set_chip_flags
 .text.i2c_get_chip_flags
                0x0000000087835e6c       0x1c drivers/i2c/built-in.o
                0x0000000087835e6c                i2c_get_chip_flags
 .text.i2c_set_chip_offset_len
                0x0000000087835e88       0x20 drivers/i2c/built-in.o
                0x0000000087835e88                i2c_set_chip_offset_len
 .text.i2c_get_chip_offset_len
                0x0000000087835ea8       0x10 drivers/i2c/built-in.o
                0x0000000087835ea8                i2c_get_chip_offset_len
 .text.i2c_deblock
                0x0000000087835eb8      0x188 drivers/i2c/built-in.o
                0x0000000087835eb8                i2c_deblock
 .text.i2c_chip_ofdata_to_platdata
                0x0000000087836040       0x54 drivers/i2c/built-in.o
                0x0000000087836040                i2c_chip_ofdata_to_platdata
 .text.i2c_child_post_bind
                0x0000000087836094       0x30 drivers/i2c/built-in.o
 .text.wait_for_sr_state
                0x00000000878360c4      0x110 drivers/i2c/built-in.o
 .text.tx_byte  0x00000000878361d4       0x58 drivers/i2c/built-in.o
 .text.mxc_i2c_probe
                0x000000008783622c      0x12c drivers/i2c/built-in.o
 .text.i2c_imx_stop
                0x0000000087836358       0x58 drivers/i2c/built-in.o
 .text.mxc_i2c_set_bus_speed
                0x00000000878363b0       0xc4 drivers/i2c/built-in.o
 .text.__i2c_force_reset_slave
                0x0000000087836474        0x4 drivers/i2c/built-in.o
                0x0000000087836474                __i2c_force_reset_slave
                0x0000000087836474                i2c_force_reset_slave
 .text.i2c_idle_bus
                0x0000000087836478      0x144 drivers/i2c/built-in.o
                0x0000000087836478                i2c_idle_bus
 .text.i2c_init_transfer.constprop.5
                0x00000000878365bc      0x1f8 drivers/i2c/built-in.o
 .text.mxc_i2c_xfer
                0x00000000878367b4      0x25c drivers/i2c/built-in.o
 .text.mxc_i2c_probe_chip
                0x0000000087836a10       0x30 drivers/i2c/built-in.o
 .text.mtd_check_oob_ops
                0x0000000087836a40      0x168 drivers/mtd/built-in.o
 .text.idr_remove
                0x0000000087836ba8       0x1c drivers/mtd/built-in.o
                0x0000000087836ba8                idr_remove
 .text.idr_get_next
                0x0000000087836bc4       0x44 drivers/mtd/built-in.o
                0x0000000087836bc4                idr_get_next
 .text.__mtd_next_device
                0x0000000087836c08       0x20 drivers/mtd/built-in.o
                0x0000000087836c08                __mtd_next_device
 .text.mtd_dev_list_updated
                0x0000000087836c28       0x1c drivers/mtd/built-in.o
                0x0000000087836c28                mtd_dev_list_updated
 .text.del_mtd_device
                0x0000000087836c44       0x78 drivers/mtd/built-in.o
                0x0000000087836c44                del_mtd_device
 .text.__get_mtd_device
                0x0000000087836cbc       0x38 drivers/mtd/built-in.o
                0x0000000087836cbc                __get_mtd_device
 .text.get_mtd_device
                0x0000000087836cf4       0x8c drivers/mtd/built-in.o
                0x0000000087836cf4                get_mtd_device
 .text.get_mtd_device_nm
                0x0000000087836d80       0x58 drivers/mtd/built-in.o
                0x0000000087836d80                get_mtd_device_nm
 .text.__put_mtd_device
                0x0000000087836dd8       0x54 drivers/mtd/built-in.o
                0x0000000087836dd8                __put_mtd_device
 .text.put_mtd_device
                0x0000000087836e2c        0x4 drivers/mtd/built-in.o
                0x0000000087836e2c                put_mtd_device
 .text.mtd_erase
                0x0000000087836e30       0x84 drivers/mtd/built-in.o
                0x0000000087836e30                mtd_erase
 .text.mtd_read
                0x0000000087836eb4      0x118 drivers/mtd/built-in.o
                0x0000000087836eb4                mtd_read
 .text.mtd_write
                0x0000000087836fcc       0xec drivers/mtd/built-in.o
                0x0000000087836fcc                mtd_write
 .text.mtd_read_oob
                0x00000000878370b8       0xd0 drivers/mtd/built-in.o
                0x00000000878370b8                mtd_read_oob
 .text.mtd_write_oob
                0x0000000087837188       0xc0 drivers/mtd/built-in.o
                0x0000000087837188                mtd_write_oob
 .text.mtd_unlock
                0x0000000087837248       0x74 drivers/mtd/built-in.o
                0x0000000087837248                mtd_unlock
 .text.add_mtd_device
                0x00000000878372bc      0x1fc drivers/mtd/built-in.o
                0x00000000878372bc                add_mtd_device
 .text.mtd_block_isbad
                0x00000000878374b8       0x4c drivers/mtd/built-in.o
                0x00000000878374b8                mtd_block_isbad
 .text.mtd_block_markbad
                0x0000000087837504       0x60 drivers/mtd/built-in.o
                0x0000000087837504                mtd_block_markbad
 .text.get_mtdids
                0x0000000087837564       0x30 drivers/mtd/built-in.o
 .text.mtd_search_alternate_name
                0x0000000087837594       0xc8 drivers/mtd/built-in.o
                0x0000000087837594                mtd_search_alternate_name
 .text.mtd_probe_devices
                0x000000008783765c      0x418 drivers/mtd/built-in.o
                0x000000008783765c                mtd_probe_devices
 .text.mtd_arg_off
                0x0000000087837a74       0xf0 drivers/mtd/built-in.o
                0x0000000087837a74                mtd_arg_off
 .text.mtd_arg_off_size
                0x0000000087837b64      0x11c drivers/mtd/built-in.o
                0x0000000087837b64                mtd_arg_off_size
 .text.mtd_probe
                0x0000000087837c80       0x18 drivers/mtd/built-in.o
                0x0000000087837c80                mtd_probe
 .text.part_get_unmapped_area
                0x0000000087837c98       0x20 drivers/mtd/built-in.o
 .text.part_read_user_prot_reg
                0x0000000087837cb8        0xc drivers/mtd/built-in.o
 .text.part_get_user_prot_info
                0x0000000087837cc4        0xc drivers/mtd/built-in.o
 .text.part_read_fact_prot_reg
                0x0000000087837cd0        0xc drivers/mtd/built-in.o
 .text.part_get_fact_prot_info
                0x0000000087837cdc        0xc drivers/mtd/built-in.o
 .text.part_write
                0x0000000087837ce8       0x24 drivers/mtd/built-in.o
 .text.part_panic_write
                0x0000000087837d0c       0x24 drivers/mtd/built-in.o
 .text.part_write_oob
                0x0000000087837d30       0x68 drivers/mtd/built-in.o
 .text.part_write_user_prot_reg
                0x0000000087837d98        0xc drivers/mtd/built-in.o
 .text.part_lock_user_prot_reg
                0x0000000087837da4        0xc drivers/mtd/built-in.o
 .text.part_lock
                0x0000000087837db0       0x24 drivers/mtd/built-in.o
 .text.part_unlock
                0x0000000087837dd4       0x24 drivers/mtd/built-in.o
 .text.part_is_locked
                0x0000000087837df8       0x24 drivers/mtd/built-in.o
 .text.part_sync
                0x0000000087837e1c        0xc drivers/mtd/built-in.o
 .text.part_block_isreserved
                0x0000000087837e28       0x20 drivers/mtd/built-in.o
 .text.part_block_isbad
                0x0000000087837e48       0x20 drivers/mtd/built-in.o
 .text.part_block_markbad
                0x0000000087837e68       0x34 drivers/mtd/built-in.o
 .text.part_read
                0x0000000087837e9c       0x78 drivers/mtd/built-in.o
 .text.part_read_oob
                0x0000000087837f14      0x198 drivers/mtd/built-in.o
 .text.mtd_parse_partition
                0x00000000878380ac      0x220 drivers/mtd/built-in.o
 .text.part_erase
                0x00000000878382cc       0x74 drivers/mtd/built-in.o
 .text.kstrdup  0x0000000087838340       0x50 drivers/mtd/built-in.o
                0x0000000087838340                kstrdup
 .text.mtd_partitions_used
                0x0000000087838390       0x38 drivers/mtd/built-in.o
                0x0000000087838390                mtd_partitions_used
 .text.mtd_parse_partitions
                0x00000000878383c8      0x20c drivers/mtd/built-in.o
                0x00000000878383c8                mtd_parse_partitions
 .text.mtd_free_parsed_partitions
                0x00000000878385d4       0x34 drivers/mtd/built-in.o
                0x00000000878385d4                mtd_free_parsed_partitions
 .text.mtd_erase_callback
                0x0000000087838608       0x6c drivers/mtd/built-in.o
                0x0000000087838608                mtd_erase_callback
 .text.del_mtd_partitions
                0x0000000087838674       0xb4 drivers/mtd/built-in.o
                0x0000000087838674                del_mtd_partitions
 .text.add_mtd_partitions
                0x0000000087838728      0x6e0 drivers/mtd/built-in.o
                0x0000000087838728                add_mtd_partitions
 .text.mtd_get_device_size
                0x0000000087838e08       0x1c drivers/mtd/built-in.o
                0x0000000087838e08                mtd_get_device_size
 .text.get_nand_dev_by_index
                0x0000000087838e24       0x34 drivers/mtd/nand/raw/built-in.o
                0x0000000087838e24                get_nand_dev_by_index
 .text.nand_register
                0x0000000087838e58       0x94 drivers/mtd/nand/raw/built-in.o
                0x0000000087838e58                nand_register
 .text.nand_size
                0x0000000087838eec       0x10 drivers/mtd/nand/raw/built-in.o
                0x0000000087838eec                nand_size
 .text.nand_init
                0x0000000087838efc       0x20 drivers/mtd/nand/raw/built-in.o
                0x0000000087838efc                nand_init
 .text.verify_bbt_descr
                0x0000000087838f1c      0x1b0 drivers/mtd/nand/raw/built-in.o
 .text.create_bbt
                0x00000000878390cc      0x218 drivers/mtd/nand/raw/built-in.o
 .text.scan_read
                0x00000000878392e4      0x100 drivers/mtd/nand/raw/built-in.o
 .text.read_bbt
                0x00000000878393e4      0x1dc drivers/mtd/nand/raw/built-in.o
 .text.write_bbt
                0x00000000878395c0      0x594 drivers/mtd/nand/raw/built-in.o
 .text.nand_update_bbt
                0x0000000087839b54      0x11c drivers/mtd/nand/raw/built-in.o
 .text.mark_bbt_region
                0x0000000087839c70      0x16c drivers/mtd/nand/raw/built-in.o
 .text.search_bbt
                0x0000000087839ddc      0x198 drivers/mtd/nand/raw/built-in.o
 .text.read_abs_bbt
                0x0000000087839f74       0xcc drivers/mtd/nand/raw/built-in.o
 .text.nand_default_bbt
                0x000000008783a040      0x5b8 drivers/mtd/nand/raw/built-in.o
                0x000000008783a040                nand_default_bbt
 .text.nand_isreserved_bbt
                0x000000008783a5f8       0x44 drivers/mtd/nand/raw/built-in.o
                0x000000008783a5f8                nand_isreserved_bbt
 .text.nand_isbad_bbt
                0x000000008783a63c       0x4c drivers/mtd/nand/raw/built-in.o
                0x000000008783a63c                nand_isbad_bbt
 .text.nand_markbad_bbt
                0x000000008783a688       0x5c drivers/mtd/nand/raw/built-in.o
                0x000000008783a688                nand_markbad_bbt
 .text.check_skip_len
                0x000000008783a6e4       0xac drivers/mtd/nand/raw/built-in.o
 .text.nand_erase_opts
                0x000000008783a790      0x324 drivers/mtd/nand/raw/built-in.o
                0x000000008783a790                nand_erase_opts
 .text.nand_verify_page_oob
                0x000000008783aab4       0xc0 drivers/mtd/nand/raw/built-in.o
                0x000000008783aab4                nand_verify_page_oob
 .text.nand_verify
                0x000000008783ab74       0xec drivers/mtd/nand/raw/built-in.o
                0x000000008783ab74                nand_verify
 .text.nand_write_skip_bad
                0x000000008783ac60      0x2b0 drivers/mtd/nand/raw/built-in.o
                0x000000008783ac60                nand_write_skip_bad
 .text.nand_read_skip_bad
                0x000000008783af10      0x264 drivers/mtd/nand/raw/built-in.o
                0x000000008783af10                nand_read_skip_bad
 .text.nand_calculate_ecc
                0x000000008783b174       0xf4 drivers/mtd/nand/raw/built-in.o
                0x000000008783b174                nand_calculate_ecc
 .text.nand_correct_data
                0x000000008783b268      0x120 drivers/mtd/nand/raw/built-in.o
                0x000000008783b268                nand_correct_data
 .text.nand_release_device
                0x000000008783b388        0xc drivers/mtd/nand/raw/built-in.o
 .text.nand_read_byte
                0x000000008783b394       0x14 drivers/mtd/nand/raw/built-in.o
                0x000000008783b394                nand_read_byte
 .text.nand_read_byte16
                0x000000008783b3a8       0x18 drivers/mtd/nand/raw/built-in.o
 .text.nand_read_word
                0x000000008783b3c0       0x14 drivers/mtd/nand/raw/built-in.o
 .text.nand_write_byte
                0x000000008783b3d4       0x24 drivers/mtd/nand/raw/built-in.o
 .text.nand_write_byte16
                0x000000008783b3f8       0x24 drivers/mtd/nand/raw/built-in.o
 .text.nand_write_buf
                0x000000008783b41c       0x28 drivers/mtd/nand/raw/built-in.o
                0x000000008783b41c                nand_write_buf
 .text.nand_read_buf
                0x000000008783b444       0x2c drivers/mtd/nand/raw/built-in.o
                0x000000008783b444                nand_read_buf
 .text.nand_write_buf16
                0x000000008783b470       0x30 drivers/mtd/nand/raw/built-in.o
                0x000000008783b470                nand_write_buf16
 .text.nand_read_buf16
                0x000000008783b4a0       0x34 drivers/mtd/nand/raw/built-in.o
                0x000000008783b4a0                nand_read_buf16
 .text.nand_setup_data_interface
                0x000000008783b4d4       0x80 drivers/mtd/nand/raw/built-in.o
 .text.nand_read_page_raw_syndrome
                0x000000008783b554       0xd4 drivers/mtd/nand/raw/built-in.o
 .text.nand_read_page_swecc
                0x000000008783b628      0x138 drivers/mtd/nand/raw/built-in.o
 .text.nand_read_oob_std
                0x000000008783b760       0x3c drivers/mtd/nand/raw/built-in.o
 .text.nand_read_oob_syndrome
                0x000000008783b79c      0x100 drivers/mtd/nand/raw/built-in.o
 .text.nand_write_oob_std
                0x000000008783b89c       0x70 drivers/mtd/nand/raw/built-in.o
 .text.nand_write_oob_syndrome
                0x000000008783b90c      0x198 drivers/mtd/nand/raw/built-in.o
 .text.nand_write_page_raw_syndrome
                0x000000008783baa4       0xd4 drivers/mtd/nand/raw/built-in.o
 .text.nand_write_page_swecc
                0x000000008783bb78       0xc8 drivers/mtd/nand/raw/built-in.o
 .text.nand_write_page_hwecc
                0x000000008783bc40       0xd0 drivers/mtd/nand/raw/built-in.o
 .text.nand_write_page_syndrome
                0x000000008783bd10       0xf8 drivers/mtd/nand/raw/built-in.o
 .text.single_erase
                0x000000008783be08       0x48 drivers/mtd/nand/raw/built-in.o
 .text.nand_sync
                0x000000008783be50        0xc drivers/mtd/nand/raw/built-in.o
 .text.nand_set_defaults
                0x000000008783be5c      0x19c drivers/mtd/nand/raw/built-in.o
 .text.nand_setup_read_retry_micron
                0x000000008783bff8       0x2c drivers/mtd/nand/raw/built-in.o
 .text.nand_write_subpage_hwecc
                0x000000008783c024      0x18c drivers/mtd/nand/raw/built-in.o
 .text.nand_check_erased_buf
                0x000000008783c1b0      0x154 drivers/mtd/nand/raw/built-in.o
 .text.nand_block_bad
                0x000000008783c304      0x148 drivers/mtd/nand/raw/built-in.o
 .text.nand_write_page
                0x000000008783c44c      0x128 drivers/mtd/nand/raw/built-in.o
 .text.nand_wait
                0x000000008783c574       0xc0 drivers/mtd/nand/raw/built-in.o
 .text.unlikely.sanitize_string
                0x000000008783c634       0x38 drivers/mtd/nand/raw/built-in.o
 .text.nand_block_isreserved
                0x000000008783c66c       0x18 drivers/mtd/nand/raw/built-in.o
 .text.nand_check_wp
                0x000000008783c684       0x4c drivers/mtd/nand/raw/built-in.o
 .text.nand_read_page_raw
                0x000000008783c6d0       0x44 drivers/mtd/nand/raw/built-in.o
 .text.nand_write_page_raw
                0x000000008783c714       0x44 drivers/mtd/nand/raw/built-in.o
 .text.nand_onfi_set_features
                0x000000008783c758       0x84 drivers/mtd/nand/raw/built-in.o
 .text.nand_onfi_get_features
                0x000000008783c7dc       0x6c drivers/mtd/nand/raw/built-in.o
 .text.nand_block_checkbad
                0x000000008783c848       0x78 drivers/mtd/nand/raw/built-in.o
 .text.nand_block_isbad
                0x000000008783c8c0       0x78 drivers/mtd/nand/raw/built-in.o
 .text.nand_fill_oob
                0x000000008783c938      0x114 drivers/mtd/nand/raw/built-in.o
 .text.nand_do_write_ops
                0x000000008783ca4c      0x324 drivers/mtd/nand/raw/built-in.o
 .text.nand_select_chip
                0x000000008783cd70       0x4c drivers/mtd/nand/raw/built-in.o
 .text.nand_transfer_oob
                0x000000008783cdbc      0x100 drivers/mtd/nand/raw/built-in.o
 .text.onfi_crc16.constprop.22
                0x000000008783cebc       0x50 drivers/mtd/nand/raw/built-in.o
 .text.panic_nand_write
                0x000000008783cf0c       0xc0 drivers/mtd/nand/raw/built-in.o
 .text.nand_wait_status_ready.constprop.24
                0x000000008783cfcc       0x40 drivers/mtd/nand/raw/built-in.o
 .text.nand_wait_ready
                0x000000008783d00c       0x50 drivers/mtd/nand/raw/built-in.o
                0x000000008783d00c                nand_wait_ready
 .text.nand_command_lp
                0x000000008783d05c      0x25c drivers/mtd/nand/raw/built-in.o
 .text.nand_command
                0x000000008783d2b8      0x1e8 drivers/mtd/nand/raw/built-in.o
 .text.nand_read_oob
                0x000000008783d4a0      0x740 drivers/mtd/nand/raw/built-in.o
 .text.nand_reset
                0x000000008783dbe0       0xb8 drivers/mtd/nand/raw/built-in.o
                0x000000008783dbe0                nand_reset
 .text.nand_do_write_oob
                0x000000008783dc98      0x1b0 drivers/mtd/nand/raw/built-in.o
 .text.nand_default_block_markbad
                0x000000008783de48       0xd8 drivers/mtd/nand/raw/built-in.o
 .text.nand_write_oob
                0x000000008783df20       0xa0 drivers/mtd/nand/raw/built-in.o
 .text.nand_check_erased_ecc_chunk
                0x000000008783dfc0       0xc8 drivers/mtd/nand/raw/built-in.o
                0x000000008783dfc0                nand_check_erased_ecc_chunk
 .text.nand_read_page_syndrome
                0x000000008783e088      0x1ac drivers/mtd/nand/raw/built-in.o
 .text.nand_read_subpage
                0x000000008783e234      0x2bc drivers/mtd/nand/raw/built-in.o
 .text.nand_read_page_hwecc
                0x000000008783e4f0      0x1a0 drivers/mtd/nand/raw/built-in.o
 .text.nand_read_page_hwecc_oob_first
                0x000000008783e690      0x1a4 drivers/mtd/nand/raw/built-in.o
 .text.nand_erase_nand
                0x000000008783e834      0x23c drivers/mtd/nand/raw/built-in.o
                0x000000008783e834                nand_erase_nand
 .text.nand_block_markbad
                0x000000008783ea70       0xdc drivers/mtd/nand/raw/built-in.o
 .text.nand_erase
                0x000000008783eb4c        0x8 drivers/mtd/nand/raw/built-in.o
 .text.check_mmc_num
                0x000000008783eb54       0x1c drivers/mtd/nand/raw/built-in.o
                0x000000008783eb54                check_mmc_num
 .text.nand_get_flash_type
                0x000000008783eb70     0x1024 drivers/mtd/nand/raw/built-in.o
                0x000000008783eb70                nand_get_flash_type
 .text.nand_scan_ident
                0x000000008783fb94      0x40c drivers/mtd/nand/raw/built-in.o
                0x000000008783fb94                nand_scan_ident
 .text.nand_scan_tail
                0x000000008783ffa0      0x618 drivers/mtd/nand/raw/built-in.o
                0x000000008783ffa0                nand_scan_tail
 .text.onfi_init_data_interface
                0x00000000878405b8       0xc4 drivers/mtd/nand/raw/built-in.o
                0x00000000878405b8                onfi_init_data_interface
 .text.nand_get_default_data_interface
                0x000000008784067c        0xc drivers/mtd/nand/raw/built-in.o
                0x000000008784067c                nand_get_default_data_interface
 .text.mxs_nand_device_ready
                0x0000000087840688       0x24 drivers/mtd/nand/raw/built-in.o
 .text.mxs_nand_select_chip
                0x00000000878406ac        0xc drivers/mtd/nand/raw/built-in.o
 .text.mxs_nand_swap_block_mark
                0x00000000878406b8       0x58 drivers/mtd/nand/raw/built-in.o
 .text.mxs_nand_hook_read_oob
                0x0000000087840710       0x4c drivers/mtd/nand/raw/built-in.o
 .text.mxs_nand_hook_write_oob
                0x000000008784075c       0x4c drivers/mtd/nand/raw/built-in.o
 .text.mxs_nand_hook_block_markbad
                0x00000000878407a8       0x24 drivers/mtd/nand/raw/built-in.o
 .text.mxs_nand_block_bad
                0x00000000878407cc        0x8 drivers/mtd/nand/raw/built-in.o
 .text.mxs_nand_get_dma_desc
                0x00000000878407d4       0x3c drivers/mtd/nand/raw/built-in.o
 .text.mxs_nand_ecc_write_oob
                0x0000000087840810       0x98 drivers/mtd/nand/raw/built-in.o
 .text.mxs_nand_return_dma_descs
                0x00000000878408a8       0x48 drivers/mtd/nand/raw/built-in.o
 .text.mxs_nand_inval_data_buf
                0x00000000878408f0       0x14 drivers/mtd/nand/raw/built-in.o
 .text.mxs_nand_read_buf
                0x0000000087840904       0xf4 drivers/mtd/nand/raw/built-in.o
 .text.mxs_nand_read_byte
                0x00000000878409f8       0x1c drivers/mtd/nand/raw/built-in.o
 .text.mxs_nand_init_dma
                0x0000000087840a14      0x124 drivers/mtd/nand/raw/built-in.o
 .text.mxs_nand_ecc_read_page
                0x0000000087840b38      0x4a8 drivers/mtd/nand/raw/built-in.o
 .text.mxs_nand_ecc_read_oob
                0x0000000087840fe0       0x8c drivers/mtd/nand/raw/built-in.o
 .text.mxs_nand_cmd_ctrl
                0x000000008784106c       0xd0 drivers/mtd/nand/raw/built-in.o
 .text.mxs_nand_write_buf
                0x000000008784113c       0xb4 drivers/mtd/nand/raw/built-in.o
 .text.mxs_nand_ecc_write_page
                0x00000000878411f0      0x110 drivers/mtd/nand/raw/built-in.o
 .text.mxs_nand_setup_ecc
                0x0000000087841300      0x4a0 drivers/mtd/nand/raw/built-in.o
                0x0000000087841300                mxs_nand_setup_ecc
 .text.mxs_nand_alloc_buffers
                0x00000000878417a0       0x90 drivers/mtd/nand/raw/built-in.o
                0x00000000878417a0                mxs_nand_alloc_buffers
 .text.mxs_nand_init_ctrl
                0x0000000087841830      0x164 drivers/mtd/nand/raw/built-in.o
                0x0000000087841830                mxs_nand_init_ctrl
 .text.mxs_nand_dt_probe
                0x0000000087841994       0xac drivers/mtd/nand/raw/built-in.o
 .text.board_nand_init
                0x0000000087841a40       0x3c drivers/mtd/nand/raw/built-in.o
                0x0000000087841a40                board_nand_init
 .text.spi_flash_post_bind
                0x0000000087841a7c        0x8 drivers/mtd/spi/built-in.o
 .text.spi_flash_read_dm
                0x0000000087841a84       0x10 drivers/mtd/spi/built-in.o
                0x0000000087841a84                spi_flash_read_dm
 .text.spi_flash_write_dm
                0x0000000087841a94       0x10 drivers/mtd/spi/built-in.o
                0x0000000087841a94                spi_flash_write_dm
 .text.spi_flash_erase_dm
                0x0000000087841aa4       0x10 drivers/mtd/spi/built-in.o
                0x0000000087841aa4                spi_flash_erase_dm
 .text.spi_flash_probe_bus_cs
                0x0000000087841ab4       0x88 drivers/mtd/spi/built-in.o
                0x0000000087841ab4                spi_flash_probe_bus_cs
 .text.spi_flash_std_remove
                0x0000000087841b3c        0x8 drivers/mtd/spi/built-in.o
 .text.spi_flash_std_write
                0x0000000087841b44       0x40 drivers/mtd/spi/built-in.o
 .text.spi_flash_std_read
                0x0000000087841b84       0x40 drivers/mtd/spi/built-in.o
 .text.spi_flash_std_get_sw_write_prot
                0x0000000087841bc4       0x10 drivers/mtd/spi/built-in.o
 .text.spi_flash_std_erase
                0x0000000087841bd4       0x8c drivers/mtd/spi/built-in.o
 .text.spi_flash_std_probe
                0x0000000087841c60       0x74 drivers/mtd/spi/built-in.o
 .text.read_sr  0x0000000087841cd4       0x28 drivers/mtd/spi/built-in.o
 .text.write_enable
                0x0000000087841cfc       0x14 drivers/mtd/spi/built-in.o
 .text.write_disable
                0x0000000087841d10       0x14 drivers/mtd/spi/built-in.o
 .text.clean_bar
                0x0000000087841d24       0x4c drivers/mtd/spi/built-in.o
 .text.write_bar
                0x0000000087841d70       0x5c drivers/mtd/spi/built-in.o
 .text.spi_nor_read
                0x0000000087841dcc       0xa8 drivers/mtd/spi/built-in.o
 .text.spi_nor_write_data
                0x0000000087841e74       0xe4 drivers/mtd/spi/built-in.o
 .text.spi_nor_read_data
                0x0000000087841f58       0xcc drivers/mtd/spi/built-in.o
 .text.stm_check_lock_status_sr.part.3
                0x0000000087842024      0x104 drivers/mtd/spi/built-in.o
 .text.spi_nor_wait_till_ready_with_timeout.constprop.8
                0x0000000087842128       0xf8 drivers/mtd/spi/built-in.o
 .text.spi_nor_read_reg
                0x0000000087842220       0x54 drivers/mtd/spi/built-in.o
 .text.spi_nor_write_reg
                0x0000000087842274       0x58 drivers/mtd/spi/built-in.o
 .text.spi_nor_erase
                0x00000000878422cc      0x148 drivers/mtd/spi/built-in.o
 .text.stm_is_locked
                0x0000000087842414       0x58 drivers/mtd/spi/built-in.o
 .text.spi_nor_write
                0x000000008784246c      0x188 drivers/mtd/spi/built-in.o
 .text.write_sr_and_check.constprop.7
                0x00000000878425f4       0x6c drivers/mtd/spi/built-in.o
 .text.stm_lock
                0x0000000087842660      0x2e0 drivers/mtd/spi/built-in.o
 .text.stm_unlock
                0x0000000087842940      0x298 drivers/mtd/spi/built-in.o
 .text.spi_nor_scan
                0x0000000087842bd8      0x818 drivers/mtd/spi/built-in.o
                0x0000000087842bd8                spi_nor_scan
 .text.spi_flash_cmd_get_sw_write_prot
                0x00000000878433f0       0x14 drivers/mtd/spi/built-in.o
                0x00000000878433f0                spi_flash_cmd_get_sw_write_prot
 .text.destroy_ai
                0x0000000087843404      0x210 drivers/mtd/ubi/built-in.o
 .text.add_to_list
                0x0000000087843614       0xe0 drivers/mtd/ubi/built-in.o
 .text.validate_vid_hdr.isra.6
                0x00000000878436f4      0x140 drivers/mtd/ubi/built-in.o
 .text.ubi_compare_lebs
                0x0000000087843834      0x254 drivers/mtd/ubi/built-in.o
                0x0000000087843834                ubi_compare_lebs
 .text.ubi_add_to_av
                0x0000000087843a88      0x488 drivers/mtd/ubi/built-in.o
                0x0000000087843a88                ubi_add_to_av
 .text.ubi_find_av
                0x0000000087843f10       0x34 drivers/mtd/ubi/built-in.o
                0x0000000087843f10                ubi_find_av
 .text.ubi_remove_av
                0x0000000087843f44       0x68 drivers/mtd/ubi/built-in.o
                0x0000000087843f44                ubi_remove_av
 .text.ubi_early_get_peb
                0x0000000087843fac      0x1c8 drivers/mtd/ubi/built-in.o
                0x0000000087843fac                ubi_early_get_peb
 .text.ubi_attach
                0x0000000087844174     0x131c drivers/mtd/ubi/built-in.o
                0x0000000087844174                ubi_attach
 .text.kill_volumes
                0x0000000087845490       0x3c drivers/mtd/ubi/built-in.o
 .text.ubi_volume_notify
                0x00000000878454cc       0x34 drivers/mtd/ubi/built-in.o
                0x00000000878454cc                ubi_volume_notify
 .text.ubi_notify_all
                0x0000000087845500       0x5c drivers/mtd/ubi/built-in.o
                0x0000000087845500                ubi_notify_all
 .text.ubi_get_device
                0x000000008784555c       0x60 drivers/mtd/ubi/built-in.o
                0x000000008784555c                ubi_get_device
 .text.ubi_put_device
                0x00000000878455bc       0x10 drivers/mtd/ubi/built-in.o
                0x00000000878455bc                ubi_put_device
 .text.ubi_free_internal_volumes
                0x00000000878455cc       0x40 drivers/mtd/ubi/built-in.o
                0x00000000878455cc                ubi_free_internal_volumes
 .text.ubi_attach_mtd_dev
                0x000000008784560c      0x9c4 drivers/mtd/ubi/built-in.o
                0x000000008784560c                ubi_attach_mtd_dev
 .text.ubi_detach_mtd_dev
                0x0000000087845fd0      0x134 drivers/mtd/ubi/built-in.o
                0x0000000087845fd0                ubi_detach_mtd_dev
 .text.ubi_init
                0x0000000087846104      0x190 drivers/mtd/ubi/built-in.o
                0x0000000087846104                ubi_init
 .text.ubi_exit
                0x0000000087846294       0x5c drivers/mtd/ubi/built-in.o
                0x0000000087846294                ubi_exit
 .text.kstrtoint
                0x00000000878462f0       0x24 drivers/mtd/ubi/built-in.o
                0x00000000878462f0                kstrtoint
 .text.ubi_mtd_param_parse
                0x0000000087846314      0x23c drivers/mtd/ubi/built-in.o
                0x0000000087846314                ubi_mtd_param_parse
 .text.ubi_update_layout_vol
                0x0000000087846550       0x50 drivers/mtd/ubi/built-in.o
 .text.vtbl_check
                0x00000000878465a0      0x3a0 drivers/mtd/ubi/built-in.o
 .text.create_vtbl
                0x0000000087846940      0x1fc drivers/mtd/ubi/built-in.o
 .text.ubi_change_vtbl_record
                0x0000000087846b3c      0x110 drivers/mtd/ubi/built-in.o
                0x0000000087846b3c                ubi_change_vtbl_record
 .text.ubi_read_volume_table
                0x0000000087846c4c      0x8e8 drivers/mtd/ubi/built-in.o
                0x0000000087846c4c                ubi_read_volume_table
 .text.vol_release
                0x0000000087847534       0x1c drivers/mtd/ubi/built-in.o
 .text.self_check_volumes
                0x0000000087847550      0x4b0 drivers/mtd/ubi/built-in.o
 .text.ubi_create_volume
                0x0000000087847a00      0x524 drivers/mtd/ubi/built-in.o
                0x0000000087847a00                ubi_create_volume
 .text.ubi_resize_volume
                0x0000000087847f24      0x294 drivers/mtd/ubi/built-in.o
                0x0000000087847f24                ubi_resize_volume
 .text.ubi_add_volume
                0x00000000878481b8       0x30 drivers/mtd/ubi/built-in.o
                0x00000000878481b8                ubi_add_volume
 .text.ubi_free_volume
                0x00000000878481e8       0x18 drivers/mtd/ubi/built-in.o
                0x00000000878481e8                ubi_free_volume
 .text.clear_update_marker
                0x0000000087848200      0x124 drivers/mtd/ubi/built-in.o
 .text.write_leb
                0x0000000087848324       0xb8 drivers/mtd/ubi/built-in.o
 .text.ubi_start_update
                0x00000000878483dc      0x1ec drivers/mtd/ubi/built-in.o
                0x00000000878483dc                ubi_start_update
 .text.ubi_more_update_data
                0x00000000878485c8      0x2dc drivers/mtd/ubi/built-in.o
                0x00000000878485c8                ubi_more_update_data
 .text.ubi_do_get_device_info
                0x00000000878488a4       0x34 drivers/mtd/ubi/built-in.o
                0x00000000878488a4                ubi_do_get_device_info
 .text.ubi_get_device_info
                0x00000000878488d8       0x44 drivers/mtd/ubi/built-in.o
                0x00000000878488d8                ubi_get_device_info
 .text.ubi_do_get_volume_info
                0x000000008784891c       0x70 drivers/mtd/ubi/built-in.o
                0x000000008784891c                ubi_do_get_volume_info
 .text.ubi_get_volume_info
                0x000000008784898c       0x14 drivers/mtd/ubi/built-in.o
                0x000000008784898c                ubi_get_volume_info
 .text.ubi_close_volume
                0x00000000878489a0       0x80 drivers/mtd/ubi/built-in.o
                0x00000000878489a0                ubi_close_volume
 .text.ubi_open_volume
                0x0000000087848a20      0x1e8 drivers/mtd/ubi/built-in.o
                0x0000000087848a20                ubi_open_volume
 .text.ubi_open_volume_nm
                0x0000000087848c08       0xdc drivers/mtd/ubi/built-in.o
                0x0000000087848c08                ubi_open_volume_nm
 .text.ubi_leb_read
                0x0000000087848ce4       0xf8 drivers/mtd/ubi/built-in.o
                0x0000000087848ce4                ubi_leb_read
 .text.ubi_leb_unmap
                0x0000000087848ddc       0x68 drivers/mtd/ubi/built-in.o
                0x0000000087848ddc                ubi_leb_unmap
 .text.ubi_is_mapped
                0x0000000087848e44       0x48 drivers/mtd/ubi/built-in.o
                0x0000000087848e44                ubi_is_mapped
 .text.ltree_lookup.isra.5
                0x0000000087848e8c       0x3c drivers/mtd/ubi/built-in.o
 .text.ltree_add_entry
                0x0000000087848ec8      0x114 drivers/mtd/ubi/built-in.o
 .text.leb_write_unlock
                0x0000000087848fdc       0x74 drivers/mtd/ubi/built-in.o
 .text.leb_read_unlock
                0x0000000087849050       0x74 drivers/mtd/ubi/built-in.o
 .text.is_error_sane
                0x00000000878490c4       0x30 drivers/mtd/ubi/built-in.o
 .text.ubi_eba_unmap_leb
                0x00000000878490f4       0x8c drivers/mtd/ubi/built-in.o
                0x00000000878490f4                ubi_eba_unmap_leb
 .text.ubi_eba_read_leb
                0x0000000087849180      0x328 drivers/mtd/ubi/built-in.o
                0x0000000087849180                ubi_eba_read_leb
 .text.ubi_eba_write_leb
                0x00000000878494a8      0x684 drivers/mtd/ubi/built-in.o
                0x00000000878494a8                ubi_eba_write_leb
 .text.ubi_eba_write_leb_st
                0x0000000087849b2c      0x430 drivers/mtd/ubi/built-in.o
                0x0000000087849b2c                ubi_eba_write_leb_st
 .text.ubi_eba_atomic_leb_change
                0x0000000087849f5c      0x354 drivers/mtd/ubi/built-in.o
                0x0000000087849f5c                ubi_eba_atomic_leb_change
 .text.ubi_eba_copy_leb
                0x000000008784a2b0      0x3bc drivers/mtd/ubi/built-in.o
                0x000000008784a2b0                ubi_eba_copy_leb
 .text.ubi_eba_init
                0x000000008784a66c      0x250 drivers/mtd/ubi/built-in.o
                0x000000008784a66c                ubi_eba_init
 .text.erase_callback
                0x000000008784a8bc        0x4 drivers/mtd/ubi/built-in.o
 .text.validate_ec_hdr
                0x000000008784a8c0      0x15c drivers/mtd/ubi/built-in.o
 .text.validate_vid_hdr
                0x000000008784aa1c      0x308 drivers/mtd/ubi/built-in.o
 .text.self_check_ec_hdr.part.1
                0x000000008784ad24       0x9c drivers/mtd/ubi/built-in.o
 .text.self_check_vid_hdr.part.2
                0x000000008784adc0       0xb8 drivers/mtd/ubi/built-in.o
 .text.ubi_io_is_bad
                0x000000008784ae78       0x94 drivers/mtd/ubi/built-in.o
                0x000000008784ae78                ubi_io_is_bad
 .text.self_check_not_bad.part.3
                0x000000008784af0c       0x4c drivers/mtd/ubi/built-in.o
 .text.ubi_io_read
                0x000000008784af58      0x248 drivers/mtd/ubi/built-in.o
                0x000000008784af58                ubi_io_read
 .text.self_check_peb_ec_hdr.part.4
                0x000000008784b1a0      0x11c drivers/mtd/ubi/built-in.o
 .text.ubi_io_mark_bad
                0x000000008784b2bc       0xc0 drivers/mtd/ubi/built-in.o
                0x000000008784b2bc                ubi_io_mark_bad
 .text.ubi_io_read_ec_hdr
                0x000000008784b37c      0x1ac drivers/mtd/ubi/built-in.o
                0x000000008784b37c                ubi_io_read_ec_hdr
 .text.ubi_io_read_vid_hdr
                0x000000008784b528      0x1b0 drivers/mtd/ubi/built-in.o
                0x000000008784b528                ubi_io_read_vid_hdr
 .text.ubi_self_check_all_ff
                0x000000008784b6d8      0x180 drivers/mtd/ubi/built-in.o
                0x000000008784b6d8                ubi_self_check_all_ff
 .text.ubi_io_write
                0x000000008784b858      0x580 drivers/mtd/ubi/built-in.o
                0x000000008784b858                ubi_io_write
 .text.ubi_io_write_ec_hdr
                0x000000008784bdd8      0x170 drivers/mtd/ubi/built-in.o
                0x000000008784bdd8                ubi_io_write_ec_hdr
 .text.ubi_io_write_vid_hdr
                0x000000008784bf48      0x130 drivers/mtd/ubi/built-in.o
                0x000000008784bf48                ubi_io_write_vid_hdr
 .text.do_sync_erase
                0x000000008784c078      0x1cc drivers/mtd/ubi/built-in.o
 .text.ubi_io_sync_erase
                0x000000008784c244      0x36c drivers/mtd/ubi/built-in.o
                0x000000008784c244                ubi_io_sync_erase
 .text.prot_queue_del
                0x000000008784c5b0       0xa4 drivers/mtd/ubi/built-in.o
 .text.do_work  0x000000008784c654       0xb4 drivers/mtd/ubi/built-in.o
 .text.prot_queue_add
                0x000000008784c708       0x74 drivers/mtd/ubi/built-in.o
 .text.__schedule_ubi_work
                0x000000008784c77c       0x68 drivers/mtd/ubi/built-in.o
 .text.shutdown_work
                0x000000008784c7e4       0x88 drivers/mtd/ubi/built-in.o
 .text.find_wl_entry
                0x000000008784c86c       0x84 drivers/mtd/ubi/built-in.o
 .text.wl_tree_add
                0x000000008784c8f0       0xb0 drivers/mtd/ubi/built-in.o
 .text.wl_entry_destroy.isra.7
                0x000000008784c9a0       0x14 drivers/mtd/ubi/built-in.o
 .text.tree_destroy
                0x000000008784c9b4       0x60 drivers/mtd/ubi/built-in.o
 .text.in_wl_tree
                0x000000008784ca14       0x90 drivers/mtd/ubi/built-in.o
 .text.self_check_in_wl_tree
                0x000000008784caa4       0x6c drivers/mtd/ubi/built-in.o
 .text.get_peb_for_wl
                0x000000008784cb10       0x80 drivers/mtd/ubi/built-in.o
 .text.ubi_do_worker
                0x000000008784cb90       0x90 drivers/mtd/ubi/built-in.o
                0x000000008784cb90                ubi_do_worker
 .text.schedule_erase
                0x000000008784cc20       0x94 drivers/mtd/ubi/built-in.o
 .text.ensure_wear_leveling
                0x000000008784ccb4       0xe8 drivers/mtd/ubi/built-in.o
 .text.erase_worker
                0x000000008784cd9c      0x530 drivers/mtd/ubi/built-in.o
 .text.wear_leveling_worker
                0x000000008784d2cc      0x580 drivers/mtd/ubi/built-in.o
 .text.ubi_wl_put_peb
                0x000000008784d84c      0x22c drivers/mtd/ubi/built-in.o
                0x000000008784d84c                ubi_wl_put_peb
 .text.ubi_wl_scrub_peb
                0x000000008784da78      0x124 drivers/mtd/ubi/built-in.o
                0x000000008784da78                ubi_wl_scrub_peb
 .text.ubi_wl_flush
                0x000000008784db9c       0xe0 drivers/mtd/ubi/built-in.o
                0x000000008784db9c                ubi_wl_flush
 .text.ubi_wl_init
                0x000000008784dc7c      0x3e8 drivers/mtd/ubi/built-in.o
                0x000000008784dc7c                ubi_wl_init
 .text.ubi_wl_close
                0x000000008784e064       0xb0 drivers/mtd/ubi/built-in.o
                0x000000008784e064                ubi_wl_close
 .text.ubi_wl_get_peb
                0x000000008784e114      0x194 drivers/mtd/ubi/built-in.o
                0x000000008784e114                ubi_wl_get_peb
 .text.crc32_le
                0x000000008784e2a8       0xd8 drivers/mtd/ubi/built-in.o
                0x000000008784e2a8                crc32_le
 .text.ubi_calc_data_len
                0x000000008784e380       0x78 drivers/mtd/ubi/built-in.o
                0x000000008784e380                ubi_calc_data_len
 .text.ubi_check_volume
                0x000000008784e3f8       0xb8 drivers/mtd/ubi/built-in.o
                0x000000008784e3f8                ubi_check_volume
 .text.ubi_update_reserved
                0x000000008784e4b0       0x54 drivers/mtd/ubi/built-in.o
                0x000000008784e4b0                ubi_update_reserved
 .text.ubi_calculate_reserved
                0x000000008784e504       0x18 drivers/mtd/ubi/built-in.o
                0x000000008784e504                ubi_calculate_reserved
 .text.ubi_check_pattern
                0x000000008784e51c       0x2c drivers/mtd/ubi/built-in.o
                0x000000008784e51c                ubi_check_pattern
 .text.ubi_dump_flash
                0x000000008784e548       0xe4 drivers/mtd/ubi/built-in.o
                0x000000008784e548                ubi_dump_flash
 .text.ubi_dump_ec_hdr
                0x000000008784e62c      0x184 drivers/mtd/ubi/built-in.o
                0x000000008784e62c                ubi_dump_ec_hdr
 .text.ubi_dump_vid_hdr
                0x000000008784e7b0      0x20c drivers/mtd/ubi/built-in.o
                0x000000008784e7b0                ubi_dump_vid_hdr
 .text.ubi_dump_vol_info
                0x000000008784e9bc      0x14c drivers/mtd/ubi/built-in.o
                0x000000008784e9bc                ubi_dump_vol_info
 .text.ubi_dump_vtbl_record
                0x000000008784eb08      0x18c drivers/mtd/ubi/built-in.o
                0x000000008784eb08                ubi_dump_vtbl_record
 .text.ubi_dump_av
                0x000000008784ec94       0x98 drivers/mtd/ubi/built-in.o
                0x000000008784ec94                ubi_dump_av
 .text.ubi_dump_aeb
                0x000000008784ed2c       0x78 drivers/mtd/ubi/built-in.o
                0x000000008784ed2c                ubi_dump_aeb
 .text.ubi_debugfs_init
                0x000000008784eda4        0x8 drivers/mtd/ubi/built-in.o
                0x000000008784eda4                ubi_debugfs_init
 .text.ubi_debugfs_exit
                0x000000008784edac        0x4 drivers/mtd/ubi/built-in.o
                0x000000008784edac                ubi_debugfs_exit
 .text.ubi_debugfs_init_dev
                0x000000008784edb0        0x8 drivers/mtd/ubi/built-in.o
                0x000000008784edb0                ubi_debugfs_init_dev
 .text.ubi_debugfs_exit_dev
                0x000000008784edb8        0x4 drivers/mtd/ubi/built-in.o
                0x000000008784edb8                ubi_debugfs_exit_dev
 .text.ubi_dbg_power_cut
                0x000000008784edbc        0x8 drivers/mtd/ubi/built-in.o
                0x000000008784edbc                ubi_dbg_power_cut
 .text.fec_reg_setup
                0x000000008784edc4       0x70 drivers/net/built-in.o
 .text.fecmxc_free_pkt
                0x000000008784ee34       0x24 drivers/net/built-in.o
 .text.fec_free_descs
                0x000000008784ee58       0x3c drivers/net/built-in.o
 .text.fec_phy_write
                0x000000008784ee94       0x80 drivers/net/built-in.o
 .text.fec_phy_read
                0x000000008784ef14       0x90 drivers/net/built-in.o
 .text.fecmxc_set_hwaddr
                0x000000008784efa4       0xa4 drivers/net/built-in.o
 .text.fecmxc_read_rom_hwaddr
                0x000000008784f048       0x70 drivers/net/built-in.o
 .text.fecmxc_halt
                0x000000008784f0b8       0x80 drivers/net/built-in.o
 .text.fecmxc_ofdata_to_platdata
                0x000000008784f138      0x120 drivers/net/built-in.o
 .text.fecmxc_remove
                0x000000008784f258       0x48 drivers/net/built-in.o
 .text.fecmxc_send
                0x000000008784f2a0      0x160 drivers/net/built-in.o
 .text.fec_mii_setspeed.isra.8
                0x000000008784f400       0x78 drivers/net/built-in.o
 .text.fecmxc_init
                0x000000008784f478      0x354 drivers/net/built-in.o
 .text.fecmxc_recv
                0x000000008784f7cc      0x23c drivers/net/built-in.o
 .text.fec_get_miibus
                0x000000008784fa08       0xa4 drivers/net/built-in.o
                0x000000008784fa08                fec_get_miibus
 .text.fecmxc_probe
                0x000000008784faac      0x37c drivers/net/built-in.o
 .text.genphy_shutdown
                0x000000008784fe28        0x8 drivers/net/phy/built-in.o
                0x000000008784fe28                genphy_shutdown
 .text.genphy_restart_aneg
                0x000000008784fe30       0x5c drivers/net/phy/built-in.o
                0x000000008784fe30                genphy_restart_aneg
 .text.genphy_config_aneg
                0x000000008784fe8c      0x200 drivers/net/phy/built-in.o
                0x000000008784fe8c                genphy_config_aneg
 .text.genphy_config
                0x000000008785008c       0xc4 drivers/net/phy/built-in.o
                0x000000008785008c                genphy_config
 .text.genphy_update_link
                0x0000000087850150      0x14c drivers/net/phy/built-in.o
                0x0000000087850150                genphy_update_link
 .text.genphy_parse_link
                0x000000008785029c      0x19c drivers/net/phy/built-in.o
                0x000000008785029c                genphy_parse_link
 .text.genphy_startup
                0x0000000087850438       0x20 drivers/net/phy/built-in.o
                0x0000000087850438                genphy_startup
 .text.phy_init
                0x0000000087850458       0x10 drivers/net/phy/built-in.o
                0x0000000087850458                phy_init
 .text.phy_register
                0x0000000087850468       0x28 drivers/net/phy/built-in.o
                0x0000000087850468                phy_register
 .text.get_phy_id
                0x0000000087850490       0x70 drivers/net/phy/built-in.o
                0x0000000087850490                get_phy_id
 .text.get_phy_device_by_mask
                0x0000000087850500      0x2c0 drivers/net/phy/built-in.o
 .text.phy_reset
                0x00000000878507c0       0xb8 drivers/net/phy/built-in.o
                0x00000000878507c0                phy_reset
 .text.phy_find_by_mask
                0x0000000087850878       0x3c drivers/net/phy/built-in.o
                0x0000000087850878                phy_find_by_mask
 .text.phy_connect_dev
                0x00000000878508b4       0x50 drivers/net/phy/built-in.o
                0x00000000878508b4                phy_connect_dev
 .text.phy_connect
                0x0000000087850904       0x54 drivers/net/phy/built-in.o
                0x0000000087850904                phy_connect
 .text.phy_startup
                0x0000000087850958       0x1c drivers/net/phy/built-in.o
                0x0000000087850958                phy_startup
 .text.phy_config
                0x0000000087850974        0x4 drivers/net/phy/built-in.o
                0x0000000087850974                phy_config
 .text.phy_get_interface_by_name
                0x0000000087850978       0x44 drivers/net/phy/built-in.o
                0x0000000087850978                phy_get_interface_by_name
 .text.ksz8895_startup
                0x00000000878509bc        0x8 drivers/net/phy/built-in.o
 .text.ksz886x_config
                0x00000000878509c4       0x1c drivers/net/phy/built-in.o
                0x00000000878509c4                ksz886x_config
 .text.ksz886x_startup
                0x00000000878509e0        0x8 drivers/net/phy/built-in.o
 .text.ksz_genconfig_bcastoff
                0x00000000878509e8       0x70 drivers/net/phy/built-in.o
 .text.ksz8051_config
                0x0000000087850a58       0x58 drivers/net/phy/built-in.o
 .text.ksz8895_config
                0x0000000087850ab0       0x3c drivers/net/phy/built-in.o
                0x0000000087850ab0                ksz8895_config
 .text.phy_micrel_ksz8xxx_init
                0x0000000087850aec       0x60 drivers/net/phy/built-in.o
                0x0000000087850aec                phy_micrel_ksz8xxx_init
 .text.regulator_pre_probe
                0x0000000087850b4c      0x134 drivers/power/regulator/built-in.o
 .text.regulator_post_bind
                0x0000000087850c80       0xd0 drivers/power/regulator/built-in.o
 .text.regulator_get_value
                0x0000000087850d50       0x34 drivers/power/regulator/built-in.o
                0x0000000087850d50                regulator_get_value
 .text.regulator_get_enable
                0x0000000087850d84       0x34 drivers/power/regulator/built-in.o
                0x0000000087850d84                regulator_get_enable
 .text.regulator_set_enable
                0x0000000087850db8       0xdc drivers/power/regulator/built-in.o
                0x0000000087850db8                regulator_set_enable
 .text.device_get_supply_regulator
                0x0000000087850e94       0x14 drivers/power/regulator/built-in.o
                0x0000000087850e94                device_get_supply_regulator
 .text.fixed_regulator_set_enable
                0x0000000087850ea8       0x90 drivers/power/regulator/built-in.o
 .text.fixed_regulator_get_enable
                0x0000000087850f38       0x24 drivers/power/regulator/built-in.o
 .text.fixed_regulator_get_current
                0x0000000087850f5c       0x2c drivers/power/regulator/built-in.o
 .text.fixed_regulator_get_value
                0x0000000087850f88       0x2c drivers/power/regulator/built-in.o
 .text.fixed_regulator_ofdata_to_platdata
                0x0000000087850fb4       0xb0 drivers/power/regulator/built-in.o
 .text.gpio_regulator_set_value
                0x0000000087851064       0x84 drivers/power/regulator/built-in.o
 .text.gpio_regulator_get_value
                0x00000000878510e8       0x60 drivers/power/regulator/built-in.o
 .text.gpio_regulator_ofdata_to_platdata
                0x0000000087851148       0xb8 drivers/power/regulator/built-in.o
 .text.serial_stub_start
                0x0000000087851200        0xc drivers/serial/built-in.o
 .text.serial_stub_stop
                0x000000008785120c        0xc drivers/serial/built-in.o
 .text.serial_stub_putc
                0x0000000087851218       0x10 drivers/serial/built-in.o
 .text.serial_stub_puts
                0x0000000087851228       0x10 drivers/serial/built-in.o
 .text.serial_stub_getc
                0x0000000087851238        0xc drivers/serial/built-in.o
 .text.serial_stub_tstc
                0x0000000087851244        0xc drivers/serial/built-in.o
 .text.get_current
                0x0000000087851250       0x40 drivers/serial/built-in.o
 .text.serial_null
                0x0000000087851290        0x4 drivers/serial/built-in.o
                0x0000000087851290                ns16550_serial_initialize
                0x0000000087851290                sh_serial_initialize
                0x0000000087851290                mcf_serial_initialize
                0x0000000087851290                mpc85xx_serial_initialize
                0x0000000087851290                pxa_serial_initialize
                0x0000000087851290                atmel_serial_initialize
                0x0000000087851290                pl01x_serial_initialize
 .text.serial_register
                0x0000000087851294       0x18 drivers/serial/built-in.o
                0x0000000087851294                serial_register
 .text.serial_stdio_init
                0x00000000878512ac       0xa4 drivers/serial/built-in.o
                0x00000000878512ac                serial_stdio_init
 .text.serial_assign
                0x0000000087851350       0x4c drivers/serial/built-in.o
                0x0000000087851350                serial_assign
 .text.serial_initialize
                0x000000008785139c       0x30 drivers/serial/built-in.o
                0x000000008785139c                serial_initialize
 .text.serial_init
                0x00000000878513cc       0x20 drivers/serial/built-in.o
                0x00000000878513cc                serial_init
 .text.serial_setbrg
                0x00000000878513ec       0x14 drivers/serial/built-in.o
                0x00000000878513ec                serial_setbrg
 .text.on_baudrate
                0x0000000087851400       0xec drivers/serial/built-in.o
 .text.serial_getc
                0x00000000878514ec       0x14 drivers/serial/built-in.o
                0x00000000878514ec                serial_getc
 .text.serial_tstc
                0x0000000087851500       0x14 drivers/serial/built-in.o
                0x0000000087851500                serial_tstc
 .text.serial_putc
                0x0000000087851514       0x1c drivers/serial/built-in.o
                0x0000000087851514                serial_putc
 .text.serial_puts
                0x0000000087851530       0x1c drivers/serial/built-in.o
                0x0000000087851530                serial_puts
 .text.default_serial_puts
                0x000000008785154c       0x30 drivers/serial/built-in.o
                0x000000008785154c                default_serial_puts
 .text.mxc_serial_getc
                0x000000008785157c       0x2c drivers/serial/built-in.o
 .text.mxc_serial_tstc
                0x00000000878515a8       0x1c drivers/serial/built-in.o
 .text.mxc_serial_putc
                0x00000000878515c4       0x3c drivers/serial/built-in.o
 .text.mxc_serial_setbrg
                0x0000000087851600       0x6c drivers/serial/built-in.o
 .text.mxc_serial_init
                0x000000008785166c       0x84 drivers/serial/built-in.o
 .text.mxc_serial_initialize
                0x00000000878516f0        0xc drivers/serial/built-in.o
                0x00000000878516f0                mxc_serial_initialize
 .text.default_serial_console
                0x00000000878516fc        0xc drivers/serial/built-in.o
                0x00000000878516fc                default_serial_console
 .text.spi_set_speed_mode
                0x0000000087851708       0x84 drivers/spi/built-in.o
 .text.spi_child_pre_probe
                0x000000008785178c       0x3c drivers/spi/built-in.o
 .text.spi_post_probe
                0x00000000878517c8       0x30 drivers/spi/built-in.o
 .text.dm_spi_claim_bus
                0x00000000878517f8       0xac drivers/spi/built-in.o
                0x00000000878517f8                dm_spi_claim_bus
 .text.dm_spi_release_bus
                0x00000000878518a4       0x1c drivers/spi/built-in.o
                0x00000000878518a4                dm_spi_release_bus
 .text.dm_spi_xfer
                0x00000000878518c0       0x3c drivers/spi/built-in.o
                0x00000000878518c0                dm_spi_xfer
 .text.spi_claim_bus
                0x00000000878518fc        0x8 drivers/spi/built-in.o
                0x00000000878518fc                spi_claim_bus
 .text.spi_release_bus
                0x0000000087851904        0x8 drivers/spi/built-in.o
                0x0000000087851904                spi_release_bus
 .text.spi_xfer
                0x000000008785190c        0x8 drivers/spi/built-in.o
                0x000000008785190c                spi_xfer
 .text.spi_find_chip_select
                0x0000000087851914       0x54 drivers/spi/built-in.o
                0x0000000087851914                spi_find_chip_select
 .text.spi_find_bus_and_cs
                0x0000000087851968       0x58 drivers/spi/built-in.o
                0x0000000087851968                spi_find_bus_and_cs
 .text.spi_get_bus_and_cs
                0x00000000878519c0      0x198 drivers/spi/built-in.o
                0x00000000878519c0                spi_get_bus_and_cs
 .text.spi_slave_ofdata_to_platdata
                0x0000000087851b58      0x150 drivers/spi/built-in.o
                0x0000000087851b58                spi_slave_ofdata_to_platdata
 .text.spi_child_post_bind
                0x0000000087851ca8       0x30 drivers/spi/built-in.o
 .text.soft_spi_release_bus
                0x0000000087851cd8        0x8 drivers/spi/built-in.o
 .text.soft_spi_set_speed
                0x0000000087851ce0        0x8 drivers/spi/built-in.o
 .text.soft_spi_set_mode
                0x0000000087851ce8       0x18 drivers/spi/built-in.o
 .text.soft_spi_scl
                0x0000000087851d00       0x24 drivers/spi/built-in.o
 .text.soft_spi_claim_bus
                0x0000000087851d24        0x8 drivers/spi/built-in.o
 .text.soft_spi_xfer
                0x0000000087851d2c      0x1c0 drivers/spi/built-in.o
 .text.soft_spi_ofdata_to_platdata
                0x0000000087851eec       0x30 drivers/spi/built-in.o
 .text.soft_spi_probe
                0x0000000087851f1c       0xfc drivers/spi/built-in.o
 .text.spi_check_buswidth_req.isra.0
                0x0000000087852018       0x5c drivers/spi/built-in.o
 .text.spi_mem_default_supports_op
                0x0000000087852074       0xb8 drivers/spi/built-in.o
                0x0000000087852074                spi_mem_default_supports_op
 .text.spi_mem_supports_op
                0x000000008785212c       0x40 drivers/spi/built-in.o
                0x000000008785212c                spi_mem_supports_op
 .text.spi_mem_exec_op
                0x000000008785216c      0x1a8 drivers/spi/built-in.o
                0x000000008785216c                spi_mem_exec_op
 .text.spi_mem_adjust_op_size
                0x0000000087852314       0xc4 drivers/spi/built-in.o
                0x0000000087852314                spi_mem_adjust_op_size
 .text.fsl_qspi_set_speed
                0x00000000878523d8        0x8 drivers/spi/built-in.o
 .text.fsl_qspi_set_mode
                0x00000000878523e0        0x8 drivers/spi/built-in.o
 .text.fsl_qspi_child_pre_probe
                0x00000000878523e8       0x18 drivers/spi/built-in.o
 .text.fsl_qspi_ofdata_to_platdata
                0x0000000087852400      0x148 drivers/spi/built-in.o
 .text.qspi_read32
                0x0000000087852548       0x10 drivers/spi/built-in.o
 .text.qspi_write32
                0x0000000087852558       0x10 drivers/spi/built-in.o
 .text.qspi_xfer
                0x0000000087852568      0x890 drivers/spi/built-in.o
                0x0000000087852568                qspi_xfer
 .text.fsl_qspi_xfer
                0x0000000087852df8       0x34 drivers/spi/built-in.o
 .text.qspi_module_disable
                0x0000000087852e2c       0x34 drivers/spi/built-in.o
                0x0000000087852e2c                qspi_module_disable
 .text.fsl_qspi_release_bus
                0x0000000087852e60       0x1c drivers/spi/built-in.o
 .text.fsl_qspi_claim_bus
                0x0000000087852e7c       0x90 drivers/spi/built-in.o
 .text.qspi_cfg_smpr
                0x0000000087852f0c       0x3c drivers/spi/built-in.o
                0x0000000087852f0c                qspi_cfg_smpr
 .text.fsl_qspi_probe
                0x0000000087852f48      0x6ec drivers/spi/built-in.o
 .text.usb_ether_register
                0x0000000087853634      0x118 drivers/usb/eth/built-in.o
                0x0000000087853634                usb_ether_register
 .text.usb_ether_deregister
                0x000000008785374c        0x8 drivers/usb/eth/built-in.o
                0x000000008785374c                usb_ether_deregister
 .text.usb_ether_receive
                0x0000000087853754       0xa4 drivers/usb/eth/built-in.o
                0x0000000087853754                usb_ether_receive
 .text.usb_ether_advance_rxbuf
                0x00000000878537f8       0x2c drivers/usb/eth/built-in.o
                0x00000000878537f8                usb_ether_advance_rxbuf
 .text.usb_ether_get_rx_bytes
                0x0000000087853824       0x30 drivers/usb/eth/built-in.o
                0x0000000087853824                usb_ether_get_rx_bytes
 .text.asix_eth_stop
                0x0000000087853854        0x4 drivers/usb/eth/built-in.o
                0x0000000087853854                asix_eth_stop
 .text.asix_send_common
                0x0000000087853858       0x98 drivers/usb/eth/built-in.o
 .text.asix_eth_send
                0x00000000878538f0       0x24 drivers/usb/eth/built-in.o
                0x00000000878538f0                asix_eth_send
 .text.asix_eth_recv
                0x0000000087853914       0xc8 drivers/usb/eth/built-in.o
                0x0000000087853914                asix_eth_recv
 .text.asix_free_pkt
                0x00000000878539dc       0x28 drivers/usb/eth/built-in.o
 .text.asix_write_cmd.isra.0
                0x0000000087853a04       0x4c drivers/usb/eth/built-in.o
 .text.asix_write_hwaddr_common
                0x0000000087853a50       0x48 drivers/usb/eth/built-in.o
 .text.asix_write_hwaddr
                0x0000000087853a98       0x3c drivers/usb/eth/built-in.o
                0x0000000087853a98                asix_write_hwaddr
 .text.asix_mdio_write
                0x0000000087853ad4       0x84 drivers/usb/eth/built-in.o
 .text.asix_sw_reset
                0x0000000087853b58       0x40 drivers/usb/eth/built-in.o
 .text.asix_read_cmd.isra.1
                0x0000000087853b98       0x50 drivers/usb/eth/built-in.o
 .text.asix_mdio_read
                0x0000000087853be8       0x84 drivers/usb/eth/built-in.o
 .text.asix_eth_start
                0x0000000087853c6c       0xf0 drivers/usb/eth/built-in.o
 .text.asix_read_rx_ctl
                0x0000000087853d5c       0x44 drivers/usb/eth/built-in.o
 .text.asix_eth_probe
                0x0000000087853da0      0x2ec drivers/usb/eth/built-in.o
 .text.usb_ep_autoconfig
                0x000000008785408c      0x21c drivers/usb/gadget/built-in.o
                0x000000008785408c                usb_ep_autoconfig
 .text.usb_ep_autoconfig_reset
                0x00000000878542a8       0x38 drivers/usb/gadget/built-in.o
                0x00000000878542a8                usb_ep_autoconfig_reset
 .text.usb_descriptor_fillbuf
                0x00000000878542e0       0x64 drivers/usb/gadget/built-in.o
                0x00000000878542e0                usb_descriptor_fillbuf
 .text.usb_gadget_get_string
                0x0000000087854344      0x190 drivers/usb/gadget/built-in.o
                0x0000000087854344                usb_gadget_get_string
 .text.ci_ep_disable
                0x00000000878544d4       0x14 drivers/usb/gadget/built-in.o
 .text.ci_ep_dequeue
                0x00000000878544e8       0x88 drivers/usb/gadget/built-in.o
 .text.ci_ep_free_request
                0x0000000087854570       0x54 drivers/usb/gadget/built-in.o
 .text.ci_ep_alloc_request
                0x00000000878545c4       0x68 drivers/usb/gadget/built-in.o
 .text.ci_flush_qtd
                0x000000008785462c       0x18 drivers/usb/gadget/built-in.o
 .text.ci_flush_qh
                0x0000000087854644       0x18 drivers/usb/gadget/built-in.o
 .text.stop_activity
                0x000000008785465c       0xa4 drivers/usb/gadget/built-in.o
 .text.ep_enable
                0x0000000087854700       0x58 drivers/usb/gadget/built-in.o
 .text.ci_ep_enable
                0x0000000087854758       0x68 drivers/usb/gadget/built-in.o
 .text.ci_ep_submit_next_request
                0x00000000878547c0      0x1d0 drivers/usb/gadget/built-in.o
 .text.ci_ep_queue
                0x0000000087854990      0x138 drivers/usb/gadget/built-in.o
 .text.ci_init_after_reset
                0x0000000087854ac8        0x4 drivers/usb/gadget/built-in.o
                0x0000000087854ac8                ci_init_after_reset
 .text.udc_irq  0x0000000087854acc      0x514 drivers/usb/gadget/built-in.o
                0x0000000087854acc                udc_irq
 .text.usb_gadget_handle_interrupts
                0x0000000087854fe0       0x30 drivers/usb/gadget/built-in.o
                0x0000000087854fe0                usb_gadget_handle_interrupts
 .text.udc_disconnect
                0x0000000087855010       0x48 drivers/usb/gadget/built-in.o
                0x0000000087855010                udc_disconnect
 .text.ci_pullup
                0x0000000087855058       0x80 drivers/usb/gadget/built-in.o
 .text.usb_gadget_register_driver
                0x00000000878550d8      0x260 drivers/usb/gadget/built-in.o
                0x00000000878550d8                usb_gadget_register_driver
 .text.usb_gadget_unregister_driver
                0x0000000087855338       0x54 drivers/usb/gadget/built-in.o
                0x0000000087855338                usb_gadget_unregister_driver
 .text.count_configs
                0x000000008785538c       0x88 drivers/usb/gadget/built-in.o
 .text.collect_langs
                0x0000000087855414       0x50 drivers/usb/gadget/built-in.o
 .text.composite_setup_complete
                0x0000000087855464        0x4 drivers/usb/gadget/built-in.o
 .text.unlikely.count_ext_prop
                0x0000000087855468       0x60 drivers/usb/gadget/built-in.o
 .text.unlikely.len_ext_prop
                0x00000000878554c8       0x60 drivers/usb/gadget/built-in.o
 .text.composite_suspend
                0x0000000087855528       0x80 drivers/usb/gadget/built-in.o
 .text.composite_resume
                0x00000000878555a8       0x7c drivers/usb/gadget/built-in.o
 .text.g_dnl_unbind
                0x0000000087855624       0x30 drivers/usb/gadget/built-in.o
 .text.lookup_string
                0x0000000087855654       0x4c drivers/usb/gadget/built-in.o
 .text.composite_unbind
                0x00000000878556a0      0x128 drivers/usb/gadget/built-in.o
 .text.composite_bind
                0x00000000878557c8      0x210 drivers/usb/gadget/built-in.o
 .text.g_dnl_do_config
                0x00000000878559d8       0x5c drivers/usb/gadget/built-in.o
 .text.reset_config.isra.7
                0x0000000087855a34       0x5c drivers/usb/gadget/built-in.o
 .text.composite_disconnect
                0x0000000087855a90       0x40 drivers/usb/gadget/built-in.o
 .text.unlikely.count_ext_compat
                0x0000000087855ad0       0xa4 drivers/usb/gadget/built-in.o
 .text.composite_setup
                0x0000000087855b74     0x1078 drivers/usb/gadget/built-in.o
 .text.usb_add_function
                0x0000000087856bec       0xe0 drivers/usb/gadget/built-in.o
                0x0000000087856bec                usb_add_function
 .text.usb_interface_id
                0x0000000087856ccc       0x28 drivers/usb/gadget/built-in.o
                0x0000000087856ccc                usb_interface_id
 .text.usb_add_config
                0x0000000087856cf4      0x124 drivers/usb/gadget/built-in.o
                0x0000000087856cf4                usb_add_config
 .text.usb_string_id
                0x0000000087856e18       0x20 drivers/usb/gadget/built-in.o
                0x0000000087856e18                usb_string_id
 .text.usb_composite_register
                0x0000000087856e38       0x78 drivers/usb/gadget/built-in.o
                0x0000000087856e38                usb_composite_register
 .text.usb_composite_unregister
                0x0000000087856eb0       0x30 drivers/usb/gadget/built-in.o
                0x0000000087856eb0                usb_composite_unregister
 .text.g_dnl_set_serialnumber
                0x0000000087856ee0       0x34 drivers/usb/gadget/built-in.o
                0x0000000087856ee0                g_dnl_set_serialnumber
 .text.on_serialno
                0x0000000087856f14       0x14 drivers/usb/gadget/built-in.o
 .text.g_dnl_bind_fixup
                0x0000000087856f28        0x8 drivers/usb/gadget/built-in.o
                0x0000000087856f28                g_dnl_bind_fixup
 .text.g_dnl_get_board_bcd_device_number
                0x0000000087856f30        0x4 drivers/usb/gadget/built-in.o
                0x0000000087856f30                g_dnl_get_board_bcd_device_number
 .text.g_dnl_bind
                0x0000000087856f34      0x170 drivers/usb/gadget/built-in.o
 .text.g_dnl_board_usb_cable_connected
                0x00000000878570a4        0x8 drivers/usb/gadget/built-in.o
                0x00000000878570a4                g_dnl_board_usb_cable_connected
 .text.g_dnl_detach
                0x00000000878570ac       0x10 drivers/usb/gadget/built-in.o
                0x00000000878570ac                g_dnl_detach
 .text.g_dnl_trigger_detach
                0x00000000878570bc       0x14 drivers/usb/gadget/built-in.o
                0x00000000878570bc                g_dnl_trigger_detach
 .text.g_dnl_clear_detach
                0x00000000878570d0       0x14 drivers/usb/gadget/built-in.o
                0x00000000878570d0                g_dnl_clear_detach
 .text.g_dnl_register
                0x00000000878570e4       0x40 drivers/usb/gadget/built-in.o
                0x00000000878570e4                g_dnl_register
 .text.g_dnl_unregister
                0x0000000087857124        0xc drivers/usb/gadget/built-in.o
                0x0000000087857124                g_dnl_unregister
 .text.fastboot_start_ep
                0x0000000087857130       0x70 drivers/usb/gadget/built-in.o
 .text.fastboot_unbind
                0x00000000878571a0       0x3c drivers/usb/gadget/built-in.o
 .text.fastboot_add
                0x00000000878571dc       0xbc drivers/usb/gadget/built-in.o
 .text.fastboot_disable
                0x0000000087857298       0x8c drivers/usb/gadget/built-in.o
 .text.fastboot_complete
                0x0000000087857324       0x24 drivers/usb/gadget/built-in.o
 .text.do_acmd_complete
                0x0000000087857348       0x10 drivers/usb/gadget/built-in.o
 .text.compl_do_reset
                0x0000000087857358       0x14 drivers/usb/gadget/built-in.o
 .text.do_exit_on_complete
                0x000000008785736c        0x4 drivers/usb/gadget/built-in.o
 .text.do_bootm_on_complete
                0x0000000087857370       0x10 drivers/usb/gadget/built-in.o
 .text.fastboot_bind
                0x0000000087857380      0x1d8 drivers/usb/gadget/built-in.o
 .text.fastboot_fifo_complete
                0x0000000087857558       0x5c drivers/usb/gadget/built-in.o
 .text.rx_bytes_expected.isra.3
                0x00000000878575b4       0x58 drivers/usb/gadget/built-in.o
 .text.fastboot_set_alt
                0x000000008785760c      0x164 drivers/usb/gadget/built-in.o
 .text.fastboot_tx_write_more
                0x0000000087857770      0x10c drivers/usb/gadget/built-in.o
                0x0000000087857770                fastboot_tx_write_more
 .text.fastboot_tx_write
                0x000000008785787c       0x84 drivers/usb/gadget/built-in.o
                0x000000008785787c                fastboot_tx_write
 .text.fastboot_tx_write_str
                0x0000000087857900       0x1c drivers/usb/gadget/built-in.o
 .text.rx_handler_command
                0x000000008785791c      0x18c drivers/usb/gadget/built-in.o
 .text.rx_handler_dl_image
                0x0000000087857aa8       0xd0 drivers/usb/gadget/built-in.o
 .text.usb_match_device
                0x0000000087857b78       0xe8 drivers/usb/host/built-in.o
 .text.usb_child_post_bind
                0x0000000087857c60       0x70 drivers/usb/host/built-in.o
 .text.usb_match_one_id_intf.isra.2
                0x0000000087857cd0       0x94 drivers/usb/host/built-in.o
 .text.remove_inactive_children.isra.4
                0x0000000087857d64       0x74 drivers/usb/host/built-in.o
 .text.usb_disable_asynch
                0x0000000087857dd8       0x20 drivers/usb/host/built-in.o
                0x0000000087857dd8                usb_disable_asynch
 .text.submit_int_msg
                0x0000000087857df8       0x4c drivers/usb/host/built-in.o
                0x0000000087857df8                submit_int_msg
 .text.submit_control_msg
                0x0000000087857e44       0x8c drivers/usb/host/built-in.o
                0x0000000087857e44                submit_control_msg
 .text.submit_bulk_msg
                0x0000000087857ed0       0x44 drivers/usb/host/built-in.o
                0x0000000087857ed0                submit_bulk_msg
 .text.usb_alloc_device
                0x0000000087857f14       0x28 drivers/usb/host/built-in.o
                0x0000000087857f14                usb_alloc_device
 .text.usb_reset_root_port
                0x0000000087857f3c       0x28 drivers/usb/host/built-in.o
                0x0000000087857f3c                usb_reset_root_port
 .text.usb_update_hub_device
                0x0000000087857f64       0x28 drivers/usb/host/built-in.o
                0x0000000087857f64                usb_update_hub_device
 .text.usb_get_max_xfer_size
                0x0000000087857f8c       0x24 drivers/usb/host/built-in.o
                0x0000000087857f8c                usb_get_max_xfer_size
 .text.usb_stop
                0x0000000087857fb0       0xc8 drivers/usb/host/built-in.o
                0x0000000087857fb0                usb_stop
 .text.usb_setup_ehci_gadget
                0x0000000087858078       0x70 drivers/usb/host/built-in.o
                0x0000000087858078                usb_setup_ehci_gadget
 .text.usb_remove_ehci_gadget
                0x00000000878580e8       0x40 drivers/usb/host/built-in.o
                0x00000000878580e8                usb_remove_ehci_gadget
 .text.usb_get_bus
                0x0000000087858128       0x2c drivers/usb/host/built-in.o
                0x0000000087858128                usb_get_bus
 .text.usb_scan_device
                0x0000000087858154      0x2a8 drivers/usb/host/built-in.o
                0x0000000087858154                usb_scan_device
 .text.usb_scan_bus.isra.5
                0x00000000878583fc       0x74 drivers/usb/host/built-in.o
 .text.usb_init
                0x0000000087858470      0x1cc drivers/usb/host/built-in.o
                0x0000000087858470                usb_init
 .text.usb_child_pre_probe
                0x000000008785863c       0x68 drivers/usb/host/built-in.o
                0x000000008785863c                usb_child_pre_probe
 .text.ehci_get_port_speed
                0x00000000878586a4        0x8 drivers/usb/host/built-in.o
 .text.ehci_set_usbmode
                0x00000000878586ac       0x20 drivers/usb/host/built-in.o
 .text.ehci_get_portsc_register
                0x00000000878586cc       0x34 drivers/usb/host/built-in.o
 .text.ehci_get_max_xfer_size
                0x0000000087858700       0x10 drivers/usb/host/built-in.o
 .text.ehci_powerup_fixup
                0x0000000087858710        0x8 drivers/usb/host/built-in.o
 .text.handshake
                0x0000000087858718       0x54 drivers/usb/host/built-in.o
 .text.ehci_td_buffer
                0x000000008785876c       0x80 drivers/usb/host/built-in.o
 .text.ehci_shutdown
                0x00000000878587ec       0xec drivers/usb/host/built-in.o
 .text._ehci_poll_int_queue
                0x00000000878588d8       0xbc drivers/usb/host/built-in.o
 .text.ehci_poll_int_queue
                0x0000000087858994        0xc drivers/usb/host/built-in.o
 .text.disable_periodic.isra.1
                0x00000000878589a0       0x50 drivers/usb/host/built-in.o
 .text.enable_periodic.isra.2
                0x00000000878589f0       0x58 drivers/usb/host/built-in.o
 .text.ehci_get_ctrl.isra.3
                0x0000000087858a48       0x10 drivers/usb/host/built-in.o
 .text._ehci_destroy_int_queue
                0x0000000087858a58       0xe4 drivers/usb/host/built-in.o
 .text.ehci_destroy_int_queue
                0x0000000087858b3c        0xc drivers/usb/host/built-in.o
 .text.ehci_update_endpt2_dev_n_port.isra.4
                0x0000000087858b48       0x5c drivers/usb/host/built-in.o
 .text.ehci_submit_async
                0x0000000087858ba4      0x5fc drivers/usb/host/built-in.o
 .text.ehci_submit_bulk_msg
                0x00000000878591a0       0x30 drivers/usb/host/built-in.o
 .text._ehci_create_int_queue.isra.5
                0x00000000878591d0      0x3b8 drivers/usb/host/built-in.o
 .text.ehci_create_int_queue
                0x0000000087859588       0x18 drivers/usb/host/built-in.o
 .text.ehci_submit_int_msg
                0x00000000878595a0       0xb0 drivers/usb/host/built-in.o
 .text.ehci_submit_control_msg
                0x0000000087859650      0x588 drivers/usb/host/built-in.o
 .text.ehci_register
                0x0000000087859bd8      0x388 drivers/usb/host/built-in.o
                0x0000000087859bd8                ehci_register
 .text.ehci_deregister
                0x0000000087859f60       0x20 drivers/usb/host/built-in.o
                0x0000000087859f60                ehci_deregister
 .text.ehci_mx6_powerup_fixup
                0x0000000087859f80       0x48 drivers/usb/host/built-in.o
 .text.ehci_usb_remove
                0x0000000087859fc8       0x3c drivers/usb/host/built-in.o
                0x0000000087859fc8                ehci_usb_remove
 .text.board_ehci_hcd_init
                0x000000008785a004        0x8 drivers/usb/host/built-in.o
                0x000000008785a004                board_ehci_hcd_init
 .text.ehci_mx6_common_init
                0x000000008785a00c      0x1d8 drivers/usb/host/built-in.o
                0x000000008785a00c                ehci_mx6_common_init
 .text.ehci_usb_probe
                0x000000008785a1e4      0x380 drivers/usb/host/built-in.o
 .text.mx6_init_after_reset
                0x000000008785a564       0xb8 drivers/usb/host/built-in.o
 .text.board_ehci_usb_phy_mode
                0x000000008785a61c        0x8 drivers/usb/host/built-in.o
                0x000000008785a61c                board_ehci_usb_phy_mode
 .text.ehci_usb_ofdata_to_platdata
                0x000000008785a624       0xf0 drivers/usb/host/built-in.o
 .text.env_get_yesno
                0x000000008785a714       0x40 env/built-in.o
                0x000000008785a714                env_get_yesno
 .text.env_get_default
                0x000000008785a754       0x30 env/built-in.o
                0x000000008785a754                env_get_default
 .text.set_default_env
                0x000000008785a784       0x98 env/built-in.o
                0x000000008785a784                set_default_env
 .text.set_default_vars
                0x000000008785a81c       0x3c env/built-in.o
                0x000000008785a81c                set_default_vars
 .text.env_import
                0x000000008785a858       0xd0 env/built-in.o
                0x000000008785a858                env_import
 .text.env_export
                0x000000008785a928       0x88 env/built-in.o
                0x000000008785a928                env_export
 .text.env_relocate
                0x000000008785a9b0       0x34 env/built-in.o
                0x000000008785a9b0                env_relocate
 .text.env_complete
                0x000000008785a9e4      0x190 env/built-in.o
                0x000000008785a9e4                env_complete
 .text.env_get_location
                0x000000008785ab74       0x18 env/built-in.o
                0x000000008785ab74                env_get_location
 .text.env_driver_lookup
                0x000000008785ab8c       0x4c env/built-in.o
 .text.env_get_char_spec
                0x000000008785abd8        0xc env/built-in.o
                0x000000008785abd8                env_get_char_spec
 .text.env_get_char
                0x000000008785abe4       0x20 env/built-in.o
                0x000000008785abe4                env_get_char
 .text.env_load
                0x000000008785ac04       0xa4 env/built-in.o
                0x000000008785ac04                env_load
 .text.env_save
                0x000000008785aca8       0x88 env/built-in.o
                0x000000008785aca8                env_save
 .text.env_init
                0x000000008785ad30       0x90 env/built-in.o
                0x000000008785ad30                env_init
 .text.regex_callback
                0x000000008785adc0      0x144 env/built-in.o
 .text.env_attr_walk
                0x000000008785af04      0x11c env/built-in.o
                0x000000008785af04                env_attr_walk
 .text.env_attr_lookup
                0x000000008785b020       0x84 env/built-in.o
                0x000000008785b020                env_attr_lookup
 .text.clear_callback
                0x000000008785b0a4       0x10 env/built-in.o
 .text.find_env_callback
                0x000000008785b0b4       0x68 env/built-in.o
 .text.on_callbacks
                0x000000008785b11c       0x50 env/built-in.o
 .text.set_callback
                0x000000008785b16c       0x98 env/built-in.o
 .text.env_callback_init
                0x000000008785b204       0xc4 env/built-in.o
                0x000000008785b204                env_callback_init
 .text.skip_num
                0x000000008785b2c8       0x70 env/built-in.o
 .text.clear_flags
                0x000000008785b338       0x10 env/built-in.o
 .text.on_flags
                0x000000008785b348       0x50 env/built-in.o
 .text.env_flags_parse_vartype
                0x000000008785b398       0x50 env/built-in.o
                0x000000008785b398                env_flags_parse_vartype
 .text.env_flags_parse_varaccess
                0x000000008785b3e8       0x58 env/built-in.o
                0x000000008785b3e8                env_flags_parse_varaccess
 .text.set_flags
                0x000000008785b440       0xb0 env/built-in.o
 .text.eth_validate_ethaddr_str
                0x000000008785b4f0       0x94 env/built-in.o
                0x000000008785b4f0                eth_validate_ethaddr_str
 .text.env_flags_init
                0x000000008785b584       0xd8 env/built-in.o
                0x000000008785b584                env_flags_init
 .text.env_flags_validate
                0x000000008785b65c      0x2b8 env/built-in.o
                0x000000008785b65c                env_flags_validate
 .text.mmc_get_env_addr
                0x000000008785b914      0x100 env/built-in.o
                0x000000008785b914                mmc_get_env_addr
 .text.fini_mmc_for_env.isra.1
                0x000000008785ba14       0x24 env/built-in.o
 .text.init_mmc_for_env
                0x000000008785ba38       0x94 env/built-in.o
 .text.env_mmc_save
                0x000000008785bacc      0x108 env/built-in.o
 .text.env_mmc_load
                0x000000008785bbd4       0xf8 env/built-in.o
 .text.fs_probe_unsupported
                0x000000008785bccc       0x18 fs/built-in.o
 .text.fs_ls_unsupported
                0x000000008785bce4        0x8 fs/built-in.o
 .text.fs_exists_unsupported
                0x000000008785bcec        0x8 fs/built-in.o
 .text.fs_size_unsupported
                0x000000008785bcf4        0x8 fs/built-in.o
 .text.fs_read_unsupported
                0x000000008785bcfc        0x8 fs/built-in.o
 .text.fs_write_unsupported
                0x000000008785bd04        0x8 fs/built-in.o
 .text.fs_close_unsupported
                0x000000008785bd0c        0x4 fs/built-in.o
 .text.fs_uuid_unsupported
                0x000000008785bd10        0x8 fs/built-in.o
 .text.fs_opendir_unsupported
                0x000000008785bd18        0x8 fs/built-in.o
 .text.fs_unlink_unsupported
                0x000000008785bd20        0x8 fs/built-in.o
 .text.fs_mkdir_unsupported
                0x000000008785bd28        0x8 fs/built-in.o
 .text.fs_get_info
                0x000000008785bd30       0x34 fs/built-in.o
 .text.fs_close
                0x000000008785bd64       0x28 fs/built-in.o
 .text.fs_set_blk_dev
                0x000000008785bd8c       0xc8 fs/built-in.o
                0x000000008785bd8c                fs_set_blk_dev
 .text.fs_set_blk_dev_with_part
                0x000000008785be54       0x9c fs/built-in.o
                0x000000008785be54                fs_set_blk_dev_with_part
 .text.fs_ls    0x000000008785bef0       0x3c fs/built-in.o
                0x000000008785bef0                fs_ls
 .text.fs_exists
                0x000000008785bf2c       0x34 fs/built-in.o
                0x000000008785bf2c                fs_exists
 .text.fs_size  0x000000008785bf60       0x3c fs/built-in.o
                0x000000008785bf60                fs_size
 .text.fs_read  0x000000008785bf9c       0x64 fs/built-in.o
                0x000000008785bf9c                fs_read
 .text.fs_write
                0x000000008785c000       0x88 fs/built-in.o
                0x000000008785c000                fs_write
 .text.fs_opendir
                0x000000008785c088       0x80 fs/built-in.o
                0x000000008785c088                fs_opendir
 .text.fs_readdir
                0x000000008785c108       0x5c fs/built-in.o
                0x000000008785c108                fs_readdir
 .text.fs_closedir
                0x000000008785c164       0x3c fs/built-in.o
                0x000000008785c164                fs_closedir
 .text.fs_ls_generic
                0x000000008785c1a0       0xb0 fs/built-in.o
 .text.fs_unlink
                0x000000008785c250       0x3c fs/built-in.o
                0x000000008785c250                fs_unlink
 .text.fs_mkdir
                0x000000008785c28c       0x3c fs/built-in.o
                0x000000008785c28c                fs_mkdir
 .text.do_size  0x000000008785c2c8       0x60 fs/built-in.o
                0x000000008785c2c8                do_size
 .text.do_load  0x000000008785c328      0x31c fs/built-in.o
                0x000000008785c328                do_load
 .text.do_ls    0x000000008785c644       0x68 fs/built-in.o
                0x000000008785c644                do_ls
 .text.file_exists
                0x000000008785c6ac       0x2c fs/built-in.o
                0x000000008785c6ac                file_exists
 .text.do_save  0x000000008785c6d8      0x180 fs/built-in.o
                0x000000008785c6d8                do_save
 .text.do_fs_type
                0x000000008785c858       0x74 fs/built-in.o
                0x000000008785c858                do_fs_type
 .text.do_rm    0x000000008785c8cc       0x48 fs/built-in.o
                0x000000008785c8cc                do_rm
 .text.do_mkdir
                0x000000008785c914       0x54 fs/built-in.o
                0x000000008785c914                do_mkdir
 .text.get_fs   0x000000008785c968        0xc fs/built-in.o
                0x000000008785c968                get_fs
 .text.ext4fs_free_node
                0x000000008785c974       0x20 fs/built-in.o
                0x000000008785c974                ext4fs_free_node
 .text.ext4fs_read_file
                0x000000008785c994      0x3e8 fs/built-in.o
                0x000000008785c994                ext4fs_read_file
 .text.ext4fs_ls
                0x000000008785cd7c       0x9c fs/built-in.o
                0x000000008785cd7c                ext4fs_ls
 .text.ext4fs_exists
                0x000000008785ce18       0x1c fs/built-in.o
                0x000000008785ce18                ext4fs_exists
 .text.ext4fs_size
                0x000000008785ce34        0x4 fs/built-in.o
                0x000000008785ce34                ext4fs_size
 .text.ext4fs_read
                0x000000008785ce38       0x5c fs/built-in.o
                0x000000008785ce38                ext4fs_read
 .text.ext4fs_probe
                0x000000008785ce94       0x30 fs/built-in.o
                0x000000008785ce94                ext4fs_probe
 .text.ext4_read_file
                0x000000008785cec4       0x70 fs/built-in.o
                0x000000008785cec4                ext4_read_file
 .text.ext4fs_uuid
                0x000000008785cf34       0x38 fs/built-in.o
                0x000000008785cf34                ext4fs_uuid
 .text.ext4fs_get_group_descriptor
                0x000000008785cf6c       0x10 fs/built-in.o
                0x000000008785cf6c                ext4fs_get_group_descriptor
 .text.ext4fs_sb_get_free_blocks
                0x000000008785cf7c       0x24 fs/built-in.o
                0x000000008785cf7c                ext4fs_sb_get_free_blocks
 .text.ext4fs_sb_set_free_blocks
                0x000000008785cfa0       0x10 fs/built-in.o
                0x000000008785cfa0                ext4fs_sb_set_free_blocks
 .text.ext4fs_bg_get_free_blocks
                0x000000008785cfb0       0x1c fs/built-in.o
                0x000000008785cfb0                ext4fs_bg_get_free_blocks
 .text.ext4fs_bg_get_block_id
                0x000000008785cfcc       0x40 fs/built-in.o
                0x000000008785cfcc                ext4fs_bg_get_block_id
 .text.ext4fs_bg_get_inode_id
                0x000000008785d00c       0x40 fs/built-in.o
                0x000000008785d00c                ext4fs_bg_get_inode_id
 .text.ext4fs_bg_get_inode_table_id
                0x000000008785d04c       0x40 fs/built-in.o
                0x000000008785d04c                ext4fs_bg_get_inode_table_id
 .text.ext4fs_div_roundup
                0x000000008785d08c       0x20 fs/built-in.o
                0x000000008785d08c                ext4fs_div_roundup
 .text.put_ext4
                0x000000008785d0ac      0x19c fs/built-in.o
                0x000000008785d0ac                put_ext4
 .text.ext4fs_set_block_bmap
                0x000000008785d248       0xb0 fs/built-in.o
                0x000000008785d248                ext4fs_set_block_bmap
 .text.ext4fs_reset_block_bmap
                0x000000008785d2f8       0x9c fs/built-in.o
                0x000000008785d2f8                ext4fs_reset_block_bmap
 .text.ext4fs_set_inode_bmap
                0x000000008785d394       0x74 fs/built-in.o
                0x000000008785d394                ext4fs_set_inode_bmap
 .text.ext4fs_reset_inode_bmap
                0x000000008785d408       0x70 fs/built-in.o
                0x000000008785d408                ext4fs_reset_inode_bmap
 .text.ext4fs_checksum_update
                0x000000008785d478       0x8c fs/built-in.o
                0x000000008785d478                ext4fs_checksum_update
 .text.ext4fs_get_new_blk_no
                0x000000008785d504      0x41c fs/built-in.o
                0x000000008785d504                ext4fs_get_new_blk_no
 .text.ext4fs_get_new_inode_no
                0x000000008785d920      0x41c fs/built-in.o
                0x000000008785d920                ext4fs_get_new_inode_no
 .text.ext4fs_allocate_blocks
                0x000000008785dd3c      0x634 fs/built-in.o
                0x000000008785dd3c                ext4fs_allocate_blocks
 .text.ext4fs_read_inode
                0x000000008785e370      0x158 fs/built-in.o
                0x000000008785e370                ext4fs_read_inode
 .text.ext4fs_iget
                0x000000008785e4c8       0x2c fs/built-in.o
                0x000000008785e4c8                ext4fs_iget
 .text.read_allocated_block
                0x000000008785e4f4      0x928 fs/built-in.o
                0x000000008785e4f4                read_allocated_block
 .text.ext4fs_update_parent_dentry
                0x000000008785ee1c      0x370 fs/built-in.o
                0x000000008785ee1c                ext4fs_update_parent_dentry
 .text.search_dir
                0x000000008785f18c      0x150 fs/built-in.o
 .text.ext4fs_get_parent_inode_num
                0x000000008785f2dc      0x444 fs/built-in.o
                0x000000008785f2dc                ext4fs_get_parent_inode_num
 .text.ext4fs_filename_unlink
                0x000000008785f720      0x1d4 fs/built-in.o
                0x000000008785f720                ext4fs_filename_unlink
 .text.ext4fs_reinit_global
                0x000000008785f8f4       0xbc fs/built-in.o
                0x000000008785f8f4                ext4fs_reinit_global
 .text.ext4fs_close
                0x000000008785f9b0       0x60 fs/built-in.o
                0x000000008785f9b0                ext4fs_close
 .text.ext4fs_iterate_dir
                0x000000008785fa10      0x2dc fs/built-in.o
                0x000000008785fa10                ext4fs_iterate_dir
 .text.ext4fs_find_file1
                0x000000008785fcec      0x2a8 fs/built-in.o
 .text.ext4fs_find_file
                0x000000008785ff94       0x78 fs/built-in.o
                0x000000008785ff94                ext4fs_find_file
 .text.ext4fs_open
                0x000000008786000c       0xac fs/built-in.o
                0x000000008786000c                ext4fs_open
 .text.ext4fs_mount
                0x00000000878600b8       0xe4 fs/built-in.o
                0x00000000878600b8                ext4fs_mount
 .text.ext4fs_set_blk_dev
                0x000000008786019c       0x6c fs/built-in.o
                0x000000008786019c                ext4fs_set_blk_dev
 .text.ext4fs_devread
                0x0000000087860208       0x40 fs/built-in.o
                0x0000000087860208                ext4fs_devread
 .text.ext4_read_superblock
                0x0000000087860248       0x38 fs/built-in.o
                0x0000000087860248                ext4_read_superblock
 .text.ext4fs_update
                0x0000000087860280      0x118 fs/built-in.o
 .text.ext4fs_get_bgdtable
                0x0000000087860398       0xc0 fs/built-in.o
                0x0000000087860398                ext4fs_get_bgdtable
 .text.ext4fs_deinit
                0x0000000087860458      0x194 fs/built-in.o
                0x0000000087860458                ext4fs_deinit
 .text.ext4fs_init
                0x00000000878605ec      0x2e4 fs/built-in.o
                0x00000000878605ec                ext4fs_init
 .text.ext4fs_write
                0x00000000878608d0     0x128c fs/built-in.o
                0x00000000878608d0                ext4fs_write
 .text.ext4_write_file
                0x0000000087861b5c       0x60 fs/built-in.o
                0x0000000087861b5c                ext4_write_file
 .text.ext4fs_dump_metadata
                0x0000000087861bbc       0x54 fs/built-in.o
                0x0000000087861bbc                ext4fs_dump_metadata
 .text.ext4fs_free_journal
                0x0000000087861c10       0xe8 fs/built-in.o
                0x0000000087861c10                ext4fs_free_journal
 .text.ext4fs_log_gdt
                0x0000000087861cf8       0xcc fs/built-in.o
                0x0000000087861cf8                ext4fs_log_gdt
 .text.ext4fs_log_journal
                0x0000000087861dc4       0xec fs/built-in.o
                0x0000000087861dc4                ext4fs_log_journal
 .text.ext4fs_put_metadata
                0x0000000087861eb0       0xdc fs/built-in.o
                0x0000000087861eb0                ext4fs_put_metadata
 .text.ext4fs_push_revoke_blk
                0x0000000087861f8c       0xd8 fs/built-in.o
                0x0000000087861f8c                ext4fs_push_revoke_blk
 .text.ext4fs_free_revoke_blks
                0x0000000087862064       0x70 fs/built-in.o
                0x0000000087862064                ext4fs_free_revoke_blks
 .text.check_blknr_for_revoke
                0x00000000878620d4       0x6c fs/built-in.o
                0x00000000878620d4                check_blknr_for_revoke
 .text.recover_transaction
                0x0000000087862140      0x168 fs/built-in.o
                0x0000000087862140                recover_transaction
 .text.print_jrnl_status
                0x00000000878622a8       0x18 fs/built-in.o
                0x00000000878622a8                print_jrnl_status
 .text.ext4fs_check_journal_state
                0x00000000878622c0      0x310 fs/built-in.o
                0x00000000878622c0                ext4fs_check_journal_state
 .text.ext4fs_init_journal
                0x00000000878625d0      0x274 fs/built-in.o
                0x00000000878625d0                ext4fs_init_journal
 .text.ext4fs_update_journal
                0x0000000087862844      0x33c fs/built-in.o
                0x0000000087862844                ext4fs_update_journal
 .text.ext2fs_crc16
                0x0000000087862b80       0x3c fs/built-in.o
                0x0000000087862b80                ext2fs_crc16
 .text.downcase
                0x0000000087862bbc       0x3c fs/built-in.o
 .text.mkcksum  0x0000000087862bf8       0x50 fs/built-in.o
 .text.fat_itr_child
                0x0000000087862c48       0x74 fs/built-in.o
 .text.disk_read
                0x0000000087862cbc       0x5c fs/built-in.o
 .text.get_cluster
                0x0000000087862d18      0x160 fs/built-in.o
 .text.read_bootsectandvi
                0x0000000087862e78      0x130 fs/built-in.o
 .text.fat_itr_root
                0x0000000087862fa8      0x1d4 fs/built-in.o
 .text.split_filename
                0x000000008786317c       0xd8 fs/built-in.o
 .text.disk_write
                0x0000000087863254       0x88 fs/built-in.o
 .text.flush_dirty_fat_buffer
                0x00000000878632dc       0xa0 fs/built-in.o
 .text.get_fatent
                0x000000008786337c      0x178 fs/built-in.o
 .text.next_dent
                0x00000000878634f4      0x144 fs/built-in.o
 .text.set_fatent_value
                0x0000000087863638      0x1f4 fs/built-in.o
 .text.determine_fatent
                0x000000008786382c       0x40 fs/built-in.o
 .text.clear_fatent
                0x000000008786386c       0x78 fs/built-in.o
 .text.set_cluster
                0x00000000878638e4      0x164 fs/built-in.o
 .text.normalize_longname
                0x0000000087863a48       0xc4 fs/built-in.o
 .text.set_name
                0x0000000087863b0c      0x154 fs/built-in.o
 .text.get_set_cluster
                0x0000000087863c60      0x2e8 fs/built-in.o
 .text.set_contents
                0x0000000087863f48      0x78c fs/built-in.o
 .text.fat_itr_next
                0x00000000878646d4      0x268 fs/built-in.o
 .text.fat_itr_resolve
                0x000000008786493c      0x1a0 fs/built-in.o
 .text.flush_dir_table
                0x0000000087864adc       0xfc fs/built-in.o
 .text.fill_dir_slot
                0x0000000087864bd8      0x220 fs/built-in.o
 .text.find_directory_entry
                0x0000000087864df8       0xa8 fs/built-in.o
 .text.fat_set_blk_dev
                0x0000000087864ea0       0xcc fs/built-in.o
                0x0000000087864ea0                fat_set_blk_dev
 .text.file_fat_detectfs
                0x0000000087864f6c      0x148 fs/built-in.o
                0x0000000087864f6c                file_fat_detectfs
 .text.fat_exists
                0x00000000878650b4       0x6c fs/built-in.o
                0x00000000878650b4                fat_exists
 .text.fat_size
                0x0000000087865120       0xb8 fs/built-in.o
                0x0000000087865120                fat_size
 .text.file_fat_read_at
                0x00000000878651d8      0x420 fs/built-in.o
                0x00000000878651d8                file_fat_read_at
 .text.fat_read_file
                0x00000000878655f8       0x48 fs/built-in.o
                0x00000000878655f8                fat_read_file
 .text.fat_opendir
                0x0000000087865640       0x84 fs/built-in.o
                0x0000000087865640                fat_opendir
 .text.fat_readdir
                0x00000000878656c4       0x7c fs/built-in.o
                0x00000000878656c4                fat_readdir
 .text.fat_closedir
                0x0000000087865740       0x1c fs/built-in.o
                0x0000000087865740                fat_closedir
 .text.fat_close
                0x000000008786575c        0x4 fs/built-in.o
                0x000000008786575c                fat_close
 .text.file_fat_write_at
                0x0000000087865760      0x2d4 fs/built-in.o
                0x0000000087865760                file_fat_write_at
 .text.file_fat_write
                0x0000000087865a34       0x28 fs/built-in.o
                0x0000000087865a34                file_fat_write
 .text.fat_unlink
                0x0000000087865a5c      0x2c8 fs/built-in.o
                0x0000000087865a5c                fat_unlink
 .text.fat_mkdir
                0x0000000087865d24      0x3ac fs/built-in.o
                0x0000000087865d24                fat_mkdir
 .text.gzip_decompress
                0x00000000878660d0       0x2c fs/built-in.o
 .text.compr_init
                0x00000000878660fc       0xa4 fs/built-in.o
 .text.ubifs_findfile
                0x00000000878661a0      0x338 fs/built-in.o
 .text.kmemdup  0x00000000878664d8       0x34 fs/built-in.o
                0x00000000878664d8                kmemdup
 .text.ubifs_decompress
                0x000000008786650c      0x164 fs/built-in.o
                0x000000008786650c                ubifs_decompress
 .text.read_block
                0x0000000087866670      0x1d4 fs/built-in.o
 .text.ubifs_compressors_init
                0x0000000087866844       0x3c fs/built-in.o
                0x0000000087866844                ubifs_compressors_init
 .text.ubifs_set_blk_dev
                0x0000000087866880       0x28 fs/built-in.o
                0x0000000087866880                ubifs_set_blk_dev
 .text.ubifs_ls
                0x00000000878668a8      0x534 fs/built-in.o
                0x00000000878668a8                ubifs_ls
 .text.ubifs_exists
                0x0000000087866ddc       0x50 fs/built-in.o
                0x0000000087866ddc                ubifs_exists
 .text.ubifs_size
                0x0000000087866e2c       0x9c fs/built-in.o
                0x0000000087866e2c                ubifs_size
 .text.ubifs_read
                0x0000000087866ec8      0x3fc fs/built-in.o
                0x0000000087866ec8                ubifs_read
 .text.ubifs_close
                0x00000000878672c4        0x4 fs/built-in.o
                0x00000000878672c4                ubifs_close
 .text.ubifs_load
                0x00000000878672c8       0x80 fs/built-in.o
                0x00000000878672c8                ubifs_load
 .text.uboot_ubifs_umount
                0x0000000087867348       0x44 fs/built-in.o
                0x0000000087867348                uboot_ubifs_umount
 .text.ubifs_ro_mode
                0x000000008786738c       0x38 fs/built-in.o
                0x000000008786738c                ubifs_ro_mode
 .text.ubifs_leb_read
                0x00000000878673c4       0x7c fs/built-in.o
                0x00000000878673c4                ubifs_leb_read
 .text.ubifs_leb_unmap
                0x0000000087867440       0x9c fs/built-in.o
                0x0000000087867440                ubifs_leb_unmap
 .text.ubifs_is_mapped
                0x00000000878674dc       0x54 fs/built-in.o
                0x00000000878674dc                ubifs_is_mapped
 .text.ubifs_check_node
                0x0000000087867530      0x284 fs/built-in.o
                0x0000000087867530                ubifs_check_node
 .text.ubifs_pad
                0x00000000878677b4      0x11c fs/built-in.o
                0x00000000878677b4                ubifs_pad
 .text.ubifs_wbuf_seek_nolock
                0x00000000878678d0      0x114 fs/built-in.o
                0x00000000878678d0                ubifs_wbuf_seek_nolock
 .text.ubifs_read_node
                0x00000000878679e4      0x254 fs/built-in.o
                0x00000000878679e4                ubifs_read_node
 .text.ubifs_read_node_wbuf
                0x0000000087867c38      0x268 fs/built-in.o
                0x0000000087867c38                ubifs_read_node_wbuf
 .text.ubifs_wbuf_init
                0x0000000087867ea0       0xb4 fs/built-in.o
                0x0000000087867ea0                ubifs_wbuf_init
 .text.ubifs_dirty_inode
                0x0000000087867f54       0x14 fs/built-in.o
 .text.sb_test  0x0000000087867f68       0x24 fs/built-in.o
 .text.sb_set   0x0000000087867f8c        0xc fs/built-in.o
 .text.free_wbufs
                0x0000000087867f98       0x64 fs/built-in.o
 .text.kill_ubifs_super
                0x0000000087867ffc        0x8 fs/built-in.o
 .text.free_orphans
                0x0000000087868004       0xb4 fs/built-in.o
 .text.ubifs_alloc_inode
                0x00000000878680b8       0x38 fs/built-in.o
 .text.bud_wbuf_callback
                0x00000000878680f0       0x1c fs/built-in.o
 .text.iget_locked
                0x000000008786810c       0x50 fs/built-in.o
                0x000000008786810c                iget_locked
 .text.ubifs_iput
                0x000000008786815c       0x2c fs/built-in.o
                0x000000008786815c                ubifs_iput
 .text.iput     0x0000000087868188       0x58 fs/built-in.o
                0x0000000087868188                iput
 .text.clear_nlink
                0x00000000878681e0       0x38 fs/built-in.o
                0x00000000878681e0                clear_nlink
 .text.set_nlink
                0x0000000087868218       0x44 fs/built-in.o
                0x0000000087868218                set_nlink
 .text.ubifs_iget
                0x000000008786825c      0x4e8 fs/built-in.o
                0x000000008786825c                ubifs_iget
 .text.ubifs_umount
                0x0000000087868744       0xb4 fs/built-in.o
                0x0000000087868744                ubifs_umount
 .text.sget     0x00000000878687f8       0x78 fs/built-in.o
                0x00000000878687f8                sget
 .text.ubifs_mount
                0x0000000087868870     0x1048 fs/built-in.o
 .text.ubifs_init
                0x00000000878698b8       0x28 fs/built-in.o
                0x00000000878698b8                ubifs_init
 .text.uboot_ubifs_mount
                0x00000000878698e0       0x68 fs/built-in.o
                0x00000000878698e0                uboot_ubifs_mount
 .text.key_r5_hash
                0x0000000087869948       0x40 fs/built-in.o
 .text.key_test_hash
                0x0000000087869988       0x40 fs/built-in.o
 .text.ubifs_read_sb_node
                0x00000000878699c8       0x6c fs/built-in.o
                0x00000000878699c8                ubifs_read_sb_node
 .text.ubifs_read_superblock
                0x0000000087869a34      0x82c fs/built-in.o
                0x0000000087869a34                ubifs_read_superblock
 .text.ubifs_read_master
                0x000000008786a260      0xce8 fs/built-in.o
                0x000000008786a260                ubifs_read_master
 .text.do_calc_lpt_geom
                0x000000008786af48      0x404 fs/built-in.o
 .text.calc_nnode_num_from_parent
                0x000000008786b34c       0x30 fs/built-in.o
 .text.validate_nnode
                0x000000008786b37c       0xcc fs/built-in.o
 .text.update_cats
                0x000000008786b448       0x40 fs/built-in.o
 .text.calc_pnode_num_from_parent.isra.2
                0x000000008786b488       0x38 fs/built-in.o
 .text.validate_pnode
                0x000000008786b4c0       0xb0 fs/built-in.o
 .text.ubifs_calc_lpt_geom
                0x000000008786b570       0xe8 fs/built-in.o
                0x000000008786b570                ubifs_calc_lpt_geom
 .text.ubifs_unpack_bits
                0x000000008786b658      0x1e4 fs/built-in.o
                0x000000008786b658                ubifs_unpack_bits
 .text.check_lpt_crc
                0x000000008786b83c       0x8c fs/built-in.o
 .text.check_lpt_type.constprop.8
                0x000000008786b8c8       0x60 fs/built-in.o
 .text.unpack_pnode
                0x000000008786b928       0xec fs/built-in.o
 .text.ubifs_add_lpt_dirt
                0x000000008786ba14       0x70 fs/built-in.o
                0x000000008786ba14                ubifs_add_lpt_dirt
 .text.ubifs_add_nnode_dirt
                0x000000008786ba84       0x60 fs/built-in.o
                0x000000008786ba84                ubifs_add_nnode_dirt
 .text.dirty_cow_nnode
                0x000000008786bae4      0x124 fs/built-in.o
 .text.ubifs_unpack_nnode
                0x000000008786bc08       0xc4 fs/built-in.o
                0x000000008786bc08                ubifs_unpack_nnode
 .text.ubifs_read_nnode
                0x000000008786bccc      0x184 fs/built-in.o
                0x000000008786bccc                ubifs_read_nnode
 .text.ubifs_get_nnode
                0x000000008786be50       0x30 fs/built-in.o
                0x000000008786be50                ubifs_get_nnode
 .text.ubifs_get_pnode
                0x000000008786be80      0x244 fs/built-in.o
                0x000000008786be80                ubifs_get_pnode
 .text.ubifs_lpt_lookup_dirty
                0x000000008786c0c4      0x254 fs/built-in.o
                0x000000008786c0c4                ubifs_lpt_lookup_dirty
 .text.ubifs_lpt_init
                0x000000008786c318      0x22c fs/built-in.o
                0x000000008786c318                ubifs_lpt_init
 .text.ubifs_lpt_free
                0x000000008786c544      0x1d0 fs/built-in.o
                0x000000008786c544                ubifs_lpt_free
 .text.ubifs_scan_a_node
                0x000000008786c714      0x1bc fs/built-in.o
                0x000000008786c714                ubifs_scan_a_node
 .text.ubifs_start_scan
                0x000000008786c8d0       0xd0 fs/built-in.o
                0x000000008786c8d0                ubifs_start_scan
 .text.ubifs_end_scan
                0x000000008786c9a0       0x58 fs/built-in.o
                0x000000008786c9a0                ubifs_end_scan
 .text.ubifs_add_snod
                0x000000008786c9f8       0xec fs/built-in.o
                0x000000008786c9f8                ubifs_add_snod
 .text.ubifs_scanned_corruption
                0x000000008786cae4       0xa8 fs/built-in.o
                0x000000008786cae4                ubifs_scanned_corruption
 .text.ubifs_scan_destroy
                0x000000008786cb8c       0x44 fs/built-in.o
                0x000000008786cb8c                ubifs_scan_destroy
 .text.ubifs_scan
                0x000000008786cbd0      0x2d8 fs/built-in.o
                0x000000008786cbd0                ubifs_scan
 .text.get_heap_comp_val
                0x000000008786cea8       0x2c fs/built-in.o
 .text.move_up_lpt_heap.isra.6
                0x000000008786ced4       0x7c fs/built-in.o
 .text.adjust_lpt_heap.isra.7
                0x000000008786cf50      0x1a0 fs/built-in.o
 .text.ubifs_remove_from_cat
                0x000000008786d0f0      0x198 fs/built-in.o
 .text.ubifs_add_to_cat
                0x000000008786d288      0x218 fs/built-in.o
                0x000000008786d288                ubifs_add_to_cat
 .text.ubifs_replace_cat
                0x000000008786d4a0       0x7c fs/built-in.o
                0x000000008786d4a0                ubifs_replace_cat
 .text.ubifs_categorize_lprops
                0x000000008786d51c       0xbc fs/built-in.o
                0x000000008786d51c                ubifs_categorize_lprops
 .text.ubifs_calc_dark
                0x000000008786d5d8       0x50 fs/built-in.o
                0x000000008786d5d8                ubifs_calc_dark
 .text.ubifs_change_lp
                0x000000008786d628      0x4e8 fs/built-in.o
                0x000000008786d628                ubifs_change_lp
 .text.ubifs_change_one_lp
                0x000000008786db10       0xd4 fs/built-in.o
                0x000000008786db10                ubifs_change_one_lp
 .text.ubifs_update_one_lp
                0x000000008786dbe4       0xd8 fs/built-in.o
                0x000000008786dbe4                ubifs_update_one_lp
 .text.insert_zbranch
                0x000000008786dcbc      0x104 fs/built-in.o
 .text.insert_old_idx
                0x000000008786ddc0       0xd4 fs/built-in.o
 .text.get_znode
                0x000000008786de94       0x3c fs/built-in.o
 .text.tnc_prev
                0x000000008786ded0       0x94 fs/built-in.o
 .text.tnc_next
                0x000000008786df64       0x9c fs/built-in.o
 .text.lnc_add_directly
                0x000000008786e000       0x7c fs/built-in.o
 .text.fallible_read_node
                0x000000008786e07c      0x168 fs/built-in.o
 .text.matches_name
                0x000000008786e1e4       0xd8 fs/built-in.o
 .text.resolve_collision
                0x000000008786e2bc      0x248 fs/built-in.o
 .text.fallible_matches_name
                0x000000008786e504      0x104 fs/built-in.o
 .text.fallible_resolve_collision
                0x000000008786e608      0x2d0 fs/built-in.o
 .text.lnc_free.isra.14
                0x000000008786e8d8       0x28 fs/built-in.o
 .text.key_in_range.isra.16
                0x000000008786e900       0x5c fs/built-in.o
 .text.correct_parent_keys.isra.17
                0x000000008786e95c       0xb0 fs/built-in.o
 .text.tnc_read_node_nm
                0x000000008786ea0c      0x13c fs/built-in.o
 .text.tnc_insert.constprop.20
                0x000000008786eb48      0x49c fs/built-in.o
 .text.dirty_cow_znode
                0x000000008786efe4      0x23c fs/built-in.o
 .text.dirty_cow_bottom_up
                0x000000008786f220      0x20c fs/built-in.o
 .text.lookup_level0_dirty
                0x000000008786f42c      0x1c0 fs/built-in.o
 .text.insert_old_idx_znode
                0x000000008786f5ec       0x50 fs/built-in.o
                0x000000008786f5ec                insert_old_idx_znode
 .text.tnc_delete
                0x000000008786f63c      0x3b4 fs/built-in.o
 .text.destroy_old_idx
                0x000000008786f9f0       0x40 fs/built-in.o
                0x000000008786f9f0                destroy_old_idx
 .text.ubifs_lookup_level0
                0x000000008786fa30      0x188 fs/built-in.o
                0x000000008786fa30                ubifs_lookup_level0
 .text.ubifs_tnc_locate
                0x000000008786fbb8      0x11c fs/built-in.o
                0x000000008786fbb8                ubifs_tnc_locate
 .text.ubifs_tnc_add
                0x000000008786fcd4       0xd4 fs/built-in.o
                0x000000008786fcd4                ubifs_tnc_add
 .text.ubifs_tnc_remove
                0x000000008786fda8       0x54 fs/built-in.o
                0x000000008786fda8                ubifs_tnc_remove
 .text.ubifs_tnc_remove_nm
                0x000000008786fdfc       0xd8 fs/built-in.o
                0x000000008786fdfc                ubifs_tnc_remove_nm
 .text.ubifs_tnc_add_nm
                0x000000008786fed4      0x1c8 fs/built-in.o
                0x000000008786fed4                ubifs_tnc_add_nm
 .text.ubifs_tnc_remove_range
                0x000000008787009c      0x20c fs/built-in.o
                0x000000008787009c                ubifs_tnc_remove_range
 .text.ubifs_tnc_next_ent
                0x00000000878702a8      0x140 fs/built-in.o
                0x00000000878702a8                ubifs_tnc_next_ent
 .text.ubifs_tnc_remove_ino
                0x00000000878703e8      0x130 fs/built-in.o
                0x00000000878703e8                ubifs_tnc_remove_ino
 .text.ubifs_tnc_close
                0x0000000087870518       0xe0 fs/built-in.o
                0x0000000087870518                ubifs_tnc_close
 .text.ubifs_search_zbranch
                0x00000000878705f8      0x1a4 fs/built-in.o
                0x00000000878705f8                ubifs_search_zbranch
 .text.ubifs_tnc_postorder_first
                0x000000008787079c       0x4c fs/built-in.o
                0x000000008787079c                ubifs_tnc_postorder_first
 .text.ubifs_tnc_postorder_next
                0x00000000878707e8       0x74 fs/built-in.o
                0x00000000878707e8                ubifs_tnc_postorder_next
 .text.ubifs_destroy_tnc_subtree
                0x000000008787085c       0xac fs/built-in.o
                0x000000008787085c                ubifs_destroy_tnc_subtree
 .text.ubifs_load_znode
                0x0000000087870908      0x520 fs/built-in.o
                0x0000000087870908                ubifs_load_znode
 .text.ubifs_tnc_read_node
                0x0000000087870e28       0xcc fs/built-in.o
                0x0000000087870e28                ubifs_tnc_read_node
 .text.dbg_snprintf_key
                0x0000000087870ef4      0x128 fs/built-in.o
                0x0000000087870ef4                dbg_snprintf_key
 .text.ubifs_dump_inode
                0x000000008787101c        0x4 fs/built-in.o
                0x000000008787101c                ubifs_dump_inode
 .text.ubifs_dump_node
                0x0000000087871020     0x1310 fs/built-in.o
                0x0000000087871020                ubifs_dump_node
 .text.ubifs_dump_znode
                0x0000000087872330      0x130 fs/built-in.o
                0x0000000087872330                ubifs_dump_znode
 .text.ubifs_dump_pnode
                0x0000000087872460       0xa4 fs/built-in.o
                0x0000000087872460                ubifs_dump_pnode
 .text.dbg_check_dir
                0x0000000087872504        0x8 fs/built-in.o
                0x0000000087872504                dbg_check_dir
 .text.dbg_debugfs_exit_fs
                0x000000008787250c        0x4 fs/built-in.o
                0x000000008787250c                dbg_debugfs_exit_fs
 .text.ubifs_debugging_init
                0x0000000087872510        0x8 fs/built-in.o
                0x0000000087872510                ubifs_debugging_init
 .text.ubifs_debugging_exit
                0x0000000087872518        0x4 fs/built-in.o
                0x0000000087872518                ubifs_debugging_exit
 .text.dbg_check_filesystem
                0x000000008787251c        0x8 fs/built-in.o
                0x000000008787251c                dbg_check_filesystem
 .text.dbg_debugfs_init_fs
                0x0000000087872524        0x8 fs/built-in.o
                0x0000000087872524                dbg_debugfs_init_fs
 .text.dbg_check_tnc
                0x000000008787252c        0x8 fs/built-in.o
                0x000000008787252c                dbg_check_tnc
 .text.dbg_check_idx_size
                0x0000000087872534        0x8 fs/built-in.o
                0x0000000087872534                dbg_check_idx_size
 .text.crc16    0x000000008787253c       0x34 fs/built-in.o
                0x000000008787253c                crc16
 .text.ubifs_calc_min_idx_lebs
                0x0000000087872570       0x94 fs/built-in.o
                0x0000000087872570                ubifs_calc_min_idx_lebs
 .text.ubifs_reported_space
                0x0000000087872604       0x74 fs/built-in.o
                0x0000000087872604                ubifs_reported_space
 .text.ubifs_search_bud
                0x0000000087872678       0x30 fs/built-in.o
                0x0000000087872678                ubifs_search_bud
 .text.ubifs_get_wbuf
                0x00000000878726a8       0x4c fs/built-in.o
                0x00000000878726a8                ubifs_get_wbuf
 .text.ubifs_add_bud
                0x00000000878726f4      0x104 fs/built-in.o
                0x00000000878726f4                ubifs_add_bud
 .text.ubifs_clear_orphans
                0x00000000878727f8       0x4c fs/built-in.o
                0x00000000878727f8                ubifs_clear_orphans
 .text.ubifs_mount_orphans
                0x0000000087872844      0x3fc fs/built-in.o
                0x0000000087872844                ubifs_mount_orphans
 .text.is_empty
                0x0000000087872c40       0x2c fs/built-in.o
 .text.find_ino
                0x0000000087872c6c       0x2c fs/built-in.o
 .text.get_master_node
                0x0000000087872c98      0x204 fs/built-in.o
 .text.add_ino  0x0000000087872e9c       0x98 fs/built-in.o
 .text.ubifs_recover_master_node
                0x0000000087872f34      0x298 fs/built-in.o
                0x0000000087872f34                ubifs_recover_master_node
 .text.ubifs_recover_leb
                0x00000000878731cc      0x550 fs/built-in.o
                0x00000000878731cc                ubifs_recover_leb
 .text.ubifs_recover_log_leb
                0x000000008787371c      0x2dc fs/built-in.o
                0x000000008787371c                ubifs_recover_log_leb
 .text.ubifs_destroy_size_tree
                0x00000000878739f8       0x54 fs/built-in.o
                0x00000000878739f8                ubifs_destroy_size_tree
 .text.ubifs_recover_size_accum
                0x0000000087873a4c      0x104 fs/built-in.o
                0x0000000087873a4c                ubifs_recover_size_accum
 .text.ubifs_recover_size
                0x0000000087873b50      0x1a4 fs/built-in.o
                0x0000000087873b50                ubifs_recover_size
 .text.replay_entries_cmp
                0x0000000087873cf4       0x64 fs/built-in.o
 .text.insert_node
                0x0000000087873d58       0xc8 fs/built-in.o
 .text.ubifs_validate_entry
                0x0000000087873e20      0x15c fs/built-in.o
                0x0000000087873e20                ubifs_validate_entry
 .text.ubifs_replay_journal
                0x0000000087873f7c     0x1148 fs/built-in.o
                0x0000000087873f7c                ubifs_replay_journal
 .text.ubifs_destroy_idx_gc
                0x00000000878750c4       0x48 fs/built-in.o
                0x00000000878750c4                ubifs_destroy_idx_gc
 .text.fs_devread
                0x000000008787510c      0x230 fs/built-in.o
                0x000000008787510c                fs_devread
 .text.efi_uc_destroy
                0x000000008787533c       0x18 lib/built-in.o
 .text.efi_uc_init
                0x0000000087875354       0x18 lib/built-in.o
 .text.check_node_type
                0x000000008787536c       0x88 lib/built-in.o
 .text.efi_uc_start
                0x00000000878753f4       0xdc lib/built-in.o
 .text.efi_uc_supported
                0x00000000878754d0       0xc0 lib/built-in.o
 .text.disconnect_child
                0x0000000087875590       0x70 lib/built-in.o
 .text.efi_uc_stop
                0x0000000087875600      0x13c lib/built-in.o
 .text.efi_driver_init
                0x000000008787573c      0x10c lib/built-in.o
                0x000000008787573c                efi_driver_init
 .text.efi_bl_write
                0x0000000087875848       0x64 lib/built-in.o
 .text.efi_bl_read
                0x00000000878758ac       0x64 lib/built-in.o
 .text.efi_bl_bind
                0x0000000087875910      0x128 lib/built-in.o
 .text.get_var.constprop.0
                0x0000000087875a38       0xb0 lib/built-in.o
 .text.efi_deserialize_load_option
                0x0000000087875ae8       0x68 lib/built-in.o
                0x0000000087875ae8                efi_deserialize_load_option
 .text.efi_bootmgr_load
                0x0000000087875b50      0x18c lib/built-in.o
                0x0000000087875b50                efi_bootmgr_load
 .text.efi_is_event
                0x0000000087875cdc       0x3c lib/built-in.o
 .text.__efi_entry_check
                0x0000000087875d18       0x38 lib/built-in.o
                0x0000000087875d18                __efi_entry_check
 .text.__efi_exit_check
                0x0000000087875d50       0x2c lib/built-in.o
                0x0000000087875d50                __efi_exit_check
 .text.efi_queue_event
                0x0000000087875d7c       0x60 lib/built-in.o
 .text.efi_start_image
                0x0000000087875ddc       0xac lib/built-in.o
                0x0000000087875ddc                efi_start_image
 .text.efi_set_mem
                0x0000000087875e88       0x2c lib/built-in.o
 .text.efi_copy_mem
                0x0000000087875eb4       0x2c lib/built-in.o
 .text.efi_calculate_crc32
                0x0000000087875ee0       0x34 lib/built-in.o
 .text.efi_set_watchdog_timer
                0x0000000087875f14       0x24 lib/built-in.o
 .text.efi_stall
                0x0000000087875f38       0x20 lib/built-in.o
 .text.efi_get_next_monotonic_count
                0x0000000087875f58       0x34 lib/built-in.o
 .text.efi_register_protocol_notify
                0x0000000087875f8c       0x14 lib/built-in.o
 .text.efi_close_event
                0x0000000087875fa0       0x50 lib/built-in.o
 .text.efi_free_pool_ext
                0x0000000087875ff0       0x24 lib/built-in.o
 .text.efi_allocate_pool_ext
                0x0000000087876014       0x34 lib/built-in.o
 .text.efi_get_memory_map_ext
                0x0000000087876048       0x48 lib/built-in.o
 .text.efi_free_pages_ext
                0x0000000087876090       0x34 lib/built-in.o
 .text.efi_allocate_pages_ext
                0x00000000878760c4       0x3c lib/built-in.o
 .text.efi_raise_tpl
                0x0000000087876100       0x34 lib/built-in.o
 .text.efi_save_gd
                0x0000000087876134       0x10 lib/built-in.o
                0x0000000087876134                efi_save_gd
 .text.efi_restore_gd
                0x0000000087876144       0x18 lib/built-in.o
                0x0000000087876144                efi_restore_gd
 .text.efi_exit
                0x000000008787615c       0x28 lib/built-in.o
 .text.is_valid_tpl
                0x0000000087876184       0x38 lib/built-in.o
                0x0000000087876184                is_valid_tpl
 .text.efi_signal_event
                0x00000000878761bc       0xf4 lib/built-in.o
                0x00000000878761bc                efi_signal_event
 .text.efi_exit_boot_services
                0x00000000878762b0      0x118 lib/built-in.o
 .text.efi_signal_event_ext
                0x00000000878763c8       0x40 lib/built-in.o
 .text.efi_add_handle
                0x0000000087876408       0x34 lib/built-in.o
                0x0000000087876408                efi_add_handle
 .text.efi_create_handle
                0x000000008787643c       0x34 lib/built-in.o
                0x000000008787643c                efi_create_handle
 .text.efi_create_event
                0x0000000087876470      0x104 lib/built-in.o
                0x0000000087876470                efi_create_event
 .text.efi_create_event_ex
                0x0000000087876574       0x50 lib/built-in.o
                0x0000000087876574                efi_create_event_ex
 .text.efi_create_event_ext
                0x00000000878765c4       0x50 lib/built-in.o
 .text.efi_timer_check
                0x0000000087876614       0xa4 lib/built-in.o
                0x0000000087876614                efi_timer_check
 .text.efi_check_event
                0x00000000878766b8       0x7c lib/built-in.o
 .text.efi_wait_for_event
                0x0000000087876734       0xe8 lib/built-in.o
 .text.efi_restore_tpl
                0x000000008787681c       0x30 lib/built-in.o
 .text.efi_set_timer
                0x000000008787684c       0xd8 lib/built-in.o
                0x000000008787684c                efi_set_timer
 .text.efi_set_timer_ext
                0x0000000087876924       0x3c lib/built-in.o
 .text.efi_search_obj
                0x0000000087876960       0x34 lib/built-in.o
                0x0000000087876960                efi_search_obj
 .text.efi_search_protocol
                0x0000000087876994       0x84 lib/built-in.o
                0x0000000087876994                efi_search_protocol
 .text.efi_remove_protocol
                0x0000000087876a18       0x78 lib/built-in.o
                0x0000000087876a18                efi_remove_protocol
 .text.efi_locate_protocol
                0x0000000087876a90       0x90 lib/built-in.o
 .text.efi_search.isra.10
                0x0000000087876b20       0x34 lib/built-in.o
 .text.efi_locate_handle
                0x0000000087876b54      0x104 lib/built-in.o
 .text.efi_locate_handle_buffer
                0x0000000087876c58       0xc0 lib/built-in.o
 .text.efi_locate_handle_ext
                0x0000000087876d18       0x48 lib/built-in.o
 .text.efi_open_protocol_information
                0x0000000087876d60       0xe4 lib/built-in.o
 .text.efi_close_protocol
                0x0000000087876e44       0xac lib/built-in.o
 .text.efi_locate_device_path
                0x0000000087876ef0      0x13c lib/built-in.o
 .text.efi_remove_all_protocols
                0x000000008787702c       0x5c lib/built-in.o
                0x000000008787702c                efi_remove_all_protocols
 .text.efi_delete_handle
                0x0000000087877088       0x34 lib/built-in.o
                0x0000000087877088                efi_delete_handle
 .text.efi_protocols_per_handle
                0x00000000878770bc       0xd8 lib/built-in.o
 .text.efi_open_protocol
                0x0000000087877194      0x26c lib/built-in.o
 .text.efi_disconnect_controller
                0x0000000087877400      0x260 lib/built-in.o
 .text.efi_disconnect_all_drivers
                0x0000000087877660      0x174 lib/built-in.o
 .text.efi_uninstall_protocol
                0x00000000878777d4       0xd0 lib/built-in.o
 .text.efi_uninstall_protocol_interface
                0x00000000878778a4       0x64 lib/built-in.o
 .text.efi_bind_controller
                0x0000000087877908       0xbc lib/built-in.o
 .text.efi_handle_protocol
                0x00000000878779c4       0x20 lib/built-in.o
 .text.efi_connect_controller
                0x00000000878779e4      0x1d0 lib/built-in.o
 .text.efi_unload_image
                0x0000000087877bb4       0x3c lib/built-in.o
 .text.efi_add_protocol
                0x0000000087877bf0       0xa0 lib/built-in.o
                0x0000000087877bf0                efi_add_protocol
 .text.efi_reinstall_protocol_interface
                0x0000000087877c90       0x70 lib/built-in.o
 .text.efi_install_protocol_interface
                0x0000000087877d00       0x7c lib/built-in.o
 .text.efi_uninstall_multiple_protocol_interfaces
                0x0000000087877d7c       0xf8 lib/built-in.o
 .text.efi_install_multiple_protocol_interfaces
                0x0000000087877e74       0xdc lib/built-in.o
 .text.efi_install_configuration_table
                0x0000000087877f50      0x18c lib/built-in.o
                0x0000000087877f50                efi_install_configuration_table
 .text.efi_install_configuration_table_ext
                0x00000000878780dc       0x2c lib/built-in.o
 .text.efi_setup_loaded_image
                0x0000000087878108       0xf8 lib/built-in.o
                0x0000000087878108                efi_setup_loaded_image
 .text.efi_load_image_from_path
                0x0000000087878200      0x164 lib/built-in.o
                0x0000000087878200                efi_load_image_from_path
 .text.efi_load_image
                0x0000000087878364      0x188 lib/built-in.o
 .text.efi_initialize_system_table
                0x00000000878784ec       0x48 lib/built-in.o
                0x00000000878784ec                efi_initialize_system_table
 .text.efi_cout_enable_cursor
                0x0000000087878534       0x30 lib/built-in.o
 .text.efi_cout_set_cursor_position
                0x0000000087878564       0x8c lib/built-in.o
 .text.efi_cout_clear_screen
                0x00000000878785f0       0x34 lib/built-in.o
 .text.efi_cout_set_attribute
                0x0000000087878624       0x5c lib/built-in.o
 .text.efi_cout_test_string
                0x0000000087878680       0x14 lib/built-in.o
 .text.efi_cout_reset
                0x0000000087878694       0x34 lib/built-in.o
 .text.efi_cin_set_state
                0x00000000878786c8       0x14 lib/built-in.o
 .text.efi_cout_output_string
                0x00000000878786dc      0x13c lib/built-in.o
 .text.efi_cin_unregister_key_notify
                0x0000000087878818       0x70 lib/built-in.o
 .text.efi_cin_empty_buffer
                0x0000000087878888       0x28 lib/built-in.o
 .text.efi_cin_reset
                0x00000000878788b0       0x2c lib/built-in.o
 .text.efi_cin_reset_ex
                0x00000000878788dc       0x2c lib/built-in.o
 .text.efi_cin_register_key_notify
                0x0000000087878908       0x94 lib/built-in.o
 .text.term_get_char
                0x000000008787899c       0x44 lib/built-in.o
 .text.efi_cout_set_mode
                0x00000000878789e0       0x48 lib/built-in.o
 .text.efi_cout_query_mode
                0x0000000087878a28       0x80 lib/built-in.o
 .text.set_shift_mask
                0x0000000087878aa8       0x60 lib/built-in.o
                0x0000000087878aa8                set_shift_mask
 .text.unlikely.analyze_modifiers.constprop.7
                0x0000000087878b08       0x98 lib/built-in.o
 .text.efi_cin_check
                0x0000000087878ba0      0x370 lib/built-in.o
 .text.efi_cin_read_key_stroke
                0x0000000087878f10       0x7c lib/built-in.o
 .text.efi_console_timer_notify
                0x0000000087878f8c       0x14 lib/built-in.o
 .text.efi_key_notify
                0x0000000087878fa0       0x14 lib/built-in.o
 .text.efi_cin_read_key_stroke_ex
                0x0000000087878fb4       0x74 lib/built-in.o
 .text.efi_console_register
                0x0000000087879028      0x308 lib/built-in.o
                0x0000000087879028                efi_console_register
 .text.dp_size  0x0000000087879330       0xa8 lib/built-in.o
 .text.dp_alloc
                0x00000000878793d8       0x3c lib/built-in.o
 .text.dp_part_size
                0x0000000087879414       0x50 lib/built-in.o
 .text.dp_part_node
                0x0000000087879464      0x1e0 lib/built-in.o
 .text.dp_fill  0x0000000087879644      0x218 lib/built-in.o
 .text.dp_part_fill
                0x000000008787985c       0x54 lib/built-in.o
 .text.efi_dp_next
                0x00000000878798b0       0x3c lib/built-in.o
                0x00000000878798b0                efi_dp_next
 .text.efi_dp_match
                0x00000000878798ec       0x70 lib/built-in.o
                0x00000000878798ec                efi_dp_match
 .text.efi_dp_last_node
                0x000000008787995c       0x3c lib/built-in.o
                0x000000008787995c                efi_dp_last_node
 .text.efi_dp_instance_size
                0x0000000087879998       0x48 lib/built-in.o
                0x0000000087879998                efi_dp_instance_size
 .text.find_obj
                0x00000000878799e0      0x10c lib/built-in.o
 .text.efi_dp_find_obj
                0x0000000087879aec       0x4c lib/built-in.o
                0x0000000087879aec                efi_dp_find_obj
 .text.efi_dp_size
                0x0000000087879b38       0x40 lib/built-in.o
                0x0000000087879b38                efi_dp_size
 .text.efi_dp_dup
                0x0000000087879b78       0x48 lib/built-in.o
                0x0000000087879b78                efi_dp_dup
 .text.efi_dp_append
                0x0000000087879bc0       0x94 lib/built-in.o
                0x0000000087879bc0                efi_dp_append
 .text.efi_dp_append_node
                0x0000000087879c54       0xe8 lib/built-in.o
                0x0000000087879c54                efi_dp_append_node
 .text.efi_dp_create_device_node
                0x0000000087879d3c       0x34 lib/built-in.o
                0x0000000087879d3c                efi_dp_create_device_node
 .text.efi_dp_append_instance
                0x0000000087879d70       0xa0 lib/built-in.o
                0x0000000087879d70                efi_dp_append_instance
 .text.efi_dp_get_next_instance
                0x0000000087879e10       0x8c lib/built-in.o
                0x0000000087879e10                efi_dp_get_next_instance
 .text.efi_dp_is_multi_instance
                0x0000000087879e9c       0x3c lib/built-in.o
                0x0000000087879e9c                efi_dp_is_multi_instance
 .text.efi_dp_from_part
                0x0000000087879ed8       0x44 lib/built-in.o
                0x0000000087879ed8                efi_dp_from_part
 .text.efi_dp_part_node
                0x0000000087879f1c       0x38 lib/built-in.o
                0x0000000087879f1c                efi_dp_part_node
 .text.efi_dp_from_file
                0x0000000087879f54       0xbc lib/built-in.o
                0x0000000087879f54                efi_dp_from_file
 .text.efi_dp_from_eth
                0x000000008787a010       0x48 lib/built-in.o
                0x000000008787a010                efi_dp_from_eth
 .text.efi_dp_from_mem
                0x000000008787a058       0xf0 lib/built-in.o
                0x000000008787a058                efi_dp_from_mem
 .text.efi_dp_split_file_path
                0x000000008787a148       0x94 lib/built-in.o
                0x000000008787a148                efi_dp_split_file_path
 .text.efi_dp_from_name
                0x000000008787a1dc      0x134 lib/built-in.o
                0x000000008787a1dc                efi_dp_from_name
 .text.efi_str_to_u16
                0x000000008787a310       0x58 lib/built-in.o
 .text.efi_convert_single_device_node_to_text
                0x000000008787a368      0x48c lib/built-in.o
 .text.efi_convert_device_path_to_text
                0x000000008787a7f4       0x7c lib/built-in.o
 .text.efi_convert_device_node_to_text
                0x000000008787a870       0x40 lib/built-in.o
 .text.efi_dp_str
                0x000000008787a8b0       0x2c lib/built-in.o
                0x000000008787a8b0                efi_dp_str
 .text.create_device_node
                0x000000008787a8dc       0x34 lib/built-in.o
 .text.is_device_path_multi_instance
                0x000000008787a910       0x24 lib/built-in.o
 .text.get_next_device_path_instance
                0x000000008787a934       0x2c lib/built-in.o
 .text.append_device_path_instance
                0x000000008787a960       0x2c lib/built-in.o
 .text.append_device_node
                0x000000008787a98c       0x2c lib/built-in.o
 .text.append_device_path
                0x000000008787a9b8       0x2c lib/built-in.o
 .text.duplicate_device_path
                0x000000008787a9e4       0x24 lib/built-in.o
 .text.get_device_path_size
                0x000000008787aa08       0x2c lib/built-in.o
 .text.efi_file_flush
                0x000000008787aa34       0x14 lib/built-in.o
 .text.efi_file_setinfo
                0x000000008787aa48       0x14 lib/built-in.o
 .text.efi_file_getpos
                0x000000008787aa5c       0x30 lib/built-in.o
 .text.set_blk_dev.isra.0
                0x000000008787aa8c        0xc lib/built-in.o
 .text.file_open
                0x000000008787aa98      0x2b4 lib/built-in.o
 .text.efi_open_volume
                0x000000008787ad4c       0x44 lib/built-in.o
 .text.efi_file_open
                0x000000008787ad90       0xc4 lib/built-in.o
 .text.efi_file_getinfo
                0x000000008787ae54      0x1e8 lib/built-in.o
 .text.efi_file_setpos
                0x000000008787b03c       0x9c lib/built-in.o
 .text.efi_file_write
                0x000000008787b0d8       0x88 lib/built-in.o
 .text.efi_file_read
                0x000000008787b160      0x1dc lib/built-in.o
 .text.efi_file_delete
                0x000000008787b33c       0x50 lib/built-in.o
 .text.efi_file_close
                0x000000008787b38c       0x28 lib/built-in.o
 .text.efi_file_from_path
                0x000000008787b3b4      0x128 lib/built-in.o
                0x000000008787b3b4                efi_file_from_path
 .text.efi_simple_file_system
                0x000000008787b4dc       0x44 lib/built-in.o
                0x000000008787b4dc                efi_simple_file_system
 .text.efi_set_code_and_data_type
                0x000000008787b520       0x88 lib/built-in.o
 .text.efi_print_image_infos
                0x000000008787b5a8       0xe0 lib/built-in.o
                0x000000008787b5a8                efi_print_image_infos
 .text.efi_load_pe
                0x000000008787b688      0x3c8 lib/built-in.o
                0x000000008787b688                efi_load_pe
 .text.efi_mem_cmp
                0x000000008787ba50       0x30 lib/built-in.o
 .text.efi_find_free_memory
                0x000000008787ba80       0xe0 lib/built-in.o
 .text.efi_add_memory_map
                0x000000008787bb60      0x43c lib/built-in.o
                0x000000008787bb60                efi_add_memory_map
 .text.efi_allocate_pages
                0x000000008787bf9c       0xb4 lib/built-in.o
                0x000000008787bf9c                efi_allocate_pages
 .text.efi_alloc
                0x000000008787c050       0x50 lib/built-in.o
                0x000000008787c050                efi_alloc
 .text.efi_free_pages
                0x000000008787c0a0       0x38 lib/built-in.o
                0x000000008787c0a0                efi_free_pages
 .text.efi_allocate_pool
                0x000000008787c0d8       0x68 lib/built-in.o
                0x000000008787c0d8                efi_allocate_pool
 .text.efi_free_pool
                0x000000008787c140       0x20 lib/built-in.o
                0x000000008787c140                efi_free_pool
 .text.efi_get_memory_map
                0x000000008787c160       0xd4 lib/built-in.o
                0x000000008787c160                efi_get_memory_map
 .text.efi_add_known_memory
                0x000000008787c234      0x124 lib/built-in.o
                0x000000008787c234                efi_add_known_memory
 .text.efi_memory_init
                0x000000008787c358       0x88 lib/built-in.o
                0x000000008787c358                efi_memory_init
 .text.efi_root_node_register
                0x000000008787c3e0       0xf4 lib/built-in.o
                0x000000008787c3e0                efi_root_node_register
 .text.efi_reset_system_boottime
                0x000000008787c4d4       0x8c lib/built-in.o
 .text.efi_get_time_boottime
                0x000000008787c560       0x14 lib/built-in.o
 .text.efi_reset_system_init
                0x000000008787c574        0x8 lib/built-in.o
                0x000000008787c574                efi_reset_system_init
 .text.efi_set_virtual_address_map
                0x000000008787c57c      0x208 lib/built-in.o
 .text.efi_init_obj_list
                0x000000008787c784       0x8c lib/built-in.o
                0x000000008787c784                efi_init_obj_list
 .text.metai_match
                0x000000008787c810      0x12c lib/built-in.o
 .text.efi_str_to_fat
                0x000000008787c93c       0xd0 lib/built-in.o
 .text.efi_fat_to_str
                0x000000008787ca0c       0x68 lib/built-in.o
 .text.efi_str_upr
                0x000000008787ca74       0x2c lib/built-in.o
 .text.efi_metai_match
                0x000000008787caa0       0x2c lib/built-in.o
 .text.efi_stri_coll
                0x000000008787cacc       0x5c lib/built-in.o
 .text.efi_str_lwr
                0x000000008787cb28       0x2c lib/built-in.o
 .text.efi_to_native
                0x000000008787cb54       0x88 lib/built-in.o
 .text.prefix   0x000000008787cbdc       0x38 lib/built-in.o
 .text.parse_attr
                0x000000008787cc14       0xb8 lib/built-in.o
 .text.efi_get_variable
                0x000000008787cccc      0x1fc lib/built-in.o
                0x000000008787cccc                efi_get_variable
 .text.efi_get_next_variable_name
                0x000000008787cec8      0x290 lib/built-in.o
                0x000000008787cec8                efi_get_next_variable_name
 .text.efi_set_variable
                0x000000008787d158      0x1f8 lib/built-in.o
                0x000000008787d158                efi_set_variable
 .text.efi_watchdog_timer_notify
                0x000000008787d350       0x44 lib/built-in.o
 .text.efi_set_watchdog
                0x000000008787d394       0x2c lib/built-in.o
                0x000000008787d394                efi_set_watchdog
 .text.efi_watchdog_register
                0x000000008787d3c0       0x78 lib/built-in.o
                0x000000008787d3c0                efi_watchdog_register
 .text.efi_disk_flush_blocks
                0x000000008787d438       0x14 lib/built-in.o
 .text.efi_disk_reset
                0x000000008787d44c       0x14 lib/built-in.o
 .text.efi_disk_add_dev.isra.0.part.1
                0x000000008787d460      0x19c lib/built-in.o
 .text.efi_disk_read_blocks
                0x000000008787d5fc       0x70 lib/built-in.o
 .text.efi_disk_write_blocks
                0x000000008787d66c       0x70 lib/built-in.o
 .text.efi_fs_from_path
                0x000000008787d6dc       0x74 lib/built-in.o
                0x000000008787d6dc                efi_fs_from_path
 .text.efi_disk_create_partitions
                0x000000008787d750       0xe8 lib/built-in.o
                0x000000008787d750                efi_disk_create_partitions
 .text.efi_disk_register
                0x000000008787d838      0x114 lib/built-in.o
                0x000000008787d838                efi_disk_register
 .text.efi_net_push
                0x000000008787d94c       0x24 lib/built-in.o
 .text.efi_network_timer_notify
                0x000000008787d970       0x5c lib/built-in.o
 .text.efi_net_nvdata
                0x000000008787d9cc       0x14 lib/built-in.o
 .text.efi_net_mcastiptomac
                0x000000008787d9e0       0x14 lib/built-in.o
 .text.efi_net_statistics
                0x000000008787d9f4       0x14 lib/built-in.o
 .text.efi_net_station_address
                0x000000008787da08       0x14 lib/built-in.o
 .text.efi_net_receive_filters
                0x000000008787da1c       0x14 lib/built-in.o
 .text.efi_net_stop
                0x000000008787da30       0x3c lib/built-in.o
 .text.efi_net_start
                0x000000008787da6c       0x3c lib/built-in.o
 .text.efi_net_get_status
                0x000000008787daa8       0x94 lib/built-in.o
 .text.efi_net_receive
                0x000000008787db3c      0x154 lib/built-in.o
 .text.efi_net_transmit
                0x000000008787dc90       0x9c lib/built-in.o
 .text.efi_net_shutdown
                0x000000008787dd2c       0x34 lib/built-in.o
 .text.efi_net_initialize
                0x000000008787dd60       0x5c lib/built-in.o
 .text.efi_net_reset
                0x000000008787ddbc       0x34 lib/built-in.o
 .text.efi_net_set_dhcp_ack
                0x000000008787ddf0       0x48 lib/built-in.o
                0x000000008787ddf0                efi_net_set_dhcp_ack
 .text.efi_net_register
                0x000000008787de38      0x298 lib/built-in.o
                0x000000008787de38                efi_net_register
 .text.efi_smbios_register
                0x000000008787e0d0       0x74 lib/built-in.o
                0x000000008787e0d0                efi_smbios_register
 .text.get_code
                0x000000008787e144       0xd8 lib/built-in.o
 .text.read_string
                0x000000008787e21c       0x34 lib/built-in.o
 .text.read_console
                0x000000008787e250       0x14 lib/built-in.o
 .text.console_read_unicode
                0x000000008787e264       0x38 lib/built-in.o
                0x000000008787e264                console_read_unicode
 .text.utf8_get
                0x000000008787e29c       0x10 lib/built-in.o
                0x000000008787e29c                utf8_get
 .text.utf8_put
                0x000000008787e2ac       0xf8 lib/built-in.o
                0x000000008787e2ac                utf8_put
 .text.utf8_utf16_strnlen
                0x000000008787e3a4       0x60 lib/built-in.o
                0x000000008787e3a4                utf8_utf16_strnlen
 .text.utf16_get
                0x000000008787e404       0x88 lib/built-in.o
                0x000000008787e404                utf16_get
 .text.utf16_put
                0x000000008787e48c       0x84 lib/built-in.o
                0x000000008787e48c                utf16_put
 .text.utf8_utf16_strncpy
                0x000000008787e510       0x7c lib/built-in.o
                0x000000008787e510                utf8_utf16_strncpy
 .text.utf16_strnlen
                0x000000008787e58c       0x48 lib/built-in.o
                0x000000008787e58c                utf16_strnlen
 .text.utf16_utf8_strnlen
                0x000000008787e5d4       0x78 lib/built-in.o
                0x000000008787e5d4                utf16_utf8_strnlen
 .text.utf16_utf8_strncpy
                0x000000008787e64c       0x7c lib/built-in.o
                0x000000008787e64c                utf16_utf8_strncpy
 .text.utf_to_lower
                0x000000008787e6c8       0x48 lib/built-in.o
                0x000000008787e6c8                utf_to_lower
 .text.utf_to_upper
                0x000000008787e710       0x48 lib/built-in.o
                0x000000008787e710                utf_to_upper
 .text.u16_strlen
                0x000000008787e758       0x1c lib/built-in.o
                0x000000008787e758                u16_strlen
 .text.utf16_to_utf8
                0x000000008787e774      0x13c lib/built-in.o
                0x000000008787e774                utf16_to_utf8
 .text.crc16_ccitt
                0x000000008787e8b0       0x3c lib/built-in.o
                0x000000008787e8b0                crc16_ccitt
 .text.smbios_write_type127
                0x000000008787e8ec       0x54 lib/built-in.o
 .text.smbios_write_type32
                0x000000008787e940       0x54 lib/built-in.o
 .text.smbios_string_table_len
                0x000000008787e994       0x38 lib/built-in.o
 .text.smbios_add_string
                0x000000008787e9cc       0x6c lib/built-in.o
 .text.smbios_write_type3
                0x000000008787ea38       0x8c lib/built-in.o
 .text.smbios_write_type2
                0x000000008787eac4       0x9c lib/built-in.o
 .text.smbios_write_type0
                0x000000008787eb60       0xf4 lib/built-in.o
 .text.smbios_write_type1
                0x000000008787ec54       0xc4 lib/built-in.o
 .text.smbios_write_type4
                0x000000008787ed18       0xd8 lib/built-in.o
 .text.write_smbios_table
                0x000000008787edf0      0x11c lib/built-in.o
                0x000000008787edf0                write_smbios_table
 .text.default_log
                0x000000008787ef0c        0x4 lib/built-in.o
 .text.write_sparse_image
                0x000000008787ef10      0x478 lib/built-in.o
                0x000000008787ef10                write_sparse_image
 .text.string_to_ip
                0x000000008787f388       0xac lib/built-in.o
                0x000000008787f388                string_to_ip
 .text.rb_insert_color
                0x000000008787f434      0x164 lib/built-in.o
                0x000000008787f434                rb_insert_color
 .text.rb_erase
                0x000000008787f598      0x360 lib/built-in.o
                0x000000008787f598                rb_erase
 .text.rb_first
                0x000000008787f8f8       0x24 lib/built-in.o
                0x000000008787f8f8                rb_first
 .text.rb_last  0x000000008787f91c       0x24 lib/built-in.o
                0x000000008787f91c                rb_last
 .text.rb_next  0x000000008787f940       0x60 lib/built-in.o
                0x000000008787f940                rb_next
 .text.rb_next_postorder
                0x000000008787f9a0       0x54 lib/built-in.o
                0x000000008787f9a0                rb_next_postorder
 .text.rb_first_postorder
                0x000000008787f9f4       0x34 lib/built-in.o
                0x000000008787f9f4                rb_first_postorder
 .text.merge    0x000000008787fa28       0x68 lib/built-in.o
 .text.list_sort
                0x000000008787fa90      0x198 lib/built-in.o
                0x000000008787fa90                list_sort
 .text.zcalloc  0x000000008787fc28        0x8 lib/built-in.o
                0x000000008787fc28                zcalloc
 .text.zcfree   0x000000008787fc30        0x8 lib/built-in.o
                0x000000008787fc30                zcfree
 .text.inflate_fast
                0x000000008787fc38      0x590 lib/built-in.o
                0x000000008787fc38                inflate_fast
 .text.inflate_table
                0x00000000878801c8      0x54c lib/built-in.o
                0x00000000878801c8                inflate_table
 .text.inflateReset
                0x0000000087880714       0x78 lib/built-in.o
                0x0000000087880714                inflateReset
 .text.inflateInit2_
                0x000000008788078c      0x104 lib/built-in.o
                0x000000008788078c                inflateInit2_
 .text.inflateEnd
                0x0000000087880890       0x68 lib/built-in.o
                0x0000000087880890                inflateEnd
 .text.adler32  0x00000000878808f8      0x338 lib/built-in.o
                0x00000000878808f8                adler32
 .text.inflate  0x0000000087880c30     0x150c lib/built-in.o
                0x0000000087880c30                inflate
 .text.gzalloc  0x000000008788213c       0x10 lib/built-in.o
                0x000000008788213c                gzalloc
 .text.gzfree   0x000000008788214c        0x8 lib/built-in.o
                0x000000008788214c                gzfree
 .text.gzip_parse_header
                0x0000000087882154       0xa4 lib/built-in.o
                0x0000000087882154                gzip_parse_header
 .text.zunzip   0x00000000878821f8      0x118 lib/built-in.o
                0x00000000878821f8                zunzip
 .text.gunzip   0x0000000087882310       0x50 lib/built-in.o
                0x0000000087882310                gunzip
 .text.lzop_is_valid_header
                0x0000000087882360       0x38 lib/built-in.o
                0x0000000087882360                lzop_is_valid_header
 .text.lzo1x_decompress_safe
                0x0000000087882398      0x63c lib/built-in.o
                0x0000000087882398                lzo1x_decompress_safe
 .text.lzop_decompress
                0x00000000878829d4      0x168 lib/built-in.o
                0x00000000878829d4                lzop_decompress
 .text.fdt_check_header
                0x0000000087882b3c       0x74 lib/built-in.o
                0x0000000087882b3c                fdt_check_header
 .text.fdt_offset_ptr
                0x0000000087882bb0       0x6c lib/built-in.o
                0x0000000087882bb0                fdt_offset_ptr
 .text.fdt_next_tag
                0x0000000087882c1c      0x11c lib/built-in.o
                0x0000000087882c1c                fdt_next_tag
 .text.fdt_check_node_offset_
                0x0000000087882d38       0x3c lib/built-in.o
                0x0000000087882d38                fdt_check_node_offset_
 .text.fdt_check_prop_offset_
                0x0000000087882d74       0x3c lib/built-in.o
                0x0000000087882d74                fdt_check_prop_offset_
 .text.fdt_next_node
                0x0000000087882db0       0xb8 lib/built-in.o
                0x0000000087882db0                fdt_next_node
 .text.fdt_first_subnode
                0x0000000087882e68       0x34 lib/built-in.o
                0x0000000087882e68                fdt_first_subnode
 .text.fdt_next_subnode
                0x0000000087882e9c       0x50 lib/built-in.o
                0x0000000087882e9c                fdt_next_subnode
 .text.fdt_find_string_
                0x0000000087882eec       0x5c lib/built-in.o
                0x0000000087882eec                fdt_find_string_
 .text.fdt_move
                0x0000000087882f48       0x48 lib/built-in.o
                0x0000000087882f48                fdt_move
 .text.fdt_setprop_inplace_namelen_partial
                0x0000000087882f90       0x54 lib/built-in.o
                0x0000000087882f90                fdt_setprop_inplace_namelen_partial
 .text.fdt_setprop_inplace
                0x0000000087882fe4       0x74 lib/built-in.o
                0x0000000087882fe4                fdt_setprop_inplace
 .text.fdt_node_end_offset_
                0x0000000087883058       0x44 lib/built-in.o
                0x0000000087883058                fdt_node_end_offset_
 .text.fdt_strerror
                0x000000008788309c       0x58 lib/built-in.o
                0x000000008788309c                fdt_strerror
 .text.fdt_blocks_misordered_
                0x00000000878830f4       0x68 lib/built-in.o
 .text.fdt_splice_
                0x000000008788315c       0x98 lib/built-in.o
 .text.fdt_splice_mem_rsv_
                0x00000000878831f4       0x58 lib/built-in.o
 .text.fdt_splice_struct_
                0x000000008788324c       0x4c lib/built-in.o
 .text.fdt_packblocks_
                0x0000000087883298       0xa8 lib/built-in.o
 .text.fdt_add_property_
                0x0000000087883340      0x130 lib/built-in.o
 .text.fdt_rw_check_header_
                0x0000000087883470       0x60 lib/built-in.o
 .text.fdt_add_mem_rsv
                0x00000000878834d0       0x8c lib/built-in.o
                0x00000000878834d0                fdt_add_mem_rsv
 .text.fdt_del_mem_rsv
                0x000000008788355c       0x5c lib/built-in.o
                0x000000008788355c                fdt_del_mem_rsv
 .text.fdt_setprop_placeholder
                0x00000000878835b8       0xc0 lib/built-in.o
                0x00000000878835b8                fdt_setprop_placeholder
 .text.fdt_setprop
                0x0000000087883678       0x4c lib/built-in.o
                0x0000000087883678                fdt_setprop
 .text.fdt_delprop
                0x00000000878836c4       0x64 lib/built-in.o
                0x00000000878836c4                fdt_delprop
 .text.fdt_add_subnode_namelen
                0x0000000087883728       0xf0 lib/built-in.o
                0x0000000087883728                fdt_add_subnode_namelen
 .text.fdt_add_subnode
                0x0000000087883818       0x30 lib/built-in.o
                0x0000000087883818                fdt_add_subnode
 .text.fdt_del_node
                0x0000000087883848       0x60 lib/built-in.o
                0x0000000087883848                fdt_del_node
 .text.fdt_open_into
                0x00000000878838a8      0x19c lib/built-in.o
                0x00000000878838a8                fdt_open_into
 .text.fdt_address_cells
                0x0000000087883a44       0x4c lib/built-in.o
                0x0000000087883a44                fdt_address_cells
 .text.fdt_size_cells
                0x0000000087883a90       0x48 lib/built-in.o
                0x0000000087883a90                fdt_size_cells
 .text.overlay_phandle_add_offset
                0x0000000087883ad8       0x8c lib/built-in.o
 .text.overlay_adjust_node_phandles
                0x0000000087883b64       0x98 lib/built-in.o
 .text.overlay_update_local_node_references
                0x0000000087883bfc      0x1c0 lib/built-in.o
 .text.overlay_get_target
                0x0000000087883dbc       0xcc lib/built-in.o
 .text.overlay_apply_node
                0x0000000087883e88      0x128 lib/built-in.o
 .text.fdt_overlay_apply
                0x0000000087883fb0      0x6e0 lib/built-in.o
                0x0000000087883fb0                fdt_overlay_apply
 .text.fdt_path_next_separator
                0x0000000087884690       0x58 lib/built-in.o
 .text._nextprop
                0x00000000878846e8       0x5c lib/built-in.o
 .text.fdt_string
                0x0000000087884744       0x14 lib/built-in.o
                0x0000000087884744                fdt_string
 .text.fdt_get_mem_rsv
                0x0000000087884758       0x70 lib/built-in.o
                0x0000000087884758                fdt_get_mem_rsv
 .text.fdt_num_mem_rsv
                0x00000000878847c8       0x3c lib/built-in.o
                0x00000000878847c8                fdt_num_mem_rsv
 .text.fdt_subnode_offset_namelen
                0x0000000087884804       0xd0 lib/built-in.o
                0x0000000087884804                fdt_subnode_offset_namelen
 .text.fdt_subnode_offset
                0x00000000878848d4       0x30 lib/built-in.o
                0x00000000878848d4                fdt_subnode_offset
 .text.fdt_get_name
                0x0000000087884904       0x74 lib/built-in.o
                0x0000000087884904                fdt_get_name
 .text.fdt_first_property_offset
                0x0000000087884978       0x20 lib/built-in.o
                0x0000000087884978                fdt_first_property_offset
 .text.fdt_next_property_offset
                0x0000000087884998       0x20 lib/built-in.o
                0x0000000087884998                fdt_next_property_offset
 .text.fdt_get_property_by_offset
                0x00000000878849b8       0x50 lib/built-in.o
                0x00000000878849b8                fdt_get_property_by_offset
 .text.fdt_get_property_namelen
                0x0000000087884a08       0xb8 lib/built-in.o
                0x0000000087884a08                fdt_get_property_namelen
 .text.fdt_get_property
                0x0000000087884ac0       0x3c lib/built-in.o
                0x0000000087884ac0                fdt_get_property
 .text.fdt_getprop_namelen
                0x0000000087884afc       0x20 lib/built-in.o
                0x0000000087884afc                fdt_getprop_namelen
 .text.fdt_getprop_by_offset
                0x0000000087884b1c       0x48 lib/built-in.o
                0x0000000087884b1c                fdt_getprop_by_offset
 .text.fdt_getprop
                0x0000000087884b64       0x3c lib/built-in.o
                0x0000000087884b64                fdt_getprop
 .text.fdt_get_phandle
                0x0000000087884ba0       0x70 lib/built-in.o
                0x0000000087884ba0                fdt_get_phandle
 .text.fdt_get_max_phandle
                0x0000000087884c10       0x78 lib/built-in.o
                0x0000000087884c10                fdt_get_max_phandle
 .text.fdt_get_alias_namelen
                0x0000000087884c88       0x48 lib/built-in.o
                0x0000000087884c88                fdt_get_alias_namelen
 .text.fdt_path_offset_namelen
                0x0000000087884cd0       0xe8 lib/built-in.o
                0x0000000087884cd0                fdt_path_offset_namelen
 .text.fdt_path_offset
                0x0000000087884db8       0x28 lib/built-in.o
                0x0000000087884db8                fdt_path_offset
 .text.fdt_get_path
                0x0000000087884de0      0x138 lib/built-in.o
                0x0000000087884de0                fdt_get_path
 .text.fdt_supernode_atdepth_offset
                0x0000000087884f18       0xb4 lib/built-in.o
                0x0000000087884f18                fdt_supernode_atdepth_offset
 .text.fdt_node_depth
                0x0000000087884fcc       0x28 lib/built-in.o
                0x0000000087884fcc                fdt_node_depth
 .text.fdt_parent_offset
                0x0000000087884ff4       0x30 lib/built-in.o
                0x0000000087884ff4                fdt_parent_offset
 .text.fdt_node_offset_by_phandle
                0x0000000087885024       0x74 lib/built-in.o
                0x0000000087885024                fdt_node_offset_by_phandle
 .text.fdt_stringlist_search
                0x0000000087885098       0xa8 lib/built-in.o
                0x0000000087885098                fdt_stringlist_search
 .text.fdtdec_get_int
                0x0000000087885140       0x38 lib/built-in.o
                0x0000000087885140                fdtdec_get_int
 .text.get_prop_check_min_len
                0x0000000087885178       0x3c lib/built-in.o
 .text.fdtdec_get_is_enabled
                0x00000000878851b4       0x3c lib/built-in.o
                0x00000000878851b4                fdtdec_get_is_enabled
 .text.fdtdec_get_alias_seq
                0x00000000878851f0      0x118 lib/built-in.o
                0x00000000878851f0                fdtdec_get_alias_seq
 .text.fdtdec_get_alias_highest_id
                0x0000000087885308       0xc0 lib/built-in.o
                0x0000000087885308                fdtdec_get_alias_highest_id
 .text.fdtdec_prepare_fdt
                0x00000000878853c8       0x44 lib/built-in.o
                0x00000000878853c8                fdtdec_prepare_fdt
 .text.fdtdec_lookup_phandle
                0x000000008788540c       0x34 lib/built-in.o
                0x000000008788540c                fdtdec_lookup_phandle
 .text.fdtdec_get_int_array
                0x0000000087885440       0x5c lib/built-in.o
                0x0000000087885440                fdtdec_get_int_array
 .text.fdtdec_get_int_array_count
                0x000000008788549c       0x58 lib/built-in.o
                0x000000008788549c                fdtdec_get_int_array_count
 .text.fdtdec_get_bool
                0x00000000878854f4       0x1c lib/built-in.o
                0x00000000878854f4                fdtdec_get_bool
 .text.fdtdec_parse_phandle_with_args
                0x0000000087885510      0x15c lib/built-in.o
                0x0000000087885510                fdtdec_parse_phandle_with_args
 .text.fdtdec_get_byte_array
                0x000000008788566c       0x40 lib/built-in.o
                0x000000008788566c                fdtdec_get_byte_array
 .text.fdtdec_get_config_int
                0x00000000878856ac       0x40 lib/built-in.o
                0x00000000878856ac                fdtdec_get_config_int
 .text.fdtdec_get_config_string
                0x00000000878856ec       0x3c lib/built-in.o
                0x00000000878856ec                fdtdec_get_config_string
 .text.fdtdec_get_number
                0x0000000087885728       0x3c lib/built-in.o
                0x0000000087885728                fdtdec_get_number
 .text.fdtdec_get_addr_size_fixed
                0x0000000087885764       0xac lib/built-in.o
                0x0000000087885764                fdtdec_get_addr_size_fixed
 .text.fdtdec_get_addr_size
                0x0000000087885810       0x34 lib/built-in.o
                0x0000000087885810                fdtdec_get_addr_size
 .text.fdtdec_get_addr
                0x0000000087885844        0x8 lib/built-in.o
                0x0000000087885844                fdtdec_get_addr
 .text.fdt_get_resource
                0x000000008788584c       0xe0 lib/built-in.o
                0x000000008788584c                fdt_get_resource
 .text.fdt_get_named_resource
                0x000000008788592c       0x40 lib/built-in.o
                0x000000008788592c                fdt_get_named_resource
 .text.board_fdt_blob_setup
                0x000000008788596c        0xc lib/built-in.o
                0x000000008788596c                board_fdt_blob_setup
 .text.fdtdec_setup
                0x0000000087885978       0x34 lib/built-in.o
                0x0000000087885978                fdtdec_setup
 .text.qsort    0x00000000878859ac       0xdc lib/built-in.o
                0x00000000878859ac                qsort
 .text.strcmp_compar
                0x0000000087885a88        0xc lib/built-in.o
                0x0000000087885a88                strcmp_compar
 .text.cmpkey   0x0000000087885a94       0x14 lib/built-in.o
 .text._hdelete.isra.1
                0x0000000087885aa8       0x50 lib/built-in.o
 .text.drop_var_from_set.part.2
                0x0000000087885af8       0x50 lib/built-in.o
 .text.match_string
                0x0000000087885b48       0x8c lib/built-in.o
 .text.match_entry
                0x0000000087885bd4       0xc0 lib/built-in.o
 .text.hcreate_r
                0x0000000087885c94       0xb0 lib/built-in.o
                0x0000000087885c94                hcreate_r
 .text.hdestroy_r
                0x0000000087885d44       0x7c lib/built-in.o
                0x0000000087885d44                hdestroy_r
 .text.hmatch_r
                0x0000000087885dc0       0xa0 lib/built-in.o
                0x0000000087885dc0                hmatch_r
 .text.hsearch_r
                0x0000000087885e60      0x508 lib/built-in.o
                0x0000000087885e60                hsearch_r
 .text.hdelete_r
                0x0000000087886368       0xdc lib/built-in.o
                0x0000000087886368                hdelete_r
 .text.hexport_r
                0x0000000087886444      0x2a0 lib/built-in.o
                0x0000000087886444                hexport_r
 .text.himport_r
                0x00000000878866e4      0x410 lib/built-in.o
                0x00000000878866e4                himport_r
 .text.hwalk_r  0x0000000087886af4       0x58 lib/built-in.o
                0x0000000087886af4                hwalk_r
 .text.display_options_get_banner_priv
                0x0000000087886b4c       0x98 lib/built-in.o
                0x0000000087886b4c                display_options_get_banner_priv
 .text.display_options_get_banner
                0x0000000087886be4       0x10 lib/built-in.o
                0x0000000087886be4                display_options_get_banner
 .text.display_options
                0x0000000087886bf4       0x34 lib/built-in.o
                0x0000000087886bf4                display_options
 .text.print_size
                0x0000000087886c28      0x130 lib/built-in.o
                0x0000000087886c28                print_size
 .text.print_buffer
                0x0000000087886d58      0x1b4 lib/built-in.o
                0x0000000087886d58                print_buffer
 .text.crc32_wd
                0x0000000087886f0c        0x4 lib/built-in.o
                0x0000000087886f0c                crc32_wd
 .text.__div64_32
                0x0000000087886f10       0xd0 lib/built-in.o
                0x0000000087886f10                __div64_32
 .text.div_s64_rem
                0x0000000087886fe0      0x10c lib/built-in.o
                0x0000000087886fe0                div_s64_rem
 .text.hang     0x00000000878870ec       0x1c lib/built-in.o
                0x00000000878870ec                hang
 .text.copy_from_user
                0x0000000087887108       0x10 lib/built-in.o
                0x0000000087887108                copy_from_user
 .text.kmalloc  0x0000000087887118       0x3c lib/built-in.o
                0x0000000087887118                kmalloc
 .text.get_mem  0x0000000087887154       0x1c lib/built-in.o
                0x0000000087887154                get_mem
 .text.kmem_cache_alloc
                0x0000000087887170       0x14 lib/built-in.o
                0x0000000087887170                kmem_cache_alloc
 .text.skip_spaces
                0x0000000087887184       0x28 lib/built-in.o
                0x0000000087887184                skip_spaces
 .text.strim    0x00000000878871ac       0x60 lib/built-in.o
                0x00000000878871ac                strim
 .text.lmb_overlaps_region
                0x000000008788720c       0x5c lib/built-in.o
 .text.lmb_add_region
                0x0000000087887268      0x1c0 lib/built-in.o
 .text.lmb_dump_all
                0x0000000087887428        0x4 lib/built-in.o
                0x0000000087887428                lmb_dump_all
 .text.lmb_add  0x000000008788742c        0x4 lib/built-in.o
                0x000000008788742c                lmb_add
 .text.lmb_free
                0x0000000087887430      0x10c lib/built-in.o
                0x0000000087887430                lmb_free
 .text.lmb_reserve
                0x000000008788753c       0xa8 lib/built-in.o
                0x000000008788753c                lmb_reserve
 .text.__lmb_alloc_base
                0x00000000878875e4       0xfc lib/built-in.o
                0x00000000878875e4                __lmb_alloc_base
 .text.lmb_alloc_base
                0x00000000878876e0       0x34 lib/built-in.o
                0x00000000878876e0                lmb_alloc_base
 .text.lmb_alloc
                0x0000000087887714        0x8 lib/built-in.o
                0x0000000087887714                lmb_alloc
 .text.lmb_alloc_addr
                0x000000008788771c       0x6c lib/built-in.o
                0x000000008788771c                lmb_alloc_addr
 .text.lmb_get_free_size
                0x0000000087887788       0x80 lib/built-in.o
                0x0000000087887788                lmb_get_free_size
 .text.lmb_init_and_reserve
                0x0000000087887808       0x5c lib/built-in.o
                0x0000000087887808                lmb_init_and_reserve
 .text.lmb_init_and_reserve_range
                0x0000000087887864       0x4c lib/built-in.o
                0x0000000087887864                lmb_init_and_reserve_range
 .text.emit     0x00000000878878b0       0x24 lib/built-in.o
 .text.store_char_in_data
                0x00000000878878d4       0x28 lib/built-in.o
 .text.get_escape_char
                0x00000000878878fc       0x80 lib/built-in.o
 .text.match    0x000000008788797c      0x3fc lib/built-in.o
 .text.loop_greedy
                0x0000000087887d78       0x90 lib/built-in.o
 .text.loop_non_greedy
                0x0000000087887e08       0x80 lib/built-in.o
 .text.fixup_branch.part.0
                0x0000000087887e88       0x38 lib/built-in.o
 .text.quantifier
                0x0000000087887ec0       0xb8 lib/built-in.o
 .text.compile  0x0000000087887f78      0x380 lib/built-in.o
 .text.slre_compile
                0x00000000878882f8       0xb8 lib/built-in.o
                0x00000000878882f8                slre_compile
 .text.slre_match
                0x00000000878883b0       0x9c lib/built-in.o
                0x00000000878883b0                slre_match
 .text.strncasecmp
                0x000000008788844c       0x9c lib/built-in.o
                0x000000008788844c                strncasecmp
 .text.strcasecmp
                0x00000000878884e8        0x8 lib/built-in.o
                0x00000000878884e8                strcasecmp
 .text.strcpy   0x00000000878884f0       0x18 lib/built-in.o
                0x00000000878884f0                strcpy
 .text.strncpy  0x0000000087888508       0x24 lib/built-in.o
                0x0000000087888508                strncpy
 .text.strcat   0x000000008788852c       0x30 lib/built-in.o
                0x000000008788852c                strcat
 .text.strncat  0x000000008788855c       0x54 lib/built-in.o
                0x000000008788855c                strncat
 .text.strcmp   0x00000000878885b0       0x28 lib/built-in.o
                0x00000000878885b0                strcmp
 .text.strncmp  0x00000000878885d8       0x3c lib/built-in.o
                0x00000000878885d8                strncmp
 .text.strchr   0x0000000087888614       0x2c lib/built-in.o
                0x0000000087888614                strchr
 .text.strlen   0x0000000087888640       0x20 lib/built-in.o
                0x0000000087888640                strlen
 .text.strlcpy  0x0000000087888660       0x50 lib/built-in.o
                0x0000000087888660                strlcpy
 .text.strrchr  0x00000000878886b0       0x3c lib/built-in.o
                0x00000000878886b0                strrchr
 .text.strnlen  0x00000000878886ec       0x2c lib/built-in.o
                0x00000000878886ec                strnlen
 .text.strdup   0x0000000087888718       0x40 lib/built-in.o
                0x0000000087888718                strdup
 .text.strspn   0x0000000087888758       0x3c lib/built-in.o
                0x0000000087888758                strspn
 .text.strpbrk  0x0000000087888794       0x3c lib/built-in.o
                0x0000000087888794                strpbrk
 .text.strtok   0x00000000878887d0       0x88 lib/built-in.o
                0x00000000878887d0                strtok
 .text.strsep   0x0000000087888858       0x38 lib/built-in.o
                0x0000000087888858                strsep
 .text.memmove  0x0000000087888890       0x40 lib/built-in.o
                0x0000000087888890                memmove
 .text.memcmp   0x00000000878888d0       0x30 lib/built-in.o
                0x00000000878888d0                memcmp
 .text.strstr   0x0000000087888900       0x6c lib/built-in.o
                0x0000000087888900                strstr
 .text.memchr   0x000000008788896c       0x30 lib/built-in.o
                0x000000008788896c                memchr
 .text.tick_to_time
                0x000000008788899c       0x64 lib/built-in.o
 .text.timer_get_us
                0x0000000087888a00       0x24 lib/built-in.o
                0x0000000087888a00                timer_get_us
 .text.udelay   0x0000000087888a24       0x30 lib/built-in.o
                0x0000000087888a24                udelay
 .text.hex_dump_to_buffer
                0x0000000087888a54      0x404 lib/built-in.o
                0x0000000087888a54                hex_dump_to_buffer
 .text.print_hex_dump
                0x0000000087888e58       0xf0 lib/built-in.o
                0x0000000087888e58                print_hex_dump
 .text.uuid_str_valid
                0x0000000087888f48       0x94 lib/built-in.o
                0x0000000087888f48                uuid_str_valid
 .text.uuid_str_to_bin
                0x0000000087888fdc      0x188 lib/built-in.o
                0x0000000087888fdc                uuid_str_to_bin
 .text.uuid_bin_to_str
                0x0000000087889164       0xa8 lib/built-in.o
                0x0000000087889164                uuid_bin_to_str
 .text.panic_finish
                0x000000008788920c       0x30 lib/built-in.o
 .text.panic    0x000000008788923c       0x1c lib/built-in.o
                0x000000008788923c                panic
 .text.put_dec_trunc
                0x0000000087889258       0xd4 lib/built-in.o
 .text.put_dec  0x000000008788932c      0x194 lib/built-in.o
 .text.number   0x00000000878894c0      0x2b8 lib/built-in.o
 .text.string16
                0x0000000087889778       0xe8 lib/built-in.o
 .text.string   0x0000000087889860       0xbc lib/built-in.o
 .text.vsnprintf_internal
                0x000000008788991c      0x77c lib/built-in.o
 .text.vsnprintf
                0x000000008788a098        0x4 lib/built-in.o
                0x000000008788a098                vsnprintf
 .text.vscnprintf
                0x000000008788a09c       0x24 lib/built-in.o
                0x000000008788a09c                vscnprintf
 .text.snprintf
                0x000000008788a0c0       0x28 lib/built-in.o
                0x000000008788a0c0                snprintf
 .text.vsprintf
                0x000000008788a0e8       0x10 lib/built-in.o
                0x000000008788a0e8                vsprintf
 .text.sprintf  0x000000008788a0f8       0x28 lib/built-in.o
                0x000000008788a0f8                sprintf
 .text.printf   0x000000008788a120       0x48 lib/built-in.o
                0x000000008788a120                printf
 .text.vprintf  0x000000008788a168       0x38 lib/built-in.o
                0x000000008788a168                vprintf
 .text.simple_itoa
                0x000000008788a1a0       0x54 lib/built-in.o
                0x000000008788a1a0                simple_itoa
 .text.str2off  0x000000008788a1f4       0x40 lib/built-in.o
                0x000000008788a1f4                str2off
 .text.str2long
                0x000000008788a234       0x40 lib/built-in.o
                0x000000008788a234                str2long
 .text._parse_integer_fixup_radix
                0x000000008788a274       0x98 lib/built-in.o
 .text.simple_strtoul
                0x000000008788a30c       0x78 lib/built-in.o
                0x000000008788a30c                simple_strtoul
 .text.strict_strtoul
                0x000000008788a384       0x78 lib/built-in.o
                0x000000008788a384                strict_strtoul
 .text.simple_strtol
                0x000000008788a3fc       0x24 lib/built-in.o
                0x000000008788a3fc                simple_strtol
 .text.ustrtoul
                0x000000008788a420       0x80 lib/built-in.o
                0x000000008788a420                ustrtoul
 .text.simple_strtoull
                0x000000008788a4a0       0x9c lib/built-in.o
                0x000000008788a4a0                simple_strtoull
 .text.ustrtoull
                0x000000008788a53c       0x98 lib/built-in.o
                0x000000008788a53c                ustrtoull
 .text.trailing_strtoln
                0x000000008788a5d4       0x74 lib/built-in.o
                0x000000008788a5d4                trailing_strtoln
 .text.trailing_strtol
                0x000000008788a648        0x8 lib/built-in.o
                0x000000008788a648                trailing_strtol
 .text.compute_ip_checksum
                0x000000008788a650       0x68 net/built-in.o
                0x000000008788a650                compute_ip_checksum
 .text.ip_checksum_ok
                0x000000008788a6b8       0x1c net/built-in.o
                0x000000008788a6b8                ip_checksum_ok
 .text.arp_init
                0x000000008788a6d4       0x50 net/built-in.o
                0x000000008788a6d4                arp_init
 .text.arp_raw_request
                0x000000008788a724       0xd0 net/built-in.o
                0x000000008788a724                arp_raw_request
 .text.arp_request
                0x000000008788a7f4       0x84 net/built-in.o
                0x000000008788a7f4                arp_request
 .text.arp_timeout_check
                0x000000008788a878       0x90 net/built-in.o
                0x000000008788a878                arp_timeout_check
 .text.arp_receive
                0x000000008788a908      0x238 net/built-in.o
                0x000000008788a908                arp_receive
 .text.arp_is_waiting
                0x000000008788ab40       0x18 net/built-in.o
                0x000000008788ab40                arp_is_waiting
 .text.dhcp_extended
                0x000000008788ab58      0x248 net/built-in.o
 .text.dhcp_process_options
                0x000000008788ada0      0x20c net/built-in.o
 .text.dhcp_packet_process_options
                0x000000008788afac       0x84 net/built-in.o
 .text.dhcp_handler
                0x000000008788b030      0x410 net/built-in.o
 .text.bootp_reset
                0x000000008788b440       0x44 net/built-in.o
                0x000000008788b440                bootp_reset
 .text.bootp_request
                0x000000008788b484      0x294 net/built-in.o
                0x000000008788b484                bootp_request
 .text.bootp_timeout_handler
                0x000000008788b718       0x70 net/built-in.o
 .text.dhcp_request
                0x000000008788b788        0x4 net/built-in.o
                0x000000008788b788                dhcp_request
 .text.eth_get_uclass_priv
                0x000000008788b78c       0x28 net/built-in.o
 .text.eth_pre_remove
                0x000000008788b7b4       0x30 net/built-in.o
 .text.eth_write_hwaddr
                0x000000008788b7e4       0xf0 net/built-in.o
 .text.on_ethaddr
                0x000000008788b8d4       0x84 net/built-in.o
 .text.eth_post_probe
                0x000000008788b958      0x19c net/built-in.o
 .text.eth_post_bind
                0x000000008788baf4       0x34 net/built-in.o
 .text.eth_set_current_to_next
                0x000000008788bb28       0x38 net/built-in.o
                0x000000008788bb28                eth_set_current_to_next
 .text.eth_get_dev
                0x000000008788bb60       0x38 net/built-in.o
                0x000000008788bb60                eth_get_dev
 .text.eth_set_dev
                0x000000008788bb98       0x3c net/built-in.o
                0x000000008788bb98                eth_set_dev
 .text.eth_pre_unbind
                0x000000008788bbd4       0x28 net/built-in.o
 .text.eth_get_dev_by_name
                0x000000008788bbfc       0xf8 net/built-in.o
                0x000000008788bbfc                eth_get_dev_by_name
 .text.eth_get_ethaddr
                0x000000008788bcf4       0x20 net/built-in.o
                0x000000008788bcf4                eth_get_ethaddr
 .text.eth_halt_state_only
                0x000000008788bd14       0x28 net/built-in.o
                0x000000008788bd14                eth_halt_state_only
 .text.eth_get_dev_index
                0x000000008788bd3c       0x24 net/built-in.o
                0x000000008788bd3c                eth_get_dev_index
 .text.eth_init
                0x000000008788bd60       0xfc net/built-in.o
                0x000000008788bd60                eth_init
 .text.eth_is_active
                0x000000008788be5c       0x38 net/built-in.o
                0x000000008788be5c                eth_is_active
 .text.eth_halt
                0x000000008788be94       0x44 net/built-in.o
                0x000000008788be94                eth_halt
 .text.eth_send
                0x000000008788bed8       0x54 net/built-in.o
                0x000000008788bed8                eth_send
 .text.eth_rx   0x000000008788bf2c       0xb4 net/built-in.o
                0x000000008788bf2c                eth_rx
 .text.eth_initialize
                0x000000008788bfe0       0xf8 net/built-in.o
                0x000000008788bfe0                eth_initialize
 .text.eth_env_get_enetaddr_by_index
                0x000000008788c0d8       0x4c net/built-in.o
                0x000000008788c0d8                eth_env_get_enetaddr_by_index
 .text.eth_env_set_enetaddr_by_index
                0x000000008788c124       0x4c net/built-in.o
                0x000000008788c124                eth_env_set_enetaddr_by_index
 .text.eth_common_init
                0x000000008788c170       0x18 net/built-in.o
                0x000000008788c170                eth_common_init
 .text.eth_mac_skip
                0x000000008788c188       0x40 net/built-in.o
                0x000000008788c188                eth_mac_skip
 .text.eth_get_name
                0x000000008788c1c8       0x28 net/built-in.o
                0x000000008788c1c8                eth_get_name
 .text.eth_current_changed
                0x000000008788c1f0       0x94 net/built-in.o
                0x000000008788c1f0                eth_current_changed
 .text.eth_try_another
                0x000000008788c284       0x84 net/built-in.o
                0x000000008788c284                eth_try_another
 .text.eth_set_current
                0x000000008788c308       0x8c net/built-in.o
                0x000000008788c308                eth_set_current
 .text.start_again_timeout_handler
                0x000000008788c394       0x14 net/built-in.o
 .text.dummy_handler
                0x000000008788c3a8        0x4 net/built-in.o
 .text.on_ipaddr
                0x000000008788c3ac       0x30 net/built-in.o
 .text.on_gatewayip
                0x000000008788c3dc       0x30 net/built-in.o
 .text.on_netmask
                0x000000008788c40c       0x30 net/built-in.o
 .text.on_serverip
                0x000000008788c43c       0x30 net/built-in.o
 .text.net_init_loop
                0x000000008788c46c       0x2c net/built-in.o
 .text.net_clear_handlers
                0x000000008788c498       0x34 net/built-in.o
 .text.net_init
                0x000000008788c4cc       0x70 net/built-in.o
                0x000000008788c4cc                net_init
 .text.net_start_again
                0x000000008788c53c      0x168 net/built-in.o
                0x000000008788c53c                net_start_again
 .text.net_set_udp_handler
                0x000000008788c6a4       0x20 net/built-in.o
                0x000000008788c6a4                net_set_udp_handler
 .text.net_get_arp_handler
                0x000000008788c6c4       0x10 net/built-in.o
                0x000000008788c6c4                net_get_arp_handler
 .text.net_set_timeout_handler
                0x000000008788c6d4       0x5c net/built-in.o
                0x000000008788c6d4                net_set_timeout_handler
 .text.net_get_async_tx_pkt_buf
                0x000000008788c730       0x24 net/built-in.o
                0x000000008788c730                net_get_async_tx_pkt_buf
 .text.net_process_received_packet
                0x000000008788c754      0x2e8 net/built-in.o
                0x000000008788c754                net_process_received_packet
 .text.net_eth_hdr_size
                0x000000008788ca3c       0x38 net/built-in.o
                0x000000008788ca3c                net_eth_hdr_size
 .text.net_set_ether
                0x000000008788ca74       0xc0 net/built-in.o
                0x000000008788ca74                net_set_ether
 .text.net_update_ether
                0x000000008788cb34       0xa0 net/built-in.o
                0x000000008788cb34                net_update_ether
 .text.net_set_ip_header
                0x000000008788cbd4       0xcc net/built-in.o
                0x000000008788cbd4                net_set_ip_header
 .text.net_set_udp_header
                0x000000008788cca0       0x9c net/built-in.o
                0x000000008788cca0                net_set_udp_header
 .text.net_send_ip_packet
                0x000000008788cd3c      0x118 net/built-in.o
                0x000000008788cd3c                net_send_ip_packet
 .text.net_send_udp_packet
                0x000000008788ce54       0x30 net/built-in.o
                0x000000008788ce54                net_send_udp_packet
 .text.copy_filename
                0x000000008788ce84       0x4c net/built-in.o
                0x000000008788ce84                copy_filename
 .text.is_serverip_in_cmd
                0x000000008788ced0       0x20 net/built-in.o
                0x000000008788ced0                is_serverip_in_cmd
 .text.net_check_prereq
                0x000000008788cef0      0x130 net/built-in.o
 .text.net_auto_load
                0x000000008788d020       0x9c net/built-in.o
                0x000000008788d020                net_auto_load
 .text.net_loop
                0x000000008788d0bc      0x284 net/built-in.o
                0x000000008788d0bc                net_loop
 .text.net_parse_bootfile
                0x000000008788d340       0x80 net/built-in.o
                0x000000008788d340                net_parse_bootfile
 .text.ip_to_string
                0x000000008788d3c0       0x3c net/built-in.o
                0x000000008788d3c0                ip_to_string
 .text.string_to_vlan
                0x000000008788d3fc       0x50 net/built-in.o
                0x000000008788d3fc                string_to_vlan
 .text.on_nvlan
                0x000000008788d44c       0x30 net/built-in.o
 .text.on_vlan  0x000000008788d47c       0x30 net/built-in.o
 .text.rpc_lookup_reply
                0x000000008788d4ac       0xb0 net/built-in.o
 .text.nfs_mount_reply
                0x000000008788d55c       0xa4 net/built-in.o
 .text.nfs_umountall_reply
                0x000000008788d600       0x94 net/built-in.o
 .text.nfs_lookup_reply
                0x000000008788d694      0x114 net/built-in.o
 .text.nfs3_get_attributes_offset
                0x000000008788d7a8       0x14 net/built-in.o
 .text.nfs_readlink_reply
                0x000000008788d7bc      0x124 net/built-in.o
 .text.basename
                0x000000008788d8e0       0x3c net/built-in.o
 .text.rpc_req  0x000000008788d91c      0x128 net/built-in.o
 .text.nfs_umountall_req
                0x000000008788da44       0x84 net/built-in.o
 .text.nfs_read_reply.isra.2
                0x000000008788dac8      0x170 net/built-in.o
 .text.nfs_readlink_req
                0x000000008788dc38       0xcc net/built-in.o
 .text.nfs_mount_req
                0x000000008788dd04       0xbc net/built-in.o
 .text.nfs_read_req
                0x000000008788ddc0       0xf8 net/built-in.o
 .text.nfs_lookup_req
                0x000000008788deb8      0x188 net/built-in.o
 .text.nfs_send
                0x000000008788e040      0x154 net/built-in.o
 .text.nfs_handler
                0x000000008788e194      0x248 net/built-in.o
 .text.nfs_timeout_handler
                0x000000008788e3dc       0x64 net/built-in.o
 .text.nfs_start
                0x000000008788e440      0x20c net/built-in.o
                0x000000008788e440                nfs_start
 .text.ping_timeout_handler
                0x000000008788e64c       0x1c net/built-in.o
 .text.ping_start
                0x000000008788e668      0x128 net/built-in.o
                0x000000008788e668                ping_start
 .text.ping_receive
                0x000000008788e790      0x118 net/built-in.o
                0x000000008788e790                ping_receive
 .text.tftp_send
                0x000000008788e8a8      0x1c8 net/built-in.o
 .text.tftp_handler
                0x000000008788ea70      0x3c8 net/built-in.o
 .text.tftp_timeout_handler
                0x000000008788ee38       0x88 net/built-in.o
 .text.tftp_start
                0x000000008788eec0      0x3b4 net/built-in.o
                0x000000008788eec0                tftp_start
 .text.__ashldi3
                0x000000008788f274       0x1c arch/arm/lib/lib.a(ashldi3.o)
                0x000000008788f274                __ashldi3
                0x000000008788f274                __aeabi_llsl
 .text.__ashrdi3
                0x000000008788f290       0x1c arch/arm/lib/lib.a(ashrdi3.o)
                0x000000008788f290                __ashrdi3
                0x000000008788f290                __aeabi_lasr
 .text.__udivsi3
                0x000000008788f2ac       0x9c arch/arm/lib/lib.a(lib1funcs.o)
                0x000000008788f2ac                __udivsi3
                0x000000008788f2ac                __aeabi_uidiv
 .text.__divsi3
                0x000000008788f348       0xcc arch/arm/lib/lib.a(lib1funcs.o)
                0x000000008788f348                __aeabi_idiv
                0x000000008788f348                __divsi3
 .text.__aeabi_uidivmod
                0x000000008788f414       0x30 arch/arm/lib/lib.a(lib1funcs.o)
                0x000000008788f414                __aeabi_uidivmod
                0x000000008788f42c                __aeabi_idivmod
 .text.Ldiv0    0x000000008788f444       0x10 arch/arm/lib/lib.a(lib1funcs.o)
 .text.__lshldi3
                0x000000008788f454       0x1c arch/arm/lib/lib.a(lshrdi3.o)
                0x000000008788f454                __aeabi_llsr
                0x000000008788f454                __lshrdi3
 .text.__aeabi_uldivmod
                0x000000008788f470      0x184 arch/arm/lib/lib.a(uldivmod.o)
                0x000000008788f470                __aeabi_uldivmod
 .text.__div0   0x000000008788f5f4        0x4 arch/arm/lib/lib.a(div0.o)
                0x000000008788f5f4                __div0
                0x000000008788f5f8                . = ALIGN (0x4)

.rodata         0x000000008788f5f8    0x25afa
 *(SORT_BY_ALIGNMENT(SORT_BY_NAME(.rodata*)))
 .rodata.efi_block_io_guid
                0x000000008788f5f8       0x10 lib/built-in.o
                0x000000008788f5f8                efi_block_io_guid
 .rodata.efi_file_handle_protocol
                0x000000008788f608       0x30 lib/built-in.o
 .rodata.efi_file_info_guid
                0x000000008788f638       0x10 lib/built-in.o
                0x000000008788f638                efi_file_info_guid
 .rodata.efi_file_system_info_guid
                0x000000008788f648       0x10 lib/built-in.o
                0x000000008788f648                efi_file_system_info_guid
 .rodata.efi_global_variable_guid
                0x000000008788f658       0x10 lib/built-in.o
                0x000000008788f658                efi_global_variable_guid
 .rodata.efi_guid_device_path
                0x000000008788f668       0x10 lib/built-in.o
                0x000000008788f668                efi_guid_device_path
 .rodata.efi_guid_device_path_to_text_protocol
                0x000000008788f678       0x10 lib/built-in.o
                0x000000008788f678                efi_guid_device_path_to_text_protocol
 .rodata.efi_guid_device_path_utilities_protocol
                0x000000008788f688       0x10 lib/built-in.o
                0x000000008788f688                efi_guid_device_path_utilities_protocol
 .rodata.efi_guid_driver_binding_protocol
                0x000000008788f698       0x10 lib/built-in.o
                0x000000008788f698                efi_guid_driver_binding_protocol
 .rodata.efi_guid_event_group_exit_boot_services
                0x000000008788f6a8       0x10 lib/built-in.o
                0x000000008788f6a8                efi_guid_event_group_exit_boot_services
 .rodata.efi_guid_event_group_reset_system
                0x000000008788f6b8       0x10 lib/built-in.o
                0x000000008788f6b8                efi_guid_event_group_reset_system
 .rodata.efi_guid_fdt
                0x000000008788f6c8       0x10 lib/built-in.o
                0x000000008788f6c8                efi_guid_fdt
 .rodata.efi_guid_loaded_image
                0x000000008788f6d8       0x10 lib/built-in.o
                0x000000008788f6d8                efi_guid_loaded_image
 .rodata.efi_guid_text_input_ex_protocol
                0x000000008788f6e8       0x10 lib/built-in.o
                0x000000008788f6e8                efi_guid_text_input_ex_protocol
 .rodata.efi_guid_text_input_protocol
                0x000000008788f6f8       0x10 lib/built-in.o
                0x000000008788f6f8                efi_guid_text_input_protocol
 .rodata.efi_guid_text_output_protocol
                0x000000008788f708       0x10 lib/built-in.o
                0x000000008788f708                efi_guid_text_output_protocol
 .rodata.efi_guid_unicode_collation_protocol
                0x000000008788f718       0x10 lib/built-in.o
                0x000000008788f718                efi_guid_unicode_collation_protocol
 .rodata.efi_net_guid
                0x000000008788f728       0x10 lib/built-in.o
 .rodata.efi_pxe_guid
                0x000000008788f738       0x10 lib/built-in.o
 .rodata.efi_simple_file_system_protocol_guid
                0x000000008788f748       0x10 lib/built-in.o
                0x000000008788f748                efi_simple_file_system_protocol_guid
 .rodata.efi_u_boot_guid
                0x000000008788f758       0x10 lib/built-in.o
                0x000000008788f758                efi_u_boot_guid
 .rodata.lcd_pads
                0x000000008788f768       0xf0 board/freescale/mx6ullevk/built-in.o
 .rodata.nand_pads
                0x000000008788f858       0x88 board/freescale/mx6ullevk/built-in.o
 .rodata.onfi_sdr_timings
                0x000000008788f8e0      0x450 drivers/mtd/nand/raw/built-in.o
 .rodata.smbios_guid
                0x000000008788fd30       0x10 lib/built-in.o
 .rodata.system_guid
                0x000000008788fd40       0x10 disk/built-in.o
 .rodata.uart1_pads
                0x000000008788fd50       0x10 board/freescale/mx6ullevk/built-in.o
 .rodata        0x000000008788fd60       0x80 arch/arm/lib/built-in.o
 .rodata        0x000000008788fde0       0x1c drivers/built-in.o
 .rodata.CSWTCH.15
                0x000000008788fdfc       0xe8 arch/arm/mach-imx/built-in.o
 .rodata.CSWTCH.28
                0x000000008788fee4       0x20 common/built-in.o
 .rodata.CSWTCH.31
                0x000000008788ff04       0x14 cmd/built-in.o
 .rodata.CSWTCH.41
                0x000000008788ff18       0x20 disk/built-in.o
 .rodata.CSWTCH.43
                0x000000008788ff38       0x14 fs/built-in.o
 .rodata.CSWTCH.45
                0x000000008788ff4c        0xc fs/built-in.o
 .rodata.CSWTCH.49
                0x000000008788ff58       0x30 fs/built-in.o
 .rodata.asix_eth_id_table
                0x000000008788ff88      0x138 drivers/usb/eth/built-in.o
 .rodata.asix_eth_ops
                0x00000000878900c0       0x20 drivers/usb/eth/built-in.o
 .rodata.board_boot_modes
                0x00000000878900e0       0x20 board/freescale/mx6ullevk/built-in.o
 .rodata.boot_os
                0x0000000087890100       0x60 common/built-in.o
 .rodata.bootm_args.8160
                0x0000000087890160        0xc drivers/built-in.o
 .rodata.ci_ep_init
                0x000000008789016c       0xb4 drivers/usb/gadget/built-in.o
 .rodata.color  0x0000000087890220       0x40 lib/built-in.o
 .rodata.commands
                0x0000000087890260       0x68 drivers/built-in.o
 .rodata.crc32table_le
                0x00000000878902c8      0x400 drivers/mtd/ubi/built-in.o
 .rodata.desc_and_len_tbl
                0x00000000878906c8       0x30 cmd/built-in.o
 .rodata.displays
                0x00000000878906f8       0x50 board/freescale/mx6ullevk/built-in.o
                0x00000000878906f8                displays
 .rodata.driver_ops
                0x0000000087890748        0xc lib/built-in.o
 .rodata.efi_blk_ops
                0x0000000087890754       0x10 lib/built-in.o
 .rodata.efi_device_path_to_text
                0x0000000087890764        0x8 lib/built-in.o
                0x0000000087890764                efi_device_path_to_text
 .rodata.efi_device_path_utilities
                0x000000008789076c       0x20 lib/built-in.o
                0x000000008789076c                efi_device_path_utilities
 .rodata.efi_unicode_collation_protocol
                0x000000008789078c       0x1c lib/built-in.o
                0x000000008789078c                efi_unicode_collation_protocol
 .rodata.efi_var_attrs
                0x00000000878907a8       0x28 cmd/built-in.o
 .rodata.env_flags_varaccess_mask
                0x00000000878907d0       0x10 env/built-in.o
 .rodata.ext_csd_bus_width
                0x00000000878907e0       0x3c drivers/built-in.o
 .rodata.fbase  0x000000008789081c       0x10 drivers/built-in.o
 .rodata.fdt_errtable
                0x000000008789082c       0x48 lib/built-in.o
 .rodata.fdt_member_table
                0x0000000087890874       0x28 cmd/built-in.o
 .rodata.fecmxc_ids
                0x000000008789089c       0x40 drivers/net/built-in.o
 .rodata.fecmxc_ops
                0x00000000878908dc       0x20 drivers/net/built-in.o
 .rodata.fixed_regulator_ids
                0x00000000878908fc       0x10 drivers/power/regulator/built-in.o
 .rodata.fixed_regulator_ops
                0x000000008789090c       0x20 drivers/power/regulator/built-in.o
 .rodata.freqs.10760
                0x000000008789092c       0x38 drivers/built-in.o
 .rodata.fsl_esdhc_ids
                0x0000000087890964       0x50 drivers/built-in.o
 .rodata.fsl_esdhc_ops
                0x00000000878909b4       0x14 drivers/built-in.o
 .rodata.fsl_qspi_ids
                0x00000000878909c8       0x30 drivers/spi/built-in.o
 .rodata.fsl_qspi_ops
                0x00000000878909f8       0x20 drivers/spi/built-in.o
 .rodata.gen_74x164_ids
                0x0000000087890a18       0x10 drivers/gpio/built-in.o
 .rodata.gen_74x164_ops
                0x0000000087890a28       0x28 drivers/gpio/built-in.o
 .rodata.generic_simple_bus_ids
                0x0000000087890a50       0x18 drivers/built-in.o
 .rodata.gpio_function
                0x0000000087890a68       0x14 drivers/gpio/built-in.o
 .rodata.gpio_mxc_ops
                0x0000000087890a7c       0x28 drivers/gpio/built-in.o
 .rodata.gpio_regulator_ids
                0x0000000087890aa4       0x10 drivers/power/regulator/built-in.o
 .rodata.gpio_regulator_ops
                0x0000000087890ab4       0x20 drivers/power/regulator/built-in.o
 .rodata.hub_id_table
                0x0000000087890ad4       0x30 common/built-in.o
 .rodata.hwcaps_pp2cmd.11590
                0x0000000087890b04       0x38 drivers/mtd/spi/built-in.o
 .rodata.hwcaps_read2cmd.11586
                0x0000000087890b3c       0x78 drivers/mtd/spi/built-in.o
 .rodata.if_type_uclass_id
                0x0000000087890bb4       0x34 drivers/built-in.o
 .rodata.if_typename_str
                0x0000000087890be8       0x34 drivers/built-in.o
 .rodata.imx6_pinctrl_match
                0x0000000087890c1c       0x48 drivers/built-in.o
 .rodata.imx6_thermal_plat
                0x0000000087890c64        0xc arch/arm/mach-imx/built-in.o
 .rodata.imx_pinctrl_ops
                0x0000000087890c70       0x48 drivers/built-in.o
                0x0000000087890c70                imx_pinctrl_ops
 .rodata.imx_thermal_ops
                0x0000000087890cb8        0x4 drivers/built-in.o
 .rodata.init_sequence_f
                0x0000000087890cbc       0xc0 common/built-in.o
 .rodata.machines
                0x0000000087890d7c       0x10 lib/built-in.o
 .rodata.mass_storage_id_table
                0x0000000087890d8c       0x30 common/built-in.o
 .rodata.mmc_blk_ops
                0x0000000087890dbc       0x10 drivers/built-in.o
 .rodata.mmc_modes_by_pref
                0x0000000087890dcc       0x20 drivers/built-in.o
 .rodata.mmc_versions.11123
                0x0000000087890dec       0x24 drivers/built-in.o
 .rodata.mon_lengths.10932
                0x0000000087890e10       0x60 fs/built-in.o
 .rodata.mx6_ehci_ops
                0x0000000087890e70       0x14 drivers/usb/host/built-in.o
 .rodata.mx6_fuse_descs
                0x0000000087890e84      0x5f0 arch/arm/mach-imx/built-in.o
 .rodata.mx6_usb_ids
                0x0000000087891474       0x10 drivers/usb/host/built-in.o
 .rodata.mxc_gpio_ids
                0x0000000087891484       0x10 drivers/gpio/built-in.o
 .rodata.mxc_i2c_ids
                0x0000000087891494       0x18 drivers/i2c/built-in.o
 .rodata.mxc_i2c_ops
                0x00000000878914ac       0x18 drivers/i2c/built-in.o
 .rodata.mxs_nand_dt_ids
                0x00000000878914c4       0x28 drivers/mtd/nand/raw/built-in.o
 .rodata.mxs_nand_imx6q_data
                0x00000000878914ec        0x4 drivers/mtd/nand/raw/built-in.o
 .rodata.mxs_nand_imx6sx_data
                0x00000000878914f0        0x4 drivers/mtd/nand/raw/built-in.o
 .rodata.mxs_nand_imx7d_data
                0x00000000878914f4        0x4 drivers/mtd/nand/raw/built-in.o
 .rodata.mxs_nand_imx8qxp_data
                0x00000000878914f8        0x4 drivers/mtd/nand/raw/built-in.o
 .rodata.names.10755
                0x00000000878914fc       0x38 drivers/built-in.o
 .rodata.op_adv
                0x0000000087891534      0x100 cmd/built-in.o
                0x0000000087891534                op_adv
 .rodata.op_table
                0x0000000087891634       0x68 cmd/built-in.o
 .rodata.phy_bases
                0x000000008789169c        0x8 drivers/usb/host/built-in.o
 .rodata.phy_interface_strings
                0x00000000878916a4       0x58 drivers/net/phy/built-in.o
 .rodata.reg_0_5_desc_tbl
                0x00000000878916fc       0x30 cmd/built-in.o
 .rodata.reg_0_desc_tbl
                0x000000008789172c       0x78 cmd/built-in.o
 .rodata.reg_1_desc_tbl
                0x00000000878917a4       0xc0 cmd/built-in.o
 .rodata.reg_2_desc_tbl
                0x0000000087891864        0xc cmd/built-in.o
 .rodata.reg_3_desc_tbl
                0x0000000087891870       0x24 cmd/built-in.o
 .rodata.reg_4_desc_tbl
                0x0000000087891894       0x90 cmd/built-in.o
 .rodata.reg_5_desc_tbl
                0x0000000087891924       0x90 cmd/built-in.o
 .rodata.res_mode_init
                0x00000000878919b4      0x208 drivers/built-in.o
                0x00000000878919b4                res_mode_init
 .rodata.root_info
                0x0000000087891bbc        0x8 drivers/built-in.o
 .rodata.sd_au_size.11001
                0x0000000087891bc4       0x40 drivers/built-in.o
 .rodata.sd_modes_by_pref
                0x0000000087891c04       0x10 drivers/built-in.o
 .rodata.smbios_write_funcs
                0x0000000087891c14       0x1c lib/built-in.o
 .rodata.soc_boot_modes
                0x0000000087891c30       0x60 arch/arm/mach-imx/built-in.o
                0x0000000087891c30                soc_boot_modes
 .rodata.soft_spi_ids
                0x0000000087891c90       0x10 drivers/spi/built-in.o
 .rodata.soft_spi_ops
                0x0000000087891ca0       0x20 drivers/spi/built-in.o
 .rodata.spi_flash_std_ids
                0x0000000087891cc0       0x18 drivers/mtd/spi/built-in.o
 .rodata.spi_flash_std_ops
                0x0000000087891cd8       0x10 drivers/mtd/spi/built-in.o
 .rodata.spi_nor_ids
                0x0000000087891ce8      0x288 drivers/mtd/spi/built-in.o
                0x0000000087891ce8                spi_nor_ids
 .rodata.ubifs_super_operations
                0x0000000087891f70       0x3c fs/built-in.o
                0x0000000087891f70                ubifs_super_operations
 .rodata.uimage_arch
                0x0000000087891fac      0x144 common/built-in.o
 .rodata.uimage_comp
                0x00000000878920f0       0x54 common/built-in.o
 .rodata.uimage_os
                0x0000000087892144       0x90 common/built-in.o
 .rodata.uimage_type
                0x00000000878921d4      0x1d4 common/built-in.o
 .rodata.usb_hub_ids
                0x00000000878923a8       0x10 common/built-in.o
 .rodata.usb_mass_storage_ids
                0x00000000878923b8       0x10 common/built-in.o
 .rodata.usb_storage_ops
                0x00000000878923c8       0x10 common/built-in.o
 .rodata.video_font_draw_table15
                0x00000000878923d8       0x10 drivers/built-in.o
 .rodata.video_font_draw_table16
                0x00000000878923e8       0x10 drivers/built-in.o
 .rodata.video_font_draw_table24
                0x00000000878923f8       0xc0 drivers/built-in.o
 .rodata.video_font_draw_table32
                0x00000000878924b8      0x100 drivers/built-in.o
 .rodata.video_font_draw_table8
                0x00000000878925b8       0x40 drivers/built-in.o
 .rodata.year_lengths.10933
                0x00000000878925f8        0x8 fs/built-in.o
 .rodata.CSWTCH.12
                0x0000000087892600       0x22 drivers/built-in.o
 .rodata.CSWTCH.13
                0x0000000087892622       0x22 drivers/built-in.o
 .rodata.codepage
                0x0000000087892644      0x100 lib/built-in.o
 .rodata.crc16_tab
                0x0000000087892744      0x200 lib/built-in.o
 .rodata.crc16_table
                0x0000000087892944      0x400 fs/built-in.o
                0x0000000087892b44                crc16_table
 .rodata.dbase.8479
                0x0000000087892d44       0x40 lib/built-in.o
 .rodata.dext.8480
                0x0000000087892d84       0x40 lib/built-in.o
 .rodata.distfix
                0x0000000087892dc4       0x80 lib/built-in.o
 .rodata.i2c_clk_div
                0x0000000087892e44       0xc8 drivers/i2c/built-in.o
 .rodata.lbase.8477
                0x0000000087892f0c       0x3e lib/built-in.o
 .rodata.lenfix
                0x0000000087892f4a      0x800 lib/built-in.o
 .rodata.lext.8478
                0x000000008789374a       0x3e lib/built-in.o
 .rodata.order.8573
                0x0000000087893788       0x26 lib/built-in.o
 .rodata.str2.2
                0x00000000878937ae       0x56 lib/built-in.o
 .rodata        0x0000000087893804        0x2 cmd/built-in.o
 .rodata        0x0000000087893806       0x3f drivers/usb/host/built-in.o
 .rodata        0x0000000087893845        0x3 env/built-in.o
 .rodata        0x0000000087893848       0x20 lib/built-in.o
 .rodata        0x0000000087893868        0x7 net/built-in.o
 .rodata.CSWTCH.14
                0x000000008789386f       0x11 drivers/built-in.o
 .rodata.CSWTCH.69
                0x0000000087893880       0x16 common/built-in.o
 .rodata.END    0x0000000087893896        0x4 lib/built-in.o
 .rodata.ROOT   0x000000008789389a       0x14 lib/built-in.o
 .rodata.__FUNCTION__.9822
                0x00000000878938ae       0x17 common/built-in.o
 .rodata.__FUNCTION__.9986
                0x00000000878938c5       0x17 common/built-in.o
 .rodata.__func__.10018
                0x00000000878938dc        0xb drivers/built-in.o
 .rodata.__func__.10129
                0x00000000878938e7        0xe drivers/built-in.o
 .rodata.__func__.10252
                0x00000000878938f5        0xe common/built-in.o
 .rodata.__func__.11072
                0x0000000087893903        0xc drivers/usb/gadget/built-in.o
 .rodata.__func__.11079
                0x000000008789390f        0xd drivers/built-in.o
 .rodata.__func__.11085
                0x000000008789391c       0x11 drivers/built-in.o
 .rodata.__func__.11089
                0x000000008789392d       0x18 drivers/built-in.o
 .rodata.__func__.11093
                0x0000000087893945       0x18 drivers/built-in.o
 .rodata.__func__.11097
                0x000000008789395d        0xd drivers/built-in.o
 .rodata.__func__.11101
                0x000000008789396a       0x14 drivers/built-in.o
 .rodata.__func__.11105
                0x000000008789397e       0x14 drivers/built-in.o
 .rodata.__func__.11107
                0x0000000087893992       0x12 drivers/i2c/built-in.o
 .rodata.__func__.11141
                0x00000000878939a4        0xd drivers/i2c/built-in.o
 .rodata.__func__.11191
                0x00000000878939b1        0xd drivers/i2c/built-in.o
 .rodata.__func__.11202
                0x00000000878939be       0x12 drivers/i2c/built-in.o
 .rodata.__func__.11287
                0x00000000878939d0       0x15 common/built-in.o
 .rodata.__func__.11310
                0x00000000878939e5        0xb drivers/mtd/nand/raw/built-in.o
 .rodata.__func__.11406
                0x00000000878939f0       0x11 drivers/mtd/nand/raw/built-in.o
 .rodata.__func__.11453
                0x0000000087893a01       0x11 drivers/mtd/nand/raw/built-in.o
 .rodata.__func__.11522
                0x0000000087893a12        0xb cmd/built-in.o
 .rodata.__func__.11553
                0x0000000087893a1d       0x11 drivers/mtd/ubi/built-in.o
 .rodata.__func__.11561
                0x0000000087893a2e       0x12 drivers/mtd/ubi/built-in.o
 .rodata.__func__.11605
                0x0000000087893a40       0x12 drivers/mtd/ubi/built-in.o
 .rodata.__func__.11606
                0x0000000087893a52       0x12 drivers/mtd/ubi/built-in.o
 .rodata.__func__.11609
                0x0000000087893a64        0xf drivers/mtd/ubi/built-in.o
 .rodata.__func__.11616
                0x0000000087893a73       0x14 drivers/mtd/ubi/built-in.o
 .rodata.__func__.11617
                0x0000000087893a87        0xc drivers/mtd/ubi/built-in.o
 .rodata.__func__.11618
                0x0000000087893a93       0x17 drivers/mtd/ubi/built-in.o
 .rodata.__func__.11622
                0x0000000087893aaa       0x12 drivers/mtd/ubi/built-in.o
 .rodata.__func__.11625
                0x0000000087893abc       0x11 drivers/mtd/ubi/built-in.o
 .rodata.__func__.11626
                0x0000000087893acd        0xa drivers/mtd/nand/raw/built-in.o
 .rodata.__func__.11631
                0x0000000087893ad7       0x10 drivers/mtd/ubi/built-in.o
 .rodata.__func__.11632
                0x0000000087893ae7       0x17 drivers/usb/host/built-in.o
 .rodata.__func__.11633
                0x0000000087893afe        0xc drivers/mtd/ubi/built-in.o
 .rodata.__func__.11634
                0x0000000087893b0a       0x21 drivers/mtd/ubi/built-in.o
 .rodata.__func__.11635
                0x0000000087893b2b       0x10 drivers/mtd/ubi/built-in.o
 .rodata.__func__.11636
                0x0000000087893b3b       0x11 drivers/mtd/ubi/built-in.o
 .rodata.__func__.11647
                0x0000000087893b4c       0x10 drivers/mtd/ubi/built-in.o
 .rodata.__func__.11648
                0x0000000087893b5c        0x8 drivers/mtd/ubi/built-in.o
 .rodata.__func__.11649
                0x0000000087893b64        0xd drivers/mtd/ubi/built-in.o
 .rodata.__func__.11650
                0x0000000087893b71        0xb drivers/mtd/ubi/built-in.o
 .rodata.__func__.11657
                0x0000000087893b7c        0xb drivers/mtd/ubi/built-in.o
 .rodata.__func__.11660
                0x0000000087893b87       0x15 drivers/mtd/ubi/built-in.o
 .rodata.__func__.11662
                0x0000000087893b9c        0xe drivers/mtd/ubi/built-in.o
 .rodata.__func__.11665
                0x0000000087893baa       0x12 drivers/mtd/ubi/built-in.o
 .rodata.__func__.11666
                0x0000000087893bbc        0xf drivers/mtd/ubi/built-in.o
 .rodata.__func__.11667
                0x0000000087893bcb       0x11 drivers/mtd/ubi/built-in.o
 .rodata.__func__.11668
                0x0000000087893bdc        0xf drivers/mtd/ubi/built-in.o
 .rodata.__func__.11670
                0x0000000087893beb       0x11 drivers/mtd/ubi/built-in.o
 .rodata.__func__.11672
                0x0000000087893bfc        0xc drivers/mtd/ubi/built-in.o
 .rodata.__func__.11687
                0x0000000087893c08        0xf drivers/mtd/built-in.o
 .rodata.__func__.11688
                0x0000000087893c17       0x12 drivers/mtd/ubi/built-in.o
 .rodata.__func__.11694
                0x0000000087893c29       0x11 drivers/mtd/ubi/built-in.o
 .rodata.__func__.11696
                0x0000000087893c3a       0x12 drivers/mtd/ubi/built-in.o
 .rodata.__func__.11697
                0x0000000087893c4c        0xd drivers/mtd/ubi/built-in.o
 .rodata.__func__.11701
                0x0000000087893c59        0xe drivers/mtd/ubi/built-in.o
 .rodata.__func__.11702
                0x0000000087893c67       0x19 drivers/mtd/ubi/built-in.o
 .rodata.__func__.11703
                0x0000000087893c80        0x9 drivers/mtd/ubi/built-in.o
 .rodata.__func__.11711
                0x0000000087893c89       0x10 drivers/mtd/ubi/built-in.o
 .rodata.__func__.11719
                0x0000000087893c99       0x10 drivers/mtd/ubi/built-in.o
 .rodata.__func__.11720
                0x0000000087893ca9        0xb drivers/mtd/ubi/built-in.o
 .rodata.__func__.11721
                0x0000000087893cb4        0xd drivers/mtd/ubi/built-in.o
 .rodata.__func__.11723
                0x0000000087893cc1       0x12 drivers/mtd/ubi/built-in.o
 .rodata.__func__.11726
                0x0000000087893cd3       0x11 drivers/mtd/built-in.o
 .rodata.__func__.11731
                0x0000000087893ce4        0x9 drivers/mtd/ubi/built-in.o
 .rodata.__func__.11733
                0x0000000087893ced       0x13 drivers/mtd/ubi/built-in.o
 .rodata.__func__.11735
                0x0000000087893d00       0x10 drivers/mtd/ubi/built-in.o
 .rodata.__func__.11739
                0x0000000087893d10       0x11 drivers/mtd/ubi/built-in.o
 .rodata.__func__.11740
                0x0000000087893d21       0x1d drivers/mtd/ubi/built-in.o
 .rodata.__func__.11744
                0x0000000087893d3e        0xe drivers/mtd/ubi/built-in.o
 .rodata.__func__.11745
                0x0000000087893d4c       0x14 drivers/mtd/ubi/built-in.o
 .rodata.__func__.11752
                0x0000000087893d60       0x2a drivers/mtd/ubi/built-in.o
 .rodata.__func__.11752
                0x0000000087893d8a        0xc lib/built-in.o
 .rodata.__func__.11754
                0x0000000087893d96       0x15 drivers/mtd/ubi/built-in.o
 .rodata.__func__.11758
                0x0000000087893dab       0x12 drivers/mtd/ubi/built-in.o
 .rodata.__func__.11759
                0x0000000087893dbd        0xb drivers/mtd/ubi/built-in.o
 .rodata.__func__.11760
                0x0000000087893dc8       0x21 drivers/mtd/ubi/built-in.o
 .rodata.__func__.11766
                0x0000000087893de9       0x11 drivers/mtd/ubi/built-in.o
 .rodata.__func__.11769
                0x0000000087893dfa        0xf drivers/mtd/ubi/built-in.o
 .rodata.__func__.11771
                0x0000000087893e09       0x13 drivers/mtd/ubi/built-in.o
 .rodata.__func__.11775
                0x0000000087893e1c       0x14 drivers/mtd/ubi/built-in.o
 .rodata.__func__.11787
                0x0000000087893e30       0x13 drivers/mtd/ubi/built-in.o
 .rodata.__func__.11788
                0x0000000087893e43       0x1e drivers/mtd/ubi/built-in.o
 .rodata.__func__.11794
                0x0000000087893e61       0x13 drivers/mtd/ubi/built-in.o
 .rodata.__func__.11795
                0x0000000087893e74       0x15 drivers/mtd/ubi/built-in.o
 .rodata.__func__.11801
                0x0000000087893e89       0x11 drivers/mtd/ubi/built-in.o
 .rodata.__func__.11802
                0x0000000087893e9a       0x12 drivers/mtd/ubi/built-in.o
 .rodata.__func__.11812
                0x0000000087893eac        0xe drivers/mtd/ubi/built-in.o
 .rodata.__func__.11813
                0x0000000087893eba       0x16 drivers/mtd/ubi/built-in.o
 .rodata.__func__.11821
                0x0000000087893ed0       0x13 drivers/mtd/ubi/built-in.o
 .rodata.__func__.11833
                0x0000000087893ee3       0x17 drivers/mtd/ubi/built-in.o
 .rodata.__func__.11841
                0x0000000087893efa        0xd drivers/mtd/ubi/built-in.o
 .rodata.__func__.11846
                0x0000000087893f07       0x11 drivers/mtd/ubi/built-in.o
 .rodata.__func__.11854
                0x0000000087893f18        0xf drivers/mtd/ubi/built-in.o
 .rodata.__func__.11866
                0x0000000087893f27       0x11 drivers/mtd/ubi/built-in.o
 .rodata.__func__.11868
                0x0000000087893f38       0x16 drivers/mtd/ubi/built-in.o
 .rodata.__func__.11873
                0x0000000087893f4e       0x13 drivers/mtd/built-in.o
 .rodata.__func__.11883
                0x0000000087893f61       0x12 drivers/mtd/nand/raw/built-in.o
 .rodata.__func__.11883
                0x0000000087893f73        0xd drivers/mtd/ubi/built-in.o
 .rodata.__func__.11884
                0x0000000087893f80        0xd drivers/mtd/ubi/built-in.o
 .rodata.__func__.11918
                0x0000000087893f8d        0xe drivers/mtd/ubi/built-in.o
 .rodata.__func__.11941
                0x0000000087893f9b       0x15 lib/built-in.o
 .rodata.__func__.11954
                0x0000000087893fb0        0xc drivers/mtd/ubi/built-in.o
 .rodata.__func__.11964
                0x0000000087893fbc        0xe drivers/mtd/ubi/built-in.o
 .rodata.__func__.12009
                0x0000000087893fca        0xe drivers/mtd/ubi/built-in.o
 .rodata.__func__.12015
                0x0000000087893fd8       0x16 drivers/mtd/ubi/built-in.o
 .rodata.__func__.12032
                0x0000000087893fee       0x11 drivers/mtd/ubi/built-in.o
 .rodata.__func__.12037
                0x0000000087893fff        0xf drivers/mtd/ubi/built-in.o
 .rodata.__func__.12052
                0x000000008789400e        0xf drivers/mtd/ubi/built-in.o
 .rodata.__func__.12166
                0x000000008789401d        0xc drivers/net/built-in.o
 .rodata.__func__.12172
                0x0000000087894029        0xe drivers/mtd/nand/raw/built-in.o
 .rodata.__func__.12215
                0x0000000087894037       0x10 drivers/net/built-in.o
 .rodata.__func__.12503
                0x0000000087894047       0x14 drivers/mtd/nand/raw/built-in.o
 .rodata.__func__.12648
                0x000000008789405b        0xf drivers/mtd/nand/raw/built-in.o
 .rodata.__func__.12737
                0x000000008789406a        0xf cmd/built-in.o
 .rodata.__func__.12832
                0x0000000087894079       0x14 fs/built-in.o
 .rodata.__func__.12836
                0x000000008789408d       0x11 fs/built-in.o
 .rodata.__func__.12855
                0x000000008789409e       0x3f fs/built-in.o
 .rodata.__func__.12958
                0x00000000878940dd        0xe fs/built-in.o
 .rodata.__func__.12961
                0x00000000878940eb        0xe fs/built-in.o
 .rodata.__func__.13069
                0x00000000878940f9       0x1f fs/built-in.o
 .rodata.__func__.13076
                0x0000000087894118       0x10 fs/built-in.o
 .rodata.__func__.13083
                0x0000000087894128       0x27 fs/built-in.o
 .rodata.__func__.13084
                0x000000008789414f        0xc fs/built-in.o
 .rodata.__func__.13091
                0x000000008789415b       0x14 fs/built-in.o
 .rodata.__func__.13092
                0x000000008789416f       0x1f fs/built-in.o
 .rodata.__func__.13095
                0x000000008789418e        0xe fs/built-in.o
 .rodata.__func__.13098
                0x000000008789419c       0x27 fs/built-in.o
 .rodata.__func__.13099
                0x00000000878941c3       0x10 fs/built-in.o
 .rodata.__func__.13101
                0x00000000878941d3       0x29 fs/built-in.o
 .rodata.__func__.13104
                0x00000000878941fc       0x10 fs/built-in.o
 .rodata.__func__.13105
                0x000000008789420c       0x1a fs/built-in.o
 .rodata.__func__.13108
                0x0000000087894226       0x15 fs/built-in.o
 .rodata.__func__.13120
                0x000000008789423b       0x11 fs/built-in.o
 .rodata.__func__.13124
                0x000000008789424c       0x1d fs/built-in.o
 .rodata.__func__.13127
                0x0000000087894269       0x1a fs/built-in.o
 .rodata.__func__.13129
                0x0000000087894283       0x18 fs/built-in.o
 .rodata.__func__.13130
                0x000000008789429b        0xb fs/built-in.o
 .rodata.__func__.13131
                0x00000000878942a6       0x21 fs/built-in.o
 .rodata.__func__.13137
                0x00000000878942c7       0x12 fs/built-in.o
 .rodata.__func__.13139
                0x00000000878942d9       0x13 fs/built-in.o
 .rodata.__func__.13142
                0x00000000878942ec       0x27 fs/built-in.o
 .rodata.__func__.13148
                0x0000000087894313       0x28 fs/built-in.o
 .rodata.__func__.13150
                0x000000008789433b       0x21 fs/built-in.o
 .rodata.__func__.13151
                0x000000008789435c       0x11 fs/built-in.o
 .rodata.__func__.13156
                0x000000008789436d       0x23 fs/built-in.o
 .rodata.__func__.13157
                0x0000000087894390        0x8 fs/built-in.o
 .rodata.__func__.13158
                0x0000000087894398       0x11 drivers/usb/gadget/built-in.o
 .rodata.__func__.13162
                0x00000000878943a9       0x12 fs/built-in.o
 .rodata.__func__.13164
                0x00000000878943bb       0x1d fs/built-in.o
 .rodata.__func__.13165
                0x00000000878943d8       0x14 fs/built-in.o
 .rodata.__func__.13172
                0x00000000878943ec       0x18 fs/built-in.o
 .rodata.__func__.13174
                0x0000000087894404       0x11 fs/built-in.o
 .rodata.__func__.13176
                0x0000000087894415       0x17 fs/built-in.o
 .rodata.__func__.13177
                0x000000008789442c       0x1d fs/built-in.o
 .rodata.__func__.13179
                0x0000000087894449       0x19 fs/built-in.o
 .rodata.__func__.13184
                0x0000000087894462       0x10 fs/built-in.o
 .rodata.__func__.13189
                0x0000000087894472        0xe fs/built-in.o
 .rodata.__func__.13190
                0x0000000087894480       0x13 fs/built-in.o
 .rodata.__func__.13191
                0x0000000087894493       0x15 fs/built-in.o
 .rodata.__func__.13196
                0x00000000878944a8        0xb fs/built-in.o
 .rodata.__func__.13198
                0x00000000878944b3       0x14 fs/built-in.o
 .rodata.__func__.13203
                0x00000000878944c7       0x25 fs/built-in.o
 .rodata.__func__.13205
                0x00000000878944ec       0x10 fs/built-in.o
 .rodata.__func__.13211
                0x00000000878944fc       0x27 fs/built-in.o
 .rodata.__func__.13223
                0x0000000087894523       0x14 fs/built-in.o
 .rodata.__func__.13224
                0x0000000087894537       0x12 fs/built-in.o
 .rodata.__func__.13227
                0x0000000087894549       0x10 fs/built-in.o
 .rodata.__func__.13231
                0x0000000087894559        0xb fs/built-in.o
 .rodata.__func__.13233
                0x0000000087894564        0xd fs/built-in.o
 .rodata.__func__.13236
                0x0000000087894571       0x14 fs/built-in.o
 .rodata.__func__.13238
                0x0000000087894585        0xd fs/built-in.o
 .rodata.__func__.13254
                0x0000000087894592       0x16 fs/built-in.o
 .rodata.__func__.13255
                0x00000000878945a8       0x29 fs/built-in.o
 .rodata.__func__.13258
                0x00000000878945d1        0xd fs/built-in.o
 .rodata.__func__.13264
                0x00000000878945de       0x22 fs/built-in.o
 .rodata.__func__.13267
                0x0000000087894600       0x11 fs/built-in.o
 .rodata.__func__.13269
                0x0000000087894611       0x2e fs/built-in.o
 .rodata.__func__.13288
                0x000000008789463f       0x30 fs/built-in.o
 .rodata.__func__.13290
                0x000000008789466f        0x8 fs/built-in.o
 .rodata.__func__.13295
                0x0000000087894677        0xd fs/built-in.o
 .rodata.__func__.13306
                0x0000000087894684        0xf fs/built-in.o
 .rodata.__func__.13310
                0x0000000087894693        0xf fs/built-in.o
 .rodata.__func__.13314
                0x00000000878946a2       0x11 drivers/usb/gadget/built-in.o
 .rodata.__func__.13322
                0x00000000878946b3       0x22 fs/built-in.o
 .rodata.__func__.13324
                0x00000000878946d5        0xc fs/built-in.o
 .rodata.__func__.13336
                0x00000000878946e1        0xe fs/built-in.o
 .rodata.__func__.13341
                0x00000000878946ef       0x14 fs/built-in.o
 .rodata.__func__.13342
                0x0000000087894703       0x15 fs/built-in.o
 .rodata.__func__.13344
                0x0000000087894718        0xf fs/built-in.o
 .rodata.__func__.13368
                0x0000000087894727        0x9 fs/built-in.o
 .rodata.__func__.13384
                0x0000000087894730        0xb fs/built-in.o
 .rodata.__func__.13386
                0x000000008789473b       0x11 fs/built-in.o
 .rodata.__func__.13390
                0x000000008789474c       0x13 fs/built-in.o
 .rodata.__func__.13400
                0x000000008789475f        0xb fs/built-in.o
 .rodata.__func__.13420
                0x000000008789476a        0xc fs/built-in.o
 .rodata.__func__.13434
                0x0000000087894776       0x11 fs/built-in.o
 .rodata.__func__.13442
                0x0000000087894787        0xb fs/built-in.o
 .rodata.__func__.13452
                0x0000000087894792        0xb fs/built-in.o
 .rodata.__func__.13458
                0x000000008789479d        0xf drivers/usb/gadget/built-in.o
 .rodata.__func__.13486
                0x00000000878947ac       0x14 fs/built-in.o
 .rodata.__func__.13496
                0x00000000878947c0        0xf fs/built-in.o
 .rodata.__func__.13500
                0x00000000878947cf       0x10 fs/built-in.o
 .rodata.__func__.13506
                0x00000000878947df       0x10 fs/built-in.o
 .rodata.__func__.13518
                0x00000000878947ef        0xb fs/built-in.o
 .rodata.__func__.13522
                0x00000000878947fa       0x17 fs/built-in.o
 .rodata.__func__.13594
                0x0000000087894811        0xb fs/built-in.o
 .rodata.__func__.13687
                0x000000008789481c       0x13 fs/built-in.o
 .rodata.__func__.13695
                0x000000008789482f       0x12 fs/built-in.o
 .rodata.__func__.13704
                0x0000000087894841       0x10 fs/built-in.o
 .rodata.__func__.8151
                0x0000000087894851        0xb fs/built-in.o
 .rodata.__func__.8383
                0x000000008789485c       0x13 lib/built-in.o
 .rodata.__func__.8509
                0x000000008789486f        0xa drivers/built-in.o
 .rodata.__func__.8538
                0x0000000087894879        0xb drivers/built-in.o
 .rodata.__func__.8556
                0x0000000087894884        0xa drivers/built-in.o
 .rodata.__func__.8568
                0x000000008789488e        0xe drivers/built-in.o
 .rodata.__func__.8601
                0x000000008789489c       0x13 fs/built-in.o
 .rodata.__func__.8610
                0x00000000878948af       0x14 fs/built-in.o
 .rodata.__func__.9009
                0x00000000878948c3       0x1c fs/built-in.o
 .rodata.__func__.9442
                0x00000000878948df        0xf disk/built-in.o
 .rodata.__func__.9454
                0x00000000878948ee       0x12 disk/built-in.o
 .rodata.__func__.9588
                0x0000000087894900       0x1c disk/built-in.o
 .rodata.__func__.9605
                0x000000008789491c        0xd disk/built-in.o
 .rodata.__func__.9617
                0x0000000087894929       0x17 disk/built-in.o
 .rodata.__func__.9622
                0x0000000087894940        0xd disk/built-in.o
 .rodata.__func__.9698
                0x000000008789494d       0x18 common/built-in.o
 .rodata.__func__.9802
                0x0000000087894965       0x1b lib/built-in.o
 .rodata.__func__.9821
                0x0000000087894980        0xc lib/built-in.o
 .rodata.__func__.9917
                0x000000008789498c        0xc drivers/built-in.o
 .rodata.__func__.9925
                0x0000000087894998        0xb drivers/built-in.o
 .rodata._ctype
                0x00000000878949a3      0x100 lib/built-in.o
                0x00000000878949a3                _ctype
 .rodata.bank_lookup
                0x0000000087894aa3        0x2 arch/arm/mach-imx/built-in.o
 .rodata.col_lookup
                0x0000000087894aa5        0x8 arch/arm/mach-imx/built-in.o
 .rodata.day_name.10926
                0x0000000087894aad       0x15 fs/built-in.o
 .rodata.default_environment
                0x0000000087894ac2     0x5469 env/built-in.o
                0x0000000087894ac2                default_environment
 .rodata.digits.9945
                0x0000000087899f2b       0x10 lib/built-in.o
 .rodata.env_flags_varaccess_rep
                0x0000000087899f3b        0x5 env/built-in.o
 .rodata.env_flags_vartype_rep
                0x0000000087899f40        0x7 env/built-in.o
 .rodata.erase_seq
                0x0000000087899f47        0x4 common/built-in.o
 .rodata.fastboot_name
                0x0000000087899f4b       0x11 drivers/usb/gadget/built-in.o
 .rodata.hex_asc
                0x0000000087899f5c       0x11 lib/built-in.o
                0x0000000087899f5c                hex_asc
 .rodata.illegal
                0x0000000087899f6d        0xa lib/built-in.o
 .rodata.lzop_magic
                0x0000000087899f77        0x9 lib/built-in.o
 .rodata.manufacturer
                0x0000000087899f80        0x4 drivers/usb/gadget/built-in.o
 .rodata.mon_name.10927
                0x0000000087899f84       0x24 fs/built-in.o
 .rodata.multipliers
                0x0000000087899fa8       0x10 drivers/built-in.o
 .rodata.names.8419
                0x0000000087899fb8        0x6 lib/built-in.o
 .rodata.nand_ecc_precalc_table
                0x0000000087899fbe      0x100 drivers/mtd/nand/raw/built-in.o
 .rodata.net_bcast_ethaddr
                0x000000008789a0be        0x6 net/built-in.o
                0x000000008789a0be                net_bcast_ethaddr
 .rodata.patterns
                0x000000008789a0c4        0x3 drivers/mtd/ubi/built-in.o
 .rodata.product
                0x000000008789a0c7       0x14 drivers/usb/gadget/built-in.o
 .rodata.str1.1
                0x000000008789a0db      0x3c0 arch/arm/lib/built-in.o
                                        0x413 (size before relaxing)
 .rodata.str1.1
                0x000000008789a49b     0x1095 arch/arm/mach-imx/built-in.o
                                       0x10cf (size before relaxing)
 .rodata.str1.1
                0x000000008789b530       0x41 board/freescale/common/built-in.o
                                         0x48 (size before relaxing)
 .rodata.str1.1
                0x000000008789b571       0x9d board/freescale/mx6ullevk/built-in.o
                                         0xa0 (size before relaxing)
 .rodata.str1.1
                0x000000008789b60e     0x9115 cmd/built-in.o
                                       0x994c (size before relaxing)
 .rodata.str1.1
                0x00000000878a4723     0x2828 common/built-in.o
                                       0x2bf7 (size before relaxing)
 .rodata.str1.1
                0x00000000878a6f4b      0x916 disk/built-in.o
                                        0x99b (size before relaxing)
 .rodata.str1.1
                0x00000000878a7861     0x1e33 drivers/built-in.o
                                       0x2179 (size before relaxing)
 .rodata.str1.1
                0x00000000878a9694       0x50 drivers/dma/built-in.o
 .rodata.str1.1
                0x00000000878a96e4      0x116 drivers/gpio/built-in.o
                                        0x139 (size before relaxing)
 .rodata.str1.1
                0x00000000878a97fa      0x183 drivers/i2c/built-in.o
                                        0x1f7 (size before relaxing)
 .rodata.str1.1
                0x00000000878a997d      0x41d drivers/mtd/built-in.o
                                        0x4f6 (size before relaxing)
 .rodata.str1.1
                0x00000000878a9d9a      0xf8c drivers/mtd/nand/raw/built-in.o
                                        0xfeb (size before relaxing)
 .rodata.str1.1
                0x00000000878aad26      0x22f drivers/mtd/spi/built-in.o
                                        0x240 (size before relaxing)
 .rodata.str1.1
                0x00000000878aaf55     0x2f0a drivers/mtd/ubi/built-in.o
                                       0x32be (size before relaxing)
 .rodata.str1.1
                0x00000000878ade5f      0x2be drivers/net/built-in.o
                                        0x2c2 (size before relaxing)
 .rodata.str1.1
                0x00000000878ae11d      0x1e5 drivers/net/phy/built-in.o
                                        0x200 (size before relaxing)
 .rodata.str1.1
                0x00000000878ae302      0x182 drivers/power/regulator/built-in.o
                                        0x1bf (size before relaxing)
 .rodata.str1.1
                0x00000000878ae484       0x57 drivers/serial/built-in.o
                                         0x92 (size before relaxing)
 .rodata.str1.1
                0x00000000878ae4db      0x24e drivers/spi/built-in.o
                                        0x276 (size before relaxing)
 .rodata.str1.1
                0x00000000878ae729       0x63 drivers/usb/eth/built-in.o
 .rodata.str1.1
                0x00000000878ae78c      0x1b1 drivers/usb/gadget/built-in.o
                                        0x204 (size before relaxing)
 .rodata.str1.1
                0x00000000878ae93d        0x4 drivers/usb/gadget/udc/built-in.o
 .rodata.str1.1
                0x00000000878ae93d      0x40d drivers/usb/host/built-in.o
                                        0x42c (size before relaxing)
 .rodata.str1.1
                0x00000000878aed4a      0x42a env/built-in.o
                                        0x4cf (size before relaxing)
 .rodata.str1.1
                0x00000000878af174     0x4350 fs/built-in.o
                                       0x47d0 (size before relaxing)
 .rodata.str1.1
                0x00000000878b34c4     0x137f lib/built-in.o
                                       0x1618 (size before relaxing)
 .rodata.str1.1
                0x00000000878b4843      0x840 net/built-in.o
                                        0x9a8 (size before relaxing)
 .rodata.tab_seq
                0x00000000878b5083        0x9 common/built-in.o
 .rodata.us_direction
                0x00000000878b508c       0x20 common/built-in.o
 .rodata.version_string
                0x00000000878b50ac       0x46 cmd/built-in.o
                0x00000000878b50ac                version_string

.hash           0x00000000878b50f4       0x18
 .hash          0x00000000878b50f4       0x18 arch/arm/cpu/armv7/start.o
                0x00000000878b510c                . = ALIGN (0x4)

.data           0x00000000878b5110    0x11dcc
 *(.data*)
 .data.rel.ro   0x00000000878b5110        0x0 arch/arm/cpu/armv7/start.o
 .data.base     0x00000000878b5110        0x4 arch/arm/mach-imx/built-in.o
 .data.reset_cause
                0x00000000878b5114        0x4 arch/arm/mach-imx/built-in.o
 .data.imx_ccm  0x00000000878b5118        0x4 arch/arm/mach-imx/built-in.o
                0x00000000878b5118                imx_ccm
 .data.display_count
                0x00000000878b511c        0x4 board/freescale/mx6ullevk/built-in.o
                0x00000000878b511c                display_count
 .data.bootm_help_text
                0x00000000878b5120      0x38b cmd/built-in.o
 *fill*         0x00000000878b54ab        0x1 
 .data.cmd_bootm_sub
                0x00000000878b54ac       0xfc cmd/built-in.o
 .data.source_help_text
                0x00000000878b55a8       0x4e cmd/built-in.o
 *fill*         0x00000000878b55f6        0x2 
 .data.cmd_blkc_sub
                0x00000000878b55f8       0x38 cmd/built-in.o
 .data.cmd_bmp_sub
                0x00000000878b5630       0x38 cmd/built-in.o
 .data.bootefi_help_text
                0x00000000878b5668      0x188 cmd/built-in.o
 .data.bootz_help_text
                0x00000000878b57f0      0x208 cmd/built-in.o
 .data.test_commands
                0x00000000878b59f8       0x54 cmd/built-in.o
 .data.tabs.9195
                0x00000000878b5a4c       0x21 cmd/built-in.o
 .data.root.9108
                0x00000000878b5a6d        0x2 cmd/built-in.o
 .data.fdt_help_text
                0x00000000878b5a6f      0x6e5 cmd/built-in.o
 .data.i2c_help_text
                0x00000000878b6154      0x3ed cmd/built-in.o
 *fill*         0x00000000878b6541        0x3 
 .data.cmd_i2c_sub
                0x00000000878b6544      0x1a4 cmd/built-in.o
 .data.i2c_dp_last_length
                0x00000000878b66e8        0x4 cmd/built-in.o
 .data.do_echo  0x00000000878b66ec        0x4 cmd/built-in.o
 .data.dp_last_length
                0x00000000878b66f0        0x4 cmd/built-in.o
 .data.curr_device
                0x00000000878b66f4        0x4 cmd/built-in.o
 .data.cmd_mmc  0x00000000878b66f8      0x188 cmd/built-in.o
 .data.mtd_subcmds
                0x00000000878b6880       0xa8 cmd/built-in.o
 .data.mtd_help_text
                0x00000000878b6928      0x39a cmd/built-in.o
 .data.mtdparts_help_text
                0x00000000878b6cc2      0x4de cmd/built-in.o
 .data.nand_help_text
                0x00000000878b71a0      0x3ee cmd/built-in.o
 *fill*         0x00000000878b758e        0x2 
 .data.pinmux_subcmd
                0x00000000878b7590       0x54 cmd/built-in.o
 .data.usb_stor_curr_dev
                0x00000000878b75e4        0x4 cmd/built-in.o
 .data.fastboot_help_text
                0x00000000878b75e8       0xac cmd/built-in.o
 .data.imgextract_help_text
                0x00000000878b7694       0x55 cmd/built-in.o
 .data.env_help_text
                0x00000000878b76e9      0x2d6 cmd/built-in.o
 *fill*         0x00000000878b79bf        0x1 
 .data.env_id   0x00000000878b79c0        0x4 cmd/built-in.o
 .data.cmd_env_sub
                0x00000000878b79c4      0x118 cmd/built-in.o
 .data.reserved_list
                0x00000000878b7adc       0x84 common/built-in.o
 .data.init_sequence_r
                0x00000000878b7b60       0x80 common/built-in.o
 .data.of_busses
                0x00000000878b7be0       0x18 common/built-in.o
 .data.usb_scan_list
                0x00000000878b7bf8        0x8 common/built-in.o
 .data.hist_cur
                0x00000000878b7c00        0x4 common/built-in.o
 .data.av_      0x00000000878b7c04      0x408 common/built-in.o
 .data.sbrk_base
                0x00000000878b800c        0x4 common/built-in.o
 .data.trim_threshold
                0x00000000878b8010        0x4 common/built-in.o
 .data.load_addr
                0x00000000878b8014        0x4 common/built-in.o
                0x00000000878b8014                load_addr
 .data.stdio_names
                0x00000000878b8018        0xc common/built-in.o
                0x00000000878b8018                stdio_names
 .data.imx6_snvs_pinctrl_soc_info
                0x00000000878b8024       0x10 drivers/built-in.o
 .data.imx6ul_pinctrl_soc_info
                0x00000000878b8034       0x10 drivers/built-in.o
 .data.block_cache
                0x00000000878b8044        0x8 drivers/built-in.o
 .data._stats   0x00000000878b804c       0x14 drivers/built-in.o
 .data.fastboot_devinfo
                0x00000000878b8060        0x2 drivers/built-in.o
                0x00000000878b8060                fastboot_devinfo
 *fill*         0x00000000878b8062        0x2 
 .data.fastboot_common_var
                0x00000000878b8064       0x34 drivers/built-in.o
                0x00000000878b8064                fastboot_common_var
 .data.usdhc_imx8qm_data
                0x00000000878b8098        0x8 drivers/built-in.o
 .data.usdhc_imx7d_data
                0x00000000878b80a0        0x8 drivers/built-in.o
 .data.video_fontdata
                0x00000000878b80a8     0x1000 drivers/built-in.o
 .data.video_logo_height
                0x00000000878b90a8        0x4 drivers/built-in.o
 .data.nl.9621  0x00000000878b90ac        0x4 drivers/built-in.o
 .data.bmp_logo_bitmap
                0x00000000878b90b0     0xb600 drivers/built-in.o
                0x00000000878b90b0                bmp_logo_bitmap
 .data.bmp_logo_palette
                0x00000000878c46b0      0x1e0 drivers/built-in.o
                0x00000000878c46b0                bmp_logo_palette
 .data.use_defaults.10714
                0x00000000878c4890        0x1 drivers/mtd/built-in.o
 *fill*         0x00000000878c4891        0x3 
 .data.nand_curr_device
                0x00000000878c4894        0x4 drivers/mtd/nand/raw/built-in.o
                0x00000000878c4894                nand_curr_device
 .data.bbt_mirror_descr
                0x00000000878c4898       0x24 drivers/mtd/nand/raw/built-in.o
 .data.mirror_pattern
                0x00000000878c48bc        0x4 drivers/mtd/nand/raw/built-in.o
 .data.bbt_main_no_oob_descr
                0x00000000878c48c0       0x24 drivers/mtd/nand/raw/built-in.o
 .data.bbt_mirror_no_oob_descr
                0x00000000878c48e4       0x24 drivers/mtd/nand/raw/built-in.o
 .data.scan_ff_pattern
                0x00000000878c4908        0x2 drivers/mtd/nand/raw/built-in.o
 *fill*         0x00000000878c490a        0x2 
 .data.bbt_main_descr
                0x00000000878c490c       0x24 drivers/mtd/nand/raw/built-in.o
 .data.bbt_pattern
                0x00000000878c4930        0x4 drivers/mtd/nand/raw/built-in.o
 .data.nand_flash_ids
                0x00000000878c4934      0xd98 drivers/mtd/nand/raw/built-in.o
                0x00000000878c4934                nand_flash_ids
 .data.genphy_driver
                0x00000000878c56cc       0x34 drivers/net/phy/built-in.o
 .data.phy_drivers
                0x00000000878c5700        0x8 drivers/net/phy/built-in.o
 .data.ksz8895_driver
                0x00000000878c5708       0x34 drivers/net/phy/built-in.o
 .data.KSZ8081_driver
                0x00000000878c573c       0x34 drivers/net/phy/built-in.o
 .data.KSZ804_driver
                0x00000000878c5770       0x34 drivers/net/phy/built-in.o
 .data.ksz886x_driver
                0x00000000878c57a4       0x34 drivers/net/phy/built-in.o
 .data.KSZ8051_driver
                0x00000000878c57d8       0x34 drivers/net/phy/built-in.o
 .data.KSZ8031_driver
                0x00000000878c580c       0x34 drivers/net/phy/built-in.o
 .data.KS8721_driver
                0x00000000878c5840       0x34 drivers/net/phy/built-in.o
 .data.mxc_serial_drv
                0x00000000878c5874       0x30 drivers/serial/built-in.o
 .data.ep0_desc
                0x00000000878c58a4        0x9 drivers/usb/gadget/built-in.o
 *fill*         0x00000000878c58ad        0x3 
 .data.ci_ep_ops
                0x00000000878c58b0       0x28 drivers/usb/gadget/built-in.o
 .data.ci_udc_ops
                0x00000000878c58d8       0x2c drivers/usb/gadget/built-in.o
 .data.controller
                0x00000000878c5904      0x190 drivers/usb/gadget/built-in.o
 .data.device_desc
                0x00000000878c5a94       0x12 drivers/usb/gadget/built-in.o
 *fill*         0x00000000878c5aa6        0x2 
 .data.g_dnl_string_tab
                0x00000000878c5aa8        0x8 drivers/usb/gadget/built-in.o
 .data.qw_sign_buf
                0x00000000878c5ab0        0x7 drivers/usb/gadget/built-in.o
 *fill*         0x00000000878c5ab7        0x1 
 .data.g_dnl_composite_strings
                0x00000000878c5ab8        0x8 drivers/usb/gadget/built-in.o
 .data.g_dnl_driver
                0x00000000878c5ac0       0x24 drivers/usb/gadget/built-in.o
 .data.composite_driver
                0x00000000878c5ae4       0x24 drivers/usb/gadget/built-in.o
 .data.g_dnl_string_defs
                0x00000000878c5b08       0x20 drivers/usb/gadget/built-in.o
 .data.fb_os_desc
                0x00000000878c5b28       0x14 drivers/usb/gadget/built-in.o
 .data.fb_cid   0x00000000878c5b3c       0x10 drivers/usb/gadget/built-in.o
 .data.fastboot_string_defs
                0x00000000878c5b4c       0x10 drivers/usb/gadget/built-in.o
 .data.fb_ext_prop
                0x00000000878c5b5c       0x1c drivers/usb/gadget/built-in.o
 .data.fb_ext_prop_data
                0x00000000878c5b78       0x27 drivers/usb/gadget/built-in.o
 *fill*         0x00000000878c5b9f        0x1 
 .data.fastboot_strings
                0x00000000878c5ba0        0x8 drivers/usb/gadget/built-in.o
 .data.fb_ss_function
                0x00000000878c5ba8       0x18 drivers/usb/gadget/built-in.o
 .data.ss_ep_out
                0x00000000878c5bc0        0x9 drivers/usb/gadget/built-in.o
 .data.hs_ep_out
                0x00000000878c5bc9        0x9 drivers/usb/gadget/built-in.o
 .data.fs_ep_out
                0x00000000878c5bd2        0x9 drivers/usb/gadget/built-in.o
 *fill*         0x00000000878c5bdb        0x1 
 .data.fb_os_desc_table
                0x00000000878c5bdc        0x8 drivers/usb/gadget/built-in.o
 .data.fb_ext_prop_name
                0x00000000878c5be4       0x14 drivers/usb/gadget/built-in.o
 .data.fb_ss_bulk_comp_desc
                0x00000000878c5bf8        0x6 drivers/usb/gadget/built-in.o
 .data.fs_ep_in
                0x00000000878c5bfe        0x9 drivers/usb/gadget/built-in.o
 *fill*         0x00000000878c5c07        0x1 
 .data.stringtab_fastboot
                0x00000000878c5c08        0x8 drivers/usb/gadget/built-in.o
 .data.fb_hs_function
                0x00000000878c5c10       0x10 drivers/usb/gadget/built-in.o
 .data.hs_ep_in
                0x00000000878c5c20        0x9 drivers/usb/gadget/built-in.o
 .data.ss_ep_in
                0x00000000878c5c29        0x9 drivers/usb/gadget/built-in.o
 *fill*         0x00000000878c5c32        0x2 
 .data.fb_fs_function
                0x00000000878c5c34        0xc drivers/usb/gadget/built-in.o
 .data.interface_desc
                0x00000000878c5c40        0x9 drivers/usb/gadget/built-in.o
 *fill*         0x00000000878c5c49        0x3 
 .data.ehci_usb_ops
                0x00000000878c5c4c       0x28 drivers/usb/host/built-in.o
                0x00000000878c5c4c                ehci_usb_ops
 .data.descriptor
                0x00000000878c5c74       0x39 drivers/usb/host/built-in.o
 *fill*         0x00000000878c5cad        0x3 
 .data.env_htab
                0x00000000878c5cb0       0x10 env/built-in.o
                0x00000000878c5cb0                env_htab
 .data.first_call
                0x00000000878c5cc0        0x8 env/built-in.o
 .data.fstypes  0x00000000878c5cc8      0x100 fs/built-in.o
 .data.ext4fs_indir3_blkno
                0x00000000878c5dc8        0x4 fs/built-in.o
                0x00000000878c5dc8                ext4fs_indir3_blkno
 .data.prev_inode_bitmap_index.8956
                0x00000000878c5dcc        0x4 fs/built-in.o
 .data.ext4fs_indir1_blkno
                0x00000000878c5dd0        0x4 fs/built-in.o
                0x00000000878c5dd0                ext4fs_indir1_blkno
 .data.prev_bg_bitmap_index.8932
                0x00000000878c5dd4        0x4 fs/built-in.o
 .data.ext4fs_indir2_blkno
                0x00000000878c5dd8        0x4 fs/built-in.o
                0x00000000878c5dd8                ext4fs_indir2_blkno
 .data.prev_bg_bmap_idx.8663
                0x00000000878c5ddc        0x4 fs/built-in.o
 .data.prev_bg_bmap_idx.8700
                0x00000000878c5de0        0x4 fs/built-in.o
 .data.prev_bg_bmap_idx.8678
                0x00000000878c5de4        0x4 fs/built-in.o
 .data.prev_bg_bmap_idx.8735
                0x00000000878c5de8        0x4 fs/built-in.o
 .data.first_node
                0x00000000878c5dec        0x4 fs/built-in.o
 .data.lzo_compr
                0x00000000878c5df0       0x1c fs/built-in.o
 .data.none_compr
                0x00000000878c5e0c       0x1c fs/built-in.o
 .data.zlib_compr
                0x00000000878c5e28       0x1c fs/built-in.o
 .data.ubifs_fs_type
                0x00000000878c5e44       0x1c fs/built-in.o
 .data.efi_boot_services
                0x00000000878c5e60       0xc8 lib/built-in.o
 .data.efi_tpl  0x00000000878c5f28        0x4 lib/built-in.o
 .data.efi_events
                0x00000000878c5f2c        0x8 lib/built-in.o
                0x00000000878c5f2c                efi_events
 .data.efi_is_direct_boot
                0x00000000878c5f34        0x1 lib/built-in.o
 *fill*         0x00000000878c5f35        0x3 
 .data.entry_count
                0x00000000878c5f38        0x4 lib/built-in.o
 .data.efi_obj_list
                0x00000000878c5f3c        0x8 lib/built-in.o
                0x00000000878c5f3c                efi_obj_list
 .data.efi_cout_modes
                0x00000000878c5f44       0x24 lib/built-in.o
 .data.cin_notify_functions
                0x00000000878c5f68        0x8 lib/built-in.o
 .data.efi_con_in
                0x00000000878c5f70        0xc lib/built-in.o
                0x00000000878c5f70                efi_con_in
 .data.efi_con_out
                0x00000000878c5f7c       0x28 lib/built-in.o
                0x00000000878c5f7c                efi_con_out
 .data.efi_con_in_ex
                0x00000000878c5fa4       0x18 lib/built-in.o
 .data.efi_con_mode
                0x00000000878c5fbc       0x18 lib/built-in.o
 .data.efi_mem  0x00000000878c5fd4        0x8 lib/built-in.o
                0x00000000878c5fd4                efi_mem
 .data.lastoff.11940
                0x00000000878c5fdc        0x4 lib/built-in.o
 .data.efi_obj_list_initialized
                0x00000000878c5fe0        0x4 lib/built-in.o
 .data.capitalization_table
                0x00000000878c5fe4      0xed0 lib/built-in.o
 .data.cur      0x00000000878c6eb4        0x4 lib/built-in.o
                0x00000000878c6eb4                cur
 .data.current  0x00000000878c6eb8        0x4 lib/built-in.o
                0x00000000878c6eb8                current
 .data.first_call.8539
                0x00000000878c6ebc        0x4 net/built-in.o
 .data.net_native_vlan
                0x00000000878c6ec0        0x2 net/built-in.o
                0x00000000878c6ec0                net_native_vlan
 .data.net_our_vlan
                0x00000000878c6ec2        0x2 net/built-in.o
                0x00000000878c6ec2                net_our_vlan
 .data.nfs_offset
                0x00000000878c6ec4        0x4 net/built-in.o
 .data.supported_nfs_versions
                0x00000000878c6ec8        0x1 net/built-in.o
 *fill*         0x00000000878c6ec9        0x1 
 .data.tftp_block_size_option
                0x00000000878c6eca        0x2 net/built-in.o
 .data.tftp_timeout_count_max
                0x00000000878c6ecc        0x4 net/built-in.o
                0x00000000878c6ecc                tftp_timeout_count_max
 .data.timeout_ms
                0x00000000878c6ed0        0x4 net/built-in.o
 .data.tftp_block_size
                0x00000000878c6ed4        0x2 net/built-in.o
 *fill*         0x00000000878c6ed6        0x2 
 .data.timeout_count_max
                0x00000000878c6ed8        0x4 net/built-in.o

.got            0x00000000878c6edc        0x0
 .got           0x00000000878c6edc        0x0 arch/arm/cpu/armv7/start.o

.got.plt        0x00000000878c6edc        0xc
 .got.plt       0x00000000878c6edc        0xc arch/arm/cpu/armv7/start.o
                0x00000000878c6edc                _GLOBAL_OFFSET_TABLE_

.igot.plt       0x00000000878c6ee8        0x0
 .igot.plt      0x00000000878c6ee8        0x0 arch/arm/cpu/armv7/start.o
                0x00000000878c6ee8                . = ALIGN (0x4)
                0x00000000878c6ee8                . = .
                0x00000000878c6ee8                . = ALIGN (0x4)

.u_boot_list    0x00000000878c6ee8     0x1a48
 *(SORT_BY_NAME(.u_boot_list*))
 .u_boot_list_2_cmd_1
                0x00000000878c6ee8        0x0 cmd/built-in.o
 .u_boot_list_2_cmd_1
                0x00000000878c6ee8        0x0 common/built-in.o
 .u_boot_list_2_cmd_2_base
                0x00000000878c6ee8       0x1c cmd/built-in.o
                0x00000000878c6ee8                _u_boot_list_2_cmd_2_base
 .u_boot_list_2_cmd_2_bdinfo
                0x00000000878c6f04       0x1c cmd/built-in.o
                0x00000000878c6f04                _u_boot_list_2_cmd_2_bdinfo
 .u_boot_list_2_cmd_2_blkcache
                0x00000000878c6f20       0x1c cmd/built-in.o
                0x00000000878c6f20                _u_boot_list_2_cmd_2_blkcache
 .u_boot_list_2_cmd_2_bmode
                0x00000000878c6f3c       0x1c arch/arm/mach-imx/built-in.o
                0x00000000878c6f3c                _u_boot_list_2_cmd_2_bmode
 .u_boot_list_2_cmd_2_bmp
                0x00000000878c6f58       0x1c cmd/built-in.o
                0x00000000878c6f58                _u_boot_list_2_cmd_2_bmp
 .u_boot_list_2_cmd_2_boot
                0x00000000878c6f74       0x1c cmd/built-in.o
                0x00000000878c6f74                _u_boot_list_2_cmd_2_boot
 .u_boot_list_2_cmd_2_bootd
                0x00000000878c6f90       0x1c cmd/built-in.o
                0x00000000878c6f90                _u_boot_list_2_cmd_2_bootd
 .u_boot_list_2_cmd_2_bootefi
                0x00000000878c6fac       0x1c cmd/built-in.o
                0x00000000878c6fac                _u_boot_list_2_cmd_2_bootefi
 .u_boot_list_2_cmd_2_bootelf
                0x00000000878c6fc8       0x1c cmd/built-in.o
                0x00000000878c6fc8                _u_boot_list_2_cmd_2_bootelf
 .u_boot_list_2_cmd_2_bootm
                0x00000000878c6fe4       0x1c cmd/built-in.o
                0x00000000878c6fe4                _u_boot_list_2_cmd_2_bootm
 .u_boot_list_2_cmd_2_bootp
                0x00000000878c7000       0x1c cmd/built-in.o
                0x00000000878c7000                _u_boot_list_2_cmd_2_bootp
 .u_boot_list_2_cmd_2_bootvx
                0x00000000878c701c       0x1c cmd/built-in.o
                0x00000000878c701c                _u_boot_list_2_cmd_2_bootvx
 .u_boot_list_2_cmd_2_bootz
                0x00000000878c7038       0x1c cmd/built-in.o
                0x00000000878c7038                _u_boot_list_2_cmd_2_bootz
 .u_boot_list_2_cmd_2_chpart
                0x00000000878c7054       0x1c cmd/built-in.o
                0x00000000878c7054                _u_boot_list_2_cmd_2_chpart
 .u_boot_list_2_cmd_2_clocks
                0x00000000878c7070       0x1c arch/arm/mach-imx/built-in.o
                0x00000000878c7070                _u_boot_list_2_cmd_2_clocks
 .u_boot_list_2_cmd_2_clrlogo
                0x00000000878c708c       0x1c drivers/built-in.o
                0x00000000878c708c                _u_boot_list_2_cmd_2_clrlogo
 .u_boot_list_2_cmd_2_cmp
                0x00000000878c70a8       0x1c cmd/built-in.o
                0x00000000878c70a8                _u_boot_list_2_cmd_2_cmp
 .u_boot_list_2_cmd_2_coninfo
                0x00000000878c70c4       0x1c cmd/built-in.o
                0x00000000878c70c4                _u_boot_list_2_cmd_2_coninfo
 .u_boot_list_2_cmd_2_cp
                0x00000000878c70e0       0x1c cmd/built-in.o
                0x00000000878c70e0                _u_boot_list_2_cmd_2_cp
 .u_boot_list_2_cmd_2_crc32
                0x00000000878c70fc       0x1c cmd/built-in.o
                0x00000000878c70fc                _u_boot_list_2_cmd_2_crc32
 .u_boot_list_2_cmd_2_dcache
                0x00000000878c7118       0x1c cmd/built-in.o
                0x00000000878c7118                _u_boot_list_2_cmd_2_dcache
 .u_boot_list_2_cmd_2_dhcp
                0x00000000878c7134       0x1c cmd/built-in.o
                0x00000000878c7134                _u_boot_list_2_cmd_2_dhcp
 .u_boot_list_2_cmd_2_dm
                0x00000000878c7150       0x1c cmd/built-in.o
                0x00000000878c7150                _u_boot_list_2_cmd_2_dm
 .u_boot_list_2_cmd_2_echo
                0x00000000878c716c       0x1c cmd/built-in.o
                0x00000000878c716c                _u_boot_list_2_cmd_2_echo
 .u_boot_list_2_cmd_2_editenv
                0x00000000878c7188       0x1c cmd/built-in.o
                0x00000000878c7188                _u_boot_list_2_cmd_2_editenv
 .u_boot_list_2_cmd_2_env
                0x00000000878c71a4       0x1c cmd/built-in.o
                0x00000000878c71a4                _u_boot_list_2_cmd_2_env
 .u_boot_list_2_cmd_2_erase
                0x00000000878c71c0       0x1c cmd/built-in.o
                0x00000000878c71c0                _u_boot_list_2_cmd_2_erase
 .u_boot_list_2_cmd_2_exit
                0x00000000878c71dc       0x1c cmd/built-in.o
                0x00000000878c71dc                _u_boot_list_2_cmd_2_exit
 .u_boot_list_2_cmd_2_ext2load
                0x00000000878c71f8       0x1c cmd/built-in.o
                0x00000000878c71f8                _u_boot_list_2_cmd_2_ext2load
 .u_boot_list_2_cmd_2_ext2ls
                0x00000000878c7214       0x1c cmd/built-in.o
                0x00000000878c7214                _u_boot_list_2_cmd_2_ext2ls
 .u_boot_list_2_cmd_2_ext4load
                0x00000000878c7230       0x1c cmd/built-in.o
                0x00000000878c7230                _u_boot_list_2_cmd_2_ext4load
 .u_boot_list_2_cmd_2_ext4ls
                0x00000000878c724c       0x1c cmd/built-in.o
                0x00000000878c724c                _u_boot_list_2_cmd_2_ext4ls
 .u_boot_list_2_cmd_2_ext4size
                0x00000000878c7268       0x1c cmd/built-in.o
                0x00000000878c7268                _u_boot_list_2_cmd_2_ext4size
 .u_boot_list_2_cmd_2_ext4write
                0x00000000878c7284       0x1c cmd/built-in.o
                0x00000000878c7284                _u_boot_list_2_cmd_2_ext4write
 .u_boot_list_2_cmd_2_false
                0x00000000878c72a0       0x1c cmd/built-in.o
                0x00000000878c72a0                _u_boot_list_2_cmd_2_false
 .u_boot_list_2_cmd_2_fastboot
                0x00000000878c72bc       0x1c cmd/built-in.o
                0x00000000878c72bc                _u_boot_list_2_cmd_2_fastboot
 .u_boot_list_2_cmd_2_fatinfo
                0x00000000878c72d8       0x1c cmd/built-in.o
                0x00000000878c72d8                _u_boot_list_2_cmd_2_fatinfo
 .u_boot_list_2_cmd_2_fatload
                0x00000000878c72f4       0x1c cmd/built-in.o
                0x00000000878c72f4                _u_boot_list_2_cmd_2_fatload
 .u_boot_list_2_cmd_2_fatls
                0x00000000878c7310       0x1c cmd/built-in.o
                0x00000000878c7310                _u_boot_list_2_cmd_2_fatls
 .u_boot_list_2_cmd_2_fatmkdir
                0x00000000878c732c       0x1c cmd/built-in.o
                0x00000000878c732c                _u_boot_list_2_cmd_2_fatmkdir
 .u_boot_list_2_cmd_2_fatrm
                0x00000000878c7348       0x1c cmd/built-in.o
                0x00000000878c7348                _u_boot_list_2_cmd_2_fatrm
 .u_boot_list_2_cmd_2_fatsize
                0x00000000878c7364       0x1c cmd/built-in.o
                0x00000000878c7364                _u_boot_list_2_cmd_2_fatsize
 .u_boot_list_2_cmd_2_fatwrite
                0x00000000878c7380       0x1c cmd/built-in.o
                0x00000000878c7380                _u_boot_list_2_cmd_2_fatwrite
 .u_boot_list_2_cmd_2_fdt
                0x00000000878c739c       0x1c cmd/built-in.o
                0x00000000878c739c                _u_boot_list_2_cmd_2_fdt
 .u_boot_list_2_cmd_2_flinfo
                0x00000000878c73b8       0x1c cmd/built-in.o
                0x00000000878c73b8                _u_boot_list_2_cmd_2_flinfo
 .u_boot_list_2_cmd_2_fstype
                0x00000000878c73d4       0x1c cmd/built-in.o
                0x00000000878c73d4                _u_boot_list_2_cmd_2_fstype
 .u_boot_list_2_cmd_2_fuse
                0x00000000878c73f0       0x1c cmd/built-in.o
                0x00000000878c73f0                _u_boot_list_2_cmd_2_fuse
 .u_boot_list_2_cmd_2_go
                0x00000000878c740c       0x1c cmd/built-in.o
                0x00000000878c740c                _u_boot_list_2_cmd_2_go
 .u_boot_list_2_cmd_2_gpio
                0x00000000878c7428       0x1c cmd/built-in.o
                0x00000000878c7428                _u_boot_list_2_cmd_2_gpio
 .u_boot_list_2_cmd_2_help
                0x00000000878c7444       0x1c cmd/built-in.o
                0x00000000878c7444                _u_boot_list_2_cmd_2_help
 .u_boot_list_2_cmd_2_i2c
                0x00000000878c7460       0x1c cmd/built-in.o
                0x00000000878c7460                _u_boot_list_2_cmd_2_i2c
 .u_boot_list_2_cmd_2_icache
                0x00000000878c747c       0x1c cmd/built-in.o
                0x00000000878c747c                _u_boot_list_2_cmd_2_icache
 .u_boot_list_2_cmd_2_iminfo
                0x00000000878c7498       0x1c cmd/built-in.o
                0x00000000878c7498                _u_boot_list_2_cmd_2_iminfo
 .u_boot_list_2_cmd_2_imxtract
                0x00000000878c74b4       0x1c cmd/built-in.o
                0x00000000878c74b4                _u_boot_list_2_cmd_2_imxtract
 .u_boot_list_2_cmd_2_itest
                0x00000000878c74d0       0x1c cmd/built-in.o
                0x00000000878c74d0                _u_boot_list_2_cmd_2_itest
 .u_boot_list_2_cmd_2_load
                0x00000000878c74ec       0x1c cmd/built-in.o
                0x00000000878c74ec                _u_boot_list_2_cmd_2_load
 .u_boot_list_2_cmd_2_loadb
                0x00000000878c7508       0x1c cmd/built-in.o
                0x00000000878c7508                _u_boot_list_2_cmd_2_loadb
 .u_boot_list_2_cmd_2_loads
                0x00000000878c7524       0x1c cmd/built-in.o
                0x00000000878c7524                _u_boot_list_2_cmd_2_loads
 .u_boot_list_2_cmd_2_loadx
                0x00000000878c7540       0x1c cmd/built-in.o
                0x00000000878c7540                _u_boot_list_2_cmd_2_loadx
 .u_boot_list_2_cmd_2_loady
                0x00000000878c755c       0x1c cmd/built-in.o
                0x00000000878c755c                _u_boot_list_2_cmd_2_loady
 .u_boot_list_2_cmd_2_loop
                0x00000000878c7578       0x1c cmd/built-in.o
                0x00000000878c7578                _u_boot_list_2_cmd_2_loop
 .u_boot_list_2_cmd_2_ls
                0x00000000878c7594       0x1c cmd/built-in.o
                0x00000000878c7594                _u_boot_list_2_cmd_2_ls
 .u_boot_list_2_cmd_2_md
                0x00000000878c75b0       0x1c cmd/built-in.o
                0x00000000878c75b0                _u_boot_list_2_cmd_2_md
 .u_boot_list_2_cmd_2_mdio
                0x00000000878c75cc       0x1c cmd/built-in.o
                0x00000000878c75cc                _u_boot_list_2_cmd_2_mdio
 .u_boot_list_2_cmd_2_mii
                0x00000000878c75e8       0x1c cmd/built-in.o
                0x00000000878c75e8                _u_boot_list_2_cmd_2_mii
 .u_boot_list_2_cmd_2_mm
                0x00000000878c7604       0x1c cmd/built-in.o
                0x00000000878c7604                _u_boot_list_2_cmd_2_mm
 .u_boot_list_2_cmd_2_mmc
                0x00000000878c7620       0x1c cmd/built-in.o
                0x00000000878c7620                _u_boot_list_2_cmd_2_mmc
 .u_boot_list_2_cmd_2_mmcinfo
                0x00000000878c763c       0x1c cmd/built-in.o
                0x00000000878c763c                _u_boot_list_2_cmd_2_mmcinfo
 .u_boot_list_2_cmd_2_mtd
                0x00000000878c7658       0x1c cmd/built-in.o
                0x00000000878c7658                _u_boot_list_2_cmd_2_mtd
 .u_boot_list_2_cmd_2_mtdparts
                0x00000000878c7674       0x1c cmd/built-in.o
                0x00000000878c7674                _u_boot_list_2_cmd_2_mtdparts
 .u_boot_list_2_cmd_2_mtest
                0x00000000878c7690       0x1c cmd/built-in.o
                0x00000000878c7690                _u_boot_list_2_cmd_2_mtest
 .u_boot_list_2_cmd_2_mw
                0x00000000878c76ac       0x1c cmd/built-in.o
                0x00000000878c76ac                _u_boot_list_2_cmd_2_mw
 .u_boot_list_2_cmd_2_nand
                0x00000000878c76c8       0x1c cmd/built-in.o
                0x00000000878c76c8                _u_boot_list_2_cmd_2_nand
 .u_boot_list_2_cmd_2_nboot
                0x00000000878c76e4       0x1c cmd/built-in.o
                0x00000000878c76e4                _u_boot_list_2_cmd_2_nboot
 .u_boot_list_2_cmd_2_nfs
                0x00000000878c7700       0x1c cmd/built-in.o
                0x00000000878c7700                _u_boot_list_2_cmd_2_nfs
 .u_boot_list_2_cmd_2_nm
                0x00000000878c771c       0x1c cmd/built-in.o
                0x00000000878c771c                _u_boot_list_2_cmd_2_nm
 .u_boot_list_2_cmd_2_part
                0x00000000878c7738       0x1c cmd/built-in.o
                0x00000000878c7738                _u_boot_list_2_cmd_2_part
 .u_boot_list_2_cmd_2_ping
                0x00000000878c7754       0x1c cmd/built-in.o
                0x00000000878c7754                _u_boot_list_2_cmd_2_ping
 .u_boot_list_2_cmd_2_pinmux
                0x00000000878c7770       0x1c cmd/built-in.o
                0x00000000878c7770                _u_boot_list_2_cmd_2_pinmux
 .u_boot_list_2_cmd_2_printenv
                0x00000000878c778c       0x1c cmd/built-in.o
                0x00000000878c778c                _u_boot_list_2_cmd_2_printenv
 .u_boot_list_2_cmd_2_protect
                0x00000000878c77a8       0x1c cmd/built-in.o
                0x00000000878c77a8                _u_boot_list_2_cmd_2_protect
 .u_boot_list_2_cmd_2_question_mark
                0x00000000878c77c4       0x1c cmd/built-in.o
                0x00000000878c77c4                _u_boot_list_2_cmd_2_question_mark
 .u_boot_list_2_cmd_2_read
                0x00000000878c77e0       0x1c cmd/built-in.o
                0x00000000878c77e0                _u_boot_list_2_cmd_2_read
 .u_boot_list_2_cmd_2_reset
                0x00000000878c77fc       0x1c cmd/built-in.o
                0x00000000878c77fc                _u_boot_list_2_cmd_2_reset
 .u_boot_list_2_cmd_2_run
                0x00000000878c7818       0x1c cmd/built-in.o
                0x00000000878c7818                _u_boot_list_2_cmd_2_run
 .u_boot_list_2_cmd_2_save
                0x00000000878c7834       0x1c cmd/built-in.o
                0x00000000878c7834                _u_boot_list_2_cmd_2_save
 .u_boot_list_2_cmd_2_saveenv
                0x00000000878c7850       0x1c cmd/built-in.o
                0x00000000878c7850                _u_boot_list_2_cmd_2_saveenv
 .u_boot_list_2_cmd_2_setenv
                0x00000000878c786c       0x1c cmd/built-in.o
                0x00000000878c786c                _u_boot_list_2_cmd_2_setenv
 .u_boot_list_2_cmd_2_setexpr
                0x00000000878c7888       0x1c cmd/built-in.o
                0x00000000878c7888                _u_boot_list_2_cmd_2_setexpr
 .u_boot_list_2_cmd_2_sf
                0x00000000878c78a4       0x1c cmd/built-in.o
                0x00000000878c78a4                _u_boot_list_2_cmd_2_sf
 .u_boot_list_2_cmd_2_showvar
                0x00000000878c78c0       0x1c common/built-in.o
                0x00000000878c78c0                _u_boot_list_2_cmd_2_showvar
 .u_boot_list_2_cmd_2_size
                0x00000000878c78dc       0x1c cmd/built-in.o
                0x00000000878c78dc                _u_boot_list_2_cmd_2_size
 .u_boot_list_2_cmd_2_sleep
                0x00000000878c78f8       0x1c cmd/built-in.o
                0x00000000878c78f8                _u_boot_list_2_cmd_2_sleep
 .u_boot_list_2_cmd_2_source
                0x00000000878c7914       0x1c cmd/built-in.o
                0x00000000878c7914                _u_boot_list_2_cmd_2_source
 .u_boot_list_2_cmd_2_test
                0x00000000878c7930       0x1c cmd/built-in.o
                0x00000000878c7930                _u_boot_list_2_cmd_2_test
 .u_boot_list_2_cmd_2_tftpboot
                0x00000000878c794c       0x1c cmd/built-in.o
                0x00000000878c794c                _u_boot_list_2_cmd_2_tftpboot
 .u_boot_list_2_cmd_2_true
                0x00000000878c7968       0x1c cmd/built-in.o
                0x00000000878c7968                _u_boot_list_2_cmd_2_true
 .u_boot_list_2_cmd_2_ubi
                0x00000000878c7984       0x1c cmd/built-in.o
                0x00000000878c7984                _u_boot_list_2_cmd_2_ubi
 .u_boot_list_2_cmd_2_ubifsload
                0x00000000878c79a0       0x1c cmd/built-in.o
                0x00000000878c79a0                _u_boot_list_2_cmd_2_ubifsload
 .u_boot_list_2_cmd_2_ubifsls
                0x00000000878c79bc       0x1c cmd/built-in.o
                0x00000000878c79bc                _u_boot_list_2_cmd_2_ubifsls
 .u_boot_list_2_cmd_2_ubifsmount
                0x00000000878c79d8       0x1c cmd/built-in.o
                0x00000000878c79d8                _u_boot_list_2_cmd_2_ubifsmount
 .u_boot_list_2_cmd_2_ubifsumount
                0x00000000878c79f4       0x1c cmd/built-in.o
                0x00000000878c79f4                _u_boot_list_2_cmd_2_ubifsumount
 .u_boot_list_2_cmd_2_usb
                0x00000000878c7a10       0x1c cmd/built-in.o
                0x00000000878c7a10                _u_boot_list_2_cmd_2_usb
 .u_boot_list_2_cmd_2_usbboot
                0x00000000878c7a2c       0x1c cmd/built-in.o
                0x00000000878c7a2c                _u_boot_list_2_cmd_2_usbboot
 .u_boot_list_2_cmd_2_version
                0x00000000878c7a48       0x1c cmd/built-in.o
                0x00000000878c7a48                _u_boot_list_2_cmd_2_version
 .u_boot_list_2_cmd_3
                0x00000000878c7a64        0x0 cmd/built-in.o
 .u_boot_list_2_cmd_3
                0x00000000878c7a64        0x0 common/built-in.o
 .u_boot_list_2_driver_1
                0x00000000878c7a64        0x0 drivers/built-in.o
 .u_boot_list_2_driver_1
                0x00000000878c7a64        0x0 lib/built-in.o
 .u_boot_list_2_driver_2_74x164
                0x00000000878c7a64       0x44 drivers/gpio/built-in.o
                0x00000000878c7a64                _u_boot_list_2_driver_2_74x164
 .u_boot_list_2_driver_2_asix_eth
                0x00000000878c7aa8       0x44 drivers/usb/eth/built-in.o
                0x00000000878c7aa8                _u_boot_list_2_driver_2_asix_eth
 .u_boot_list_2_driver_2_efi_blk
                0x00000000878c7aec       0x44 lib/built-in.o
                0x00000000878c7aec                _u_boot_list_2_driver_2_efi_blk
 .u_boot_list_2_driver_2_efi_block
                0x00000000878c7b30       0x44 lib/built-in.o
                0x00000000878c7b30                _u_boot_list_2_driver_2_efi_block
 .u_boot_list_2_driver_2_fecmxc_gem
                0x00000000878c7b74       0x44 drivers/net/built-in.o
                0x00000000878c7b74                _u_boot_list_2_driver_2_fecmxc_gem
 .u_boot_list_2_driver_2_fixed_regulator
                0x00000000878c7bb8       0x44 drivers/power/regulator/built-in.o
                0x00000000878c7bb8                _u_boot_list_2_driver_2_fixed_regulator
 .u_boot_list_2_driver_2_fsl_esdhc
                0x00000000878c7bfc       0x44 drivers/built-in.o
                0x00000000878c7bfc                _u_boot_list_2_driver_2_fsl_esdhc
 .u_boot_list_2_driver_2_fsl_qspi
                0x00000000878c7c40       0x44 drivers/spi/built-in.o
                0x00000000878c7c40                _u_boot_list_2_driver_2_fsl_qspi
 .u_boot_list_2_driver_2_gpio_mxc
                0x00000000878c7c84       0x44 drivers/gpio/built-in.o
                0x00000000878c7c84                _u_boot_list_2_driver_2_gpio_mxc
 .u_boot_list_2_driver_2_gpio_regulator
                0x00000000878c7cc8       0x44 drivers/power/regulator/built-in.o
                0x00000000878c7cc8                _u_boot_list_2_driver_2_gpio_regulator
 .u_boot_list_2_driver_2_i2c_generic_chip_drv
                0x00000000878c7d0c       0x44 drivers/i2c/built-in.o
                0x00000000878c7d0c                _u_boot_list_2_driver_2_i2c_generic_chip_drv
 .u_boot_list_2_driver_2_i2c_mxc
                0x00000000878c7d50       0x44 drivers/i2c/built-in.o
                0x00000000878c7d50                _u_boot_list_2_driver_2_i2c_mxc
 .u_boot_list_2_driver_2_imx6_pinctrl
                0x00000000878c7d94       0x44 drivers/built-in.o
                0x00000000878c7d94                _u_boot_list_2_driver_2_imx6_pinctrl
 .u_boot_list_2_driver_2_imx_thermal
                0x00000000878c7dd8       0x44 drivers/built-in.o
                0x00000000878c7dd8                _u_boot_list_2_driver_2_imx_thermal
 .u_boot_list_2_driver_2_mmc
                0x00000000878c7e1c       0x44 drivers/built-in.o
                0x00000000878c7e1c                _u_boot_list_2_driver_2_mmc
 .u_boot_list_2_driver_2_mmc_blk
                0x00000000878c7e60       0x44 drivers/built-in.o
                0x00000000878c7e60                _u_boot_list_2_driver_2_mmc_blk
 .u_boot_list_2_driver_2_mxs_nand_dt
                0x00000000878c7ea4       0x44 drivers/mtd/nand/raw/built-in.o
                0x00000000878c7ea4                _u_boot_list_2_driver_2_mxs_nand_dt
 .u_boot_list_2_driver_2_pinconfig_generic
                0x00000000878c7ee8       0x44 drivers/built-in.o
                0x00000000878c7ee8                _u_boot_list_2_driver_2_pinconfig_generic
 .u_boot_list_2_driver_2_root_driver
                0x00000000878c7f2c       0x44 drivers/built-in.o
                0x00000000878c7f2c                _u_boot_list_2_driver_2_root_driver
 .u_boot_list_2_driver_2_simple_bus_drv
                0x00000000878c7f70       0x44 drivers/built-in.o
                0x00000000878c7f70                _u_boot_list_2_driver_2_simple_bus_drv
 .u_boot_list_2_driver_2_soft_spi
                0x00000000878c7fb4       0x44 drivers/spi/built-in.o
                0x00000000878c7fb4                _u_boot_list_2_driver_2_soft_spi
 .u_boot_list_2_driver_2_spi_flash_std
                0x00000000878c7ff8       0x44 drivers/mtd/spi/built-in.o
                0x00000000878c7ff8                _u_boot_list_2_driver_2_spi_flash_std
 .u_boot_list_2_driver_2_spi_generic_drv
                0x00000000878c803c       0x44 drivers/spi/built-in.o
                0x00000000878c803c                _u_boot_list_2_driver_2_spi_generic_drv
 .u_boot_list_2_driver_2_usb_dev_generic_drv
                0x00000000878c8080       0x44 drivers/usb/host/built-in.o
                0x00000000878c8080                _u_boot_list_2_driver_2_usb_dev_generic_drv
 .u_boot_list_2_driver_2_usb_generic_hub
                0x00000000878c80c4       0x44 common/built-in.o
                0x00000000878c80c4                _u_boot_list_2_driver_2_usb_generic_hub
 .u_boot_list_2_driver_2_usb_mass_storage
                0x00000000878c8108       0x44 common/built-in.o
                0x00000000878c8108                _u_boot_list_2_driver_2_usb_mass_storage
 .u_boot_list_2_driver_2_usb_mx6
                0x00000000878c814c       0x44 drivers/usb/host/built-in.o
                0x00000000878c814c                _u_boot_list_2_driver_2_usb_mx6
 .u_boot_list_2_driver_2_usb_storage_blk
                0x00000000878c8190       0x44 common/built-in.o
                0x00000000878c8190                _u_boot_list_2_driver_2_usb_storage_blk
 .u_boot_list_2_driver_3
                0x00000000878c81d4        0x0 drivers/built-in.o
 .u_boot_list_2_driver_3
                0x00000000878c81d4        0x0 lib/built-in.o
 .u_boot_list_2_driver_info_1
                0x00000000878c81d4        0x0 drivers/built-in.o
 .u_boot_list_2_driver_info_2_imx6_thermal
                0x00000000878c81d4        0x8 arch/arm/mach-imx/built-in.o
                0x00000000878c81d4                _u_boot_list_2_driver_info_2_imx6_thermal
 .u_boot_list_2_driver_info_3
                0x00000000878c81dc        0x0 drivers/built-in.o
 .u_boot_list_2_env_clbk_1
                0x00000000878c81dc        0x0 env/built-in.o
 .u_boot_list_2_env_clbk_2_baudrate
                0x00000000878c81dc        0x8 drivers/serial/built-in.o
                0x00000000878c81dc                _u_boot_list_2_env_clbk_2_baudrate
 .u_boot_list_2_env_clbk_2_callbacks
                0x00000000878c81e4        0x8 env/built-in.o
                0x00000000878c81e4                _u_boot_list_2_env_clbk_2_callbacks
 .u_boot_list_2_env_clbk_2_console
                0x00000000878c81ec        0x8 common/built-in.o
                0x00000000878c81ec                _u_boot_list_2_env_clbk_2_console
 .u_boot_list_2_env_clbk_2_ethaddr
                0x00000000878c81f4        0x8 net/built-in.o
                0x00000000878c81f4                _u_boot_list_2_env_clbk_2_ethaddr
 .u_boot_list_2_env_clbk_2_flags
                0x00000000878c81fc        0x8 env/built-in.o
                0x00000000878c81fc                _u_boot_list_2_env_clbk_2_flags
 .u_boot_list_2_env_clbk_2_gatewayip
                0x00000000878c8204        0x8 net/built-in.o
                0x00000000878c8204                _u_boot_list_2_env_clbk_2_gatewayip
 .u_boot_list_2_env_clbk_2_ipaddr
                0x00000000878c820c        0x8 net/built-in.o
                0x00000000878c820c                _u_boot_list_2_env_clbk_2_ipaddr
 .u_boot_list_2_env_clbk_2_loadaddr
                0x00000000878c8214        0x8 common/built-in.o
                0x00000000878c8214                _u_boot_list_2_env_clbk_2_loadaddr
 .u_boot_list_2_env_clbk_2_netmask
                0x00000000878c821c        0x8 net/built-in.o
                0x00000000878c821c                _u_boot_list_2_env_clbk_2_netmask
 .u_boot_list_2_env_clbk_2_nvlan
                0x00000000878c8224        0x8 net/built-in.o
                0x00000000878c8224                _u_boot_list_2_env_clbk_2_nvlan
 .u_boot_list_2_env_clbk_2_serialno
                0x00000000878c822c        0x8 drivers/usb/gadget/built-in.o
                0x00000000878c822c                _u_boot_list_2_env_clbk_2_serialno
 .u_boot_list_2_env_clbk_2_serverip
                0x00000000878c8234        0x8 net/built-in.o
                0x00000000878c8234                _u_boot_list_2_env_clbk_2_serverip
 .u_boot_list_2_env_clbk_2_vlan
                0x00000000878c823c        0x8 net/built-in.o
                0x00000000878c823c                _u_boot_list_2_env_clbk_2_vlan
 .u_boot_list_2_env_clbk_3
                0x00000000878c8244        0x0 env/built-in.o
 .u_boot_list_2_env_driver_1
                0x00000000878c8244        0x0 env/built-in.o
 .u_boot_list_2_env_driver_2_mmc
                0x00000000878c8244       0x14 env/built-in.o
                0x00000000878c8244                _u_boot_list_2_env_driver_2_mmc
 .u_boot_list_2_env_driver_3
                0x00000000878c8258        0x0 env/built-in.o
 .u_boot_list_2_g_dnl_bind_callbacks_1
                0x00000000878c8258        0x0 drivers/usb/gadget/built-in.o
 .u_boot_list_2_g_dnl_bind_callbacks_2___usb_function_name_usb_dnl_fastboot
                0x00000000878c8258        0x8 drivers/usb/gadget/built-in.o
                0x00000000878c8258                _u_boot_list_2_g_dnl_bind_callbacks_2___usb_function_name_usb_dnl_fastboot
 .u_boot_list_2_g_dnl_bind_callbacks_3
                0x00000000878c8260        0x0 drivers/usb/gadget/built-in.o
 .u_boot_list_2_part_driver_1
                0x00000000878c8260        0x0 disk/built-in.o
 .u_boot_list_2_part_driver_2_a_efi
                0x00000000878c8260       0x18 disk/built-in.o
                0x00000000878c8260                _u_boot_list_2_part_driver_2_a_efi
 .u_boot_list_2_part_driver_2_dos
                0x00000000878c8278       0x18 disk/built-in.o
                0x00000000878c8278                _u_boot_list_2_part_driver_2_dos
 .u_boot_list_2_part_driver_3
                0x00000000878c8290        0x0 disk/built-in.o
 .u_boot_list_2_uclass_1
                0x00000000878c8290        0x0 drivers/built-in.o
 .u_boot_list_2_uclass_2_blk
                0x00000000878c8290       0x4c drivers/built-in.o
                0x00000000878c8290                _u_boot_list_2_uclass_2_blk
 .u_boot_list_2_uclass_2_efi
                0x00000000878c82dc       0x4c lib/built-in.o
                0x00000000878c82dc                _u_boot_list_2_uclass_2_efi
 .u_boot_list_2_uclass_2_eth
                0x00000000878c8328       0x4c net/built-in.o
                0x00000000878c8328                _u_boot_list_2_uclass_2_eth
 .u_boot_list_2_uclass_2_gpio
                0x00000000878c8374       0x4c drivers/gpio/built-in.o
                0x00000000878c8374                _u_boot_list_2_uclass_2_gpio
 .u_boot_list_2_uclass_2_i2c
                0x00000000878c83c0       0x4c drivers/i2c/built-in.o
                0x00000000878c83c0                _u_boot_list_2_uclass_2_i2c
 .u_boot_list_2_uclass_2_i2c_generic
                0x00000000878c840c       0x4c drivers/i2c/built-in.o
                0x00000000878c840c                _u_boot_list_2_uclass_2_i2c_generic
 .u_boot_list_2_uclass_2_mmc
                0x00000000878c8458       0x4c drivers/built-in.o
                0x00000000878c8458                _u_boot_list_2_uclass_2_mmc
 .u_boot_list_2_uclass_2_mtd
                0x00000000878c84a4       0x4c drivers/mtd/built-in.o
                0x00000000878c84a4                _u_boot_list_2_uclass_2_mtd
 .u_boot_list_2_uclass_2_pinconfig
                0x00000000878c84f0       0x4c drivers/built-in.o
                0x00000000878c84f0                _u_boot_list_2_uclass_2_pinconfig
 .u_boot_list_2_uclass_2_pinctrl
                0x00000000878c853c       0x4c drivers/built-in.o
                0x00000000878c853c                _u_boot_list_2_uclass_2_pinctrl
 .u_boot_list_2_uclass_2_regulator
                0x00000000878c8588       0x4c drivers/power/regulator/built-in.o
                0x00000000878c8588                _u_boot_list_2_uclass_2_regulator
 .u_boot_list_2_uclass_2_root
                0x00000000878c85d4       0x4c drivers/built-in.o
                0x00000000878c85d4                _u_boot_list_2_uclass_2_root
 .u_boot_list_2_uclass_2_simple_bus
                0x00000000878c8620       0x4c drivers/built-in.o
                0x00000000878c8620                _u_boot_list_2_uclass_2_simple_bus
 .u_boot_list_2_uclass_2_spi
                0x00000000878c866c       0x4c drivers/spi/built-in.o
                0x00000000878c866c                _u_boot_list_2_uclass_2_spi
 .u_boot_list_2_uclass_2_spi_generic
                0x00000000878c86b8       0x4c drivers/spi/built-in.o
                0x00000000878c86b8                _u_boot_list_2_uclass_2_spi_generic
 .u_boot_list_2_uclass_2_spi_nor
                0x00000000878c8704       0x4c drivers/mtd/spi/built-in.o
                0x00000000878c8704                _u_boot_list_2_uclass_2_spi_nor
 .u_boot_list_2_uclass_2_thermal
                0x00000000878c8750       0x4c drivers/built-in.o
                0x00000000878c8750                _u_boot_list_2_uclass_2_thermal
 .u_boot_list_2_uclass_2_usb
                0x00000000878c879c       0x4c drivers/usb/host/built-in.o
                0x00000000878c879c                _u_boot_list_2_uclass_2_usb
 .u_boot_list_2_uclass_2_usb_dev_generic
                0x00000000878c87e8       0x4c drivers/usb/host/built-in.o
                0x00000000878c87e8                _u_boot_list_2_uclass_2_usb_dev_generic
 .u_boot_list_2_uclass_2_usb_gadget_generic
                0x00000000878c8834       0x4c drivers/usb/gadget/udc/built-in.o
                0x00000000878c8834                _u_boot_list_2_uclass_2_usb_gadget_generic
 .u_boot_list_2_uclass_2_usb_hub
                0x00000000878c8880       0x4c common/built-in.o
                0x00000000878c8880                _u_boot_list_2_uclass_2_usb_hub
 .u_boot_list_2_uclass_2_usb_mass_storage
                0x00000000878c88cc       0x4c common/built-in.o
                0x00000000878c88cc                _u_boot_list_2_uclass_2_usb_mass_storage
 .u_boot_list_2_uclass_3
                0x00000000878c8918        0x0 drivers/built-in.o
 .u_boot_list_2_usb_driver_entry_1
                0x00000000878c8918        0x0 drivers/usb/host/built-in.o
 .u_boot_list_2_usb_driver_entry_2_asix_eth
                0x00000000878c8918        0x8 drivers/usb/eth/built-in.o
                0x00000000878c8918                _u_boot_list_2_usb_driver_entry_2_asix_eth
 .u_boot_list_2_usb_driver_entry_2_usb_generic_hub
                0x00000000878c8920        0x8 common/built-in.o
                0x00000000878c8920                _u_boot_list_2_usb_driver_entry_2_usb_generic_hub
 .u_boot_list_2_usb_driver_entry_2_usb_mass_storage
                0x00000000878c8928        0x8 common/built-in.o
                0x00000000878c8928                _u_boot_list_2_usb_driver_entry_2_usb_mass_storage
 .u_boot_list_2_usb_driver_entry_3
                0x00000000878c8930        0x0 drivers/usb/host/built-in.o
                0x00000000878c8930                . = ALIGN (0x4)

.efi_runtime_rel_start
                0x00000000878c8930        0x0
 *(.__efi_runtime_rel_start)
 .__efi_runtime_rel_start
                0x00000000878c8930        0x0 arch/arm/lib/built-in.o

.efi_runtime_rel
                0x00000000878c8930       0xa8
 *(.rel*.efi_runtime)
 .rel.text.efi_runtime
                0x00000000878c8930        0x8 arch/arm/cpu/armv7/start.o
 .rel.data.efi_runtime
                0x00000000878c8938       0xa0 arch/arm/cpu/armv7/start.o
 *(.rel*.efi_runtime.*)

.efi_runtime_rel_stop
                0x00000000878c89d8        0x0
 *(.__efi_runtime_rel_stop)
 .__efi_runtime_rel_stop
                0x00000000878c89d8        0x0 arch/arm/lib/built-in.o
                0x00000000878c89d8                . = ALIGN (0x4)

.image_copy_end
                0x00000000878c89d8        0x0
 *(.__image_copy_end)
 .__image_copy_end
                0x00000000878c89d8        0x0 arch/arm/lib/built-in.o

.rel_dyn_start  0x00000000878c89d8        0x0
 *(.__rel_dyn_start)
 .__rel_dyn_start
                0x00000000878c89d8        0x0 arch/arm/lib/built-in.o

.rel.dyn        0x00000000878c89d8    0x11070
 *(.rel*)
 .rel.got       0x00000000878c89d8        0x0 arch/arm/cpu/armv7/start.o
 .rel.plt       0x00000000878c89d8        0x0 arch/arm/cpu/armv7/start.o
 .rel.bss       0x00000000878c89d8        0x0 arch/arm/cpu/armv7/start.o
 .rel.data.rel.ro
                0x00000000878c89d8        0x0 arch/arm/cpu/armv7/start.o
 .rel.iplt      0x00000000878c89d8        0x0 arch/arm/cpu/armv7/start.o
 .rel.text      0x00000000878c89d8       0x20 arch/arm/cpu/armv7/start.o
 .rel.vectors   0x00000000878c89f8       0x38 arch/arm/cpu/armv7/start.o
 .rel.text.relocate_vectors
                0x00000000878c8a30       0x20 arch/arm/cpu/armv7/start.o
 .rel.text.setup_initrd_tag.isra.2
                0x00000000878c8a50        0x8 arch/arm/cpu/armv7/start.o
 .rel.text.boot_jump_linux
                0x00000000878c8a58       0x28 arch/arm/cpu/armv7/start.o
 .rel.text.boot_prep_linux
                0x00000000878c8a80       0x18 arch/arm/cpu/armv7/start.o
 .rel.text.boot_prep_vxworks
                0x00000000878c8a98       0x10 arch/arm/cpu/armv7/start.o
 .rel.text.bootz_setup
                0x00000000878c8aa8       0x10 arch/arm/cpu/armv7/start.o
 .rel.text.interrupt_init
                0x00000000878c8ab8        0x8 arch/arm/cpu/armv7/start.o
 .rel.text.bad_mode
                0x00000000878c8ac0        0x8 arch/arm/cpu/armv7/start.o
 .rel.text.show_regs
                0x00000000878c8ac8       0x80 arch/arm/cpu/armv7/start.o
 .rel.text.do_undefined_instruction
                0x00000000878c8b48        0x8 arch/arm/cpu/armv7/start.o
 .rel.text.do_software_interrupt
                0x00000000878c8b50        0x8 arch/arm/cpu/armv7/start.o
 .rel.text.do_prefetch_abort
                0x00000000878c8b58        0x8 arch/arm/cpu/armv7/start.o
 .rel.text.do_data_abort
                0x00000000878c8b60        0x8 arch/arm/cpu/armv7/start.o
 .rel.text.do_not_used
                0x00000000878c8b68        0x8 arch/arm/cpu/armv7/start.o
 .rel.text.do_fiq
                0x00000000878c8b70        0x8 arch/arm/cpu/armv7/start.o
 .rel.text.do_irq
                0x00000000878c8b78        0x8 arch/arm/cpu/armv7/start.o
 .rel.text.do_reset
                0x00000000878c8b80        0x8 arch/arm/cpu/armv7/start.o
 .rel.text.check_cache_range
                0x00000000878c8b88        0x8 arch/arm/cpu/armv7/start.o
 .rel.rodata    0x00000000878c8b90      0x100 arch/arm/cpu/armv7/start.o
 .rel.text.imx_iomux_v3_setup_pad
                0x00000000878c8c90        0x8 arch/arm/cpu/armv7/start.o
 .rel.text.get_imx_reset_cause
                0x00000000878c8c98        0x8 arch/arm/cpu/armv7/start.o
 .rel.text.get_reset_cause
                0x00000000878c8ca0       0x50 arch/arm/cpu/armv7/start.o
 .rel.text.get_reboot_reason
                0x00000000878c8cf0        0x8 arch/arm/cpu/armv7/start.o
 .rel.text.imx_ddr_size
                0x00000000878c8cf8       0x10 arch/arm/cpu/armv7/start.o
 .rel.text.get_imx_type
                0x00000000878c8d08       0x10 arch/arm/cpu/armv7/start.o
 .rel.text.print_cpuinfo
                0x00000000878c8d18       0x58 arch/arm/cpu/armv7/start.o
 .rel.text.board_video_skip
                0x00000000878c8d70       0x48 arch/arm/cpu/armv7/start.o
 .rel.text.create_usage
                0x00000000878c8db8       0x10 arch/arm/cpu/armv7/start.o
 .rel.text.do_boot_mode
                0x00000000878c8dc8       0x10 arch/arm/cpu/armv7/start.o
 .rel.text.add_board_boot_modes
                0x00000000878c8dd8       0x18 arch/arm/cpu/armv7/start.o
 .rel.text.mmc_get_env_dev
                0x00000000878c8df0        0x8 arch/arm/cpu/armv7/start.o
 .rel.text.get_boot_device
                0x00000000878c8df8       0x80 arch/arm/cpu/armv7/start.o
 .rel.text.get_ipg_clk
                0x00000000878c8e78        0x8 arch/arm/cpu/armv7/start.o
 .rel.text.enable_pll_video.constprop.0
                0x00000000878c8e80       0x18 arch/arm/cpu/armv7/start.o
 .rel.text.get_uart_clk
                0x00000000878c8e98        0x8 arch/arm/cpu/armv7/start.o
 .rel.text.mxc_get_pll_pfd
                0x00000000878c8ea0        0x8 arch/arm/cpu/armv7/start.o
 .rel.text.get_usdhc_clk
                0x00000000878c8ea8       0x28 arch/arm/cpu/armv7/start.o
 .rel.text.enable_ocotp_clk
                0x00000000878c8ed0        0x8 arch/arm/cpu/armv7/start.o
 .rel.text.setup_gpmi_io_clk
                0x00000000878c8ed8        0x8 arch/arm/cpu/armv7/start.o
 .rel.text.enable_usboh3_clk
                0x00000000878c8ee0        0x8 arch/arm/cpu/armv7/start.o
 .rel.text.enable_enet_clk
                0x00000000878c8ee8        0x8 arch/arm/cpu/armv7/start.o
 .rel.text.enable_i2c_clk
                0x00000000878c8ef0        0x8 arch/arm/cpu/armv7/start.o
 .rel.text.get_periph_clk
                0x00000000878c8ef8        0x8 arch/arm/cpu/armv7/start.o
 .rel.text.get_axi_clk
                0x00000000878c8f00        0x8 arch/arm/cpu/armv7/start.o
 .rel.text.enable_lcdif_clock
                0x00000000878c8f08       0x10 arch/arm/cpu/armv7/start.o
 .rel.text.mxs_set_lcdclk
                0x00000000878c8f18       0x18 arch/arm/cpu/armv7/start.o
 .rel.text.enable_qspi_clk
                0x00000000878c8f30        0x8 arch/arm/cpu/armv7/start.o
 .rel.text.mxc_get_clock
                0x00000000878c8f38       0x98 arch/arm/cpu/armv7/start.o
 .rel.text.do_mx6_showclocks
                0x00000000878c8fd0       0x90 arch/arm/cpu/armv7/start.o
 .rel.text.check_module_fused
                0x00000000878c9060        0x8 arch/arm/cpu/armv7/start.o
 .rel.text.ft_system_setup
                0x00000000878c9068       0x30 arch/arm/cpu/armv7/start.o
 .rel.rodata.CSWTCH.15
                0x00000000878c9098      0x1d0 arch/arm/cpu/armv7/start.o
 .rel.rodata.soc_boot_modes
                0x00000000878c9268       0x58 arch/arm/cpu/armv7/start.o
 .rel.rodata.mx6_fuse_descs
                0x00000000878c92c0      0x260 arch/arm/cpu/armv7/start.o
 .rel.u_boot_list_2_cmd_2_bmode
                0x00000000878c9520       0x20 arch/arm/cpu/armv7/start.o
 .rel.u_boot_list_2_driver_info_2_imx6_thermal
                0x00000000878c9540       0x10 arch/arm/cpu/armv7/start.o
 .rel.u_boot_list_2_cmd_2_clocks
                0x00000000878c9550       0x28 arch/arm/cpu/armv7/start.o
 .rel.text.board_late_mmc_env_init
                0x00000000878c9578       0x30 arch/arm/cpu/armv7/start.o
 .rel.text.do_enable_parallel_lcd
                0x00000000878c95a8       0x18 arch/arm/cpu/armv7/start.o
 .rel.text.board_early_init_f
                0x00000000878c95c0        0x8 arch/arm/cpu/armv7/start.o
 .rel.text.board_init
                0x00000000878c95c8        0x8 arch/arm/cpu/armv7/start.o
 .rel.text.board_late_init
                0x00000000878c95d0       0x50 arch/arm/cpu/armv7/start.o
 .rel.text.checkboard
                0x00000000878c9620       0x10 arch/arm/cpu/armv7/start.o
 .rel.rodata.displays
                0x00000000878c9630       0x10 arch/arm/cpu/armv7/start.o
 .rel.rodata.board_boot_modes
                0x00000000878c9640       0x18 arch/arm/cpu/armv7/start.o
 .rel.text.do_go
                0x00000000878c9658       0x10 arch/arm/cpu/armv7/start.o
 .rel.text.do_bootm
                0x00000000878c9668       0x18 arch/arm/cpu/armv7/start.o
 .rel.text.do_bootd
                0x00000000878c9680        0x8 arch/arm/cpu/armv7/start.o
 .rel.text.image_info
                0x00000000878c9688       0x48 arch/arm/cpu/armv7/start.o
 .rel.text.do_iminfo
                0x00000000878c96d0        0x8 arch/arm/cpu/armv7/start.o
 .rel.text.bootm_maybe_autostart
                0x00000000878c96d8       0x20 arch/arm/cpu/armv7/start.o
 .rel.text.do_help
                0x00000000878c96f8       0x10 arch/arm/cpu/armv7/start.o
 .rel.text.do_version
                0x00000000878c9708       0x10 arch/arm/cpu/armv7/start.o
 .rel.text.blk_common_cmd
                0x00000000878c9718       0x90 arch/arm/cpu/armv7/start.o
 .rel.text.source
                0x00000000878c97a8       0x38 arch/arm/cpu/armv7/start.o
 .rel.text.do_source
                0x00000000878c97e0        0x8 arch/arm/cpu/armv7/start.o
 .rel.text.print_num
                0x00000000878c97e8        0x8 arch/arm/cpu/armv7/start.o
 .rel.text.do_bdinfo
                0x00000000878c97f0       0x70 arch/arm/cpu/armv7/start.o
 .rel.text.do_blkcache
                0x00000000878c9860        0x8 arch/arm/cpu/armv7/start.o
 .rel.text.blkc_configure
                0x00000000878c9868        0x8 arch/arm/cpu/armv7/start.o
 .rel.text.blkc_show
                0x00000000878c9870        0x8 arch/arm/cpu/armv7/start.o
 .rel.text.do_bmp
                0x00000000878c9878        0x8 arch/arm/cpu/armv7/start.o
 .rel.text.do_bmp_info
                0x00000000878c9880       0x28 arch/arm/cpu/armv7/start.o
 .rel.text.bmp_display
                0x00000000878c98a8        0x8 arch/arm/cpu/armv7/start.o
 .rel.text.do_bmp_display
                0x00000000878c98b0       0x10 arch/arm/cpu/armv7/start.o
 .rel.text.efi_install_fdt
                0x00000000878c98c0       0x28 arch/arm/cpu/armv7/start.o
 .rel.text.do_bootefi_exec
                0x00000000878c98e8       0x30 arch/arm/cpu/armv7/start.o
 .rel.text.do_bootefi
                0x00000000878c9918       0x50 arch/arm/cpu/armv7/start.o
 .rel.text.efi_set_bootdev
                0x00000000878c9968       0x10 arch/arm/cpu/armv7/start.o
 .rel.text.do_bootz
                0x00000000878c9978       0x10 arch/arm/cpu/armv7/start.o
 .rel.text.parse_argv
                0x00000000878c9988       0x18 arch/arm/cpu/armv7/start.o
 .rel.text.do_icache
                0x00000000878c99a0       0x18 arch/arm/cpu/armv7/start.o
 .rel.text.do_dcache
                0x00000000878c99b8       0x18 arch/arm/cpu/armv7/start.o
 .rel.text.do_coninfo
                0x00000000878c99d0       0x28 arch/arm/cpu/armv7/start.o
 .rel.text.do_dm
                0x00000000878c99f8        0x8 arch/arm/cpu/armv7/start.o
 .rel.text.do_echo
                0x00000000878c9a00        0x8 arch/arm/cpu/armv7/start.o
 .rel.text.valid_elf_image
                0x00000000878c9a08       0x10 arch/arm/cpu/armv7/start.o
 .rel.text.do_bootelf
                0x00000000878c9a18       0x28 arch/arm/cpu/armv7/start.o
 .rel.text.do_bootvx
                0x00000000878c9a40       0xe0 arch/arm/cpu/armv7/start.o
 .rel.text.do_fat_fsinfo
                0x00000000878c9b20       0x10 arch/arm/cpu/armv7/start.o
 .rel.text.do_fat_fswrite
                0x00000000878c9b30       0x18 arch/arm/cpu/armv7/start.o
 .rel.text.fdt_valid
                0x00000000878c9b48       0x28 arch/arm/cpu/armv7/start.o
 .rel.text.is_printable_string
                0x00000000878c9b70        0x8 arch/arm/cpu/armv7/start.o
 .rel.text.print_data
                0x00000000878c9b78       0x58 arch/arm/cpu/armv7/start.o
 .rel.text.set_working_fdt_addr
                0x00000000878c9bd0       0x10 arch/arm/cpu/armv7/start.o
 .rel.text.do_fdt
                0x00000000878c9be0      0x278 arch/arm/cpu/armv7/start.o
 .rel.text.do_load_wrapper
                0x00000000878c9e58        0x8 arch/arm/cpu/armv7/start.o
 .rel.text.do_fuse
                0x00000000878c9e60       0x70 arch/arm/cpu/armv7/start.o
 .rel.text.gpio_get_description
                0x00000000878c9ed0       0x18 arch/arm/cpu/armv7/start.o
 .rel.text.do_gpio
                0x00000000878c9ee8       0x50 arch/arm/cpu/armv7/start.o
 .rel.text.do_i2c
                0x00000000878c9f38        0x8 arch/arm/cpu/armv7/start.o
 .rel.text.i2c_get_cur_bus
                0x00000000878c9f40       0x10 arch/arm/cpu/armv7/start.o
 .rel.text.do_i2c_bus_speed
                0x00000000878c9f50       0x18 arch/arm/cpu/armv7/start.o
 .rel.text.do_i2c_reset
                0x00000000878c9f68        0x8 arch/arm/cpu/armv7/start.o
 .rel.text.do_i2c_probe
                0x00000000878c9f70       0x10 arch/arm/cpu/armv7/start.o
 .rel.text.do_i2c_bus_num
                0x00000000878c9f80       0x20 arch/arm/cpu/armv7/start.o
 .rel.text.show_bus
                0x00000000878c9fa0       0x20 arch/arm/cpu/armv7/start.o
 .rel.text.do_i2c_show_bus
                0x00000000878c9fc0        0x8 arch/arm/cpu/armv7/start.o
 .rel.text.do_i2c_read
                0x00000000878c9fc8       0x10 arch/arm/cpu/armv7/start.o
 .rel.text.do_i2c_flags
                0x00000000878c9fd8       0x18 arch/arm/cpu/armv7/start.o
 .rel.text.do_i2c_olen
                0x00000000878c9ff0       0x18 arch/arm/cpu/armv7/start.o
 .rel.text.do_i2c_md
                0x00000000878ca008       0x58 arch/arm/cpu/armv7/start.o
 .rel.text.do_i2c_mw
                0x00000000878ca060       0x10 arch/arm/cpu/armv7/start.o
 .rel.text.do_i2c_crc
                0x00000000878ca070       0x20 arch/arm/cpu/armv7/start.o
 .rel.text.do_i2c_write
                0x00000000878ca090       0x18 arch/arm/cpu/armv7/start.o
 .rel.text.mod_i2c_mem.isra.2
                0x00000000878ca0a8       0x60 arch/arm/cpu/armv7/start.o
 .rel.text.do_i2c_loop
                0x00000000878ca108       0x18 arch/arm/cpu/armv7/start.o
 .rel.text.binary_test
                0x00000000878ca120       0x70 arch/arm/cpu/armv7/start.o
 .rel.text.do_itest
                0x00000000878ca190       0x40 arch/arm/cpu/armv7/start.o
 .rel.text.bin_data_init
                0x00000000878ca1d0       0x18 arch/arm/cpu/armv7/start.o
 .rel.text.k_data_save
                0x00000000878ca1e8       0x30 arch/arm/cpu/armv7/start.o
 .rel.text.k_data_restore
                0x00000000878ca218       0x30 arch/arm/cpu/armv7/start.o
 .rel.text.load_serial_ymodem
                0x00000000878ca248       0x20 arch/arm/cpu/armv7/start.o
 .rel.text.bin_data_char
                0x00000000878ca268       0x10 arch/arm/cpu/armv7/start.o
 .rel.text.chk1.constprop.1
                0x00000000878ca278        0x8 arch/arm/cpu/armv7/start.o
 .rel.text.s1_sendpacket.constprop.2
                0x00000000878ca280       0x18 arch/arm/cpu/armv7/start.o
 .rel.text.load_serial
                0x00000000878ca298       0x68 arch/arm/cpu/armv7/start.o
 .rel.text.do_load_serial
                0x00000000878ca300       0x30 arch/arm/cpu/armv7/start.o
 .rel.text.do_load_serial_bin
                0x00000000878ca330       0xe8 arch/arm/cpu/armv7/start.o
 .rel.text.do_mem_mw
                0x00000000878ca418        0x8 arch/arm/cpu/armv7/start.o
 .rel.text.do_mem_md
                0x00000000878ca420       0x20 arch/arm/cpu/armv7/start.o
 .rel.text.do_mem_cmp
                0x00000000878ca440       0x38 arch/arm/cpu/armv7/start.o
 .rel.text.do_mem_base
                0x00000000878ca478       0x10 arch/arm/cpu/armv7/start.o
 .rel.text.do_mem_cp
                0x00000000878ca488       0x10 arch/arm/cpu/armv7/start.o
 .rel.text.do_mem_crc
                0x00000000878ca498        0x8 arch/arm/cpu/armv7/start.o
 .rel.text.do_mem_mtest
                0x00000000878ca4a0       0x40 arch/arm/cpu/armv7/start.o
 .rel.text.mod_mem.isra.2
                0x00000000878ca4e0       0x48 arch/arm/cpu/armv7/start.o
 .rel.text.do_mii
                0x00000000878ca528      0x160 arch/arm/cpu/armv7/start.o
 .rel.text.do_mdio
                0x00000000878ca688       0x70 arch/arm/cpu/armv7/start.o
 .rel.text.do_mmcops
                0x00000000878ca6f8       0x20 arch/arm/cpu/armv7/start.o
 .rel.text.init_mmc_device
                0x00000000878ca718        0x8 arch/arm/cpu/armv7/start.o
 .rel.text.do_mmc_rst_func
                0x00000000878ca720       0x10 arch/arm/cpu/armv7/start.o
 .rel.text.do_mmc_rescan
                0x00000000878ca730        0x8 arch/arm/cpu/armv7/start.o
 .rel.text.do_mmc_partconf
                0x00000000878ca738       0x18 arch/arm/cpu/armv7/start.o
 .rel.text.do_mmc_boot_resize
                0x00000000878ca750       0x20 arch/arm/cpu/armv7/start.o
 .rel.text.do_mmc_bootbus
                0x00000000878ca770        0x8 arch/arm/cpu/armv7/start.o
 .rel.text.do_mmc_hwpartition
                0x00000000878ca778       0xb0 arch/arm/cpu/armv7/start.o
 .rel.text.do_mmc_dev
                0x00000000878ca828       0x38 arch/arm/cpu/armv7/start.o
 .rel.text.do_mmc_part
                0x00000000878ca860       0x10 arch/arm/cpu/armv7/start.o
 .rel.text.do_mmc_erase
                0x00000000878ca870       0x30 arch/arm/cpu/armv7/start.o
 .rel.text.do_mmc_write
                0x00000000878ca8a0       0x30 arch/arm/cpu/armv7/start.o
 .rel.text.do_mmc_read
                0x00000000878ca8d0       0x28 arch/arm/cpu/armv7/start.o
 .rel.text.do_mmcinfo
                0x00000000878ca8f8      0x110 arch/arm/cpu/armv7/start.o
 .rel.text.do_mmc_setdsr
                0x00000000878caa08       0x28 arch/arm/cpu/armv7/start.o
 .rel.text.complete_mtd
                0x00000000878caa30        0x8 arch/arm/cpu/armv7/start.o
 .rel.text.mtd_dump_buf
                0x00000000878caa38       0x20 arch/arm/cpu/armv7/start.o
 .rel.text.mtd_show_parts
                0x00000000878caa58       0x10 arch/arm/cpu/armv7/start.o
 .rel.text.get_mtd_by_name
                0x00000000878caa68        0x8 arch/arm/cpu/armv7/start.o
 .rel.text.do_mtd_bad
                0x00000000878caa70       0x18 arch/arm/cpu/armv7/start.o
 .rel.text.do_mtd_list
                0x00000000878caa88       0xf8 arch/arm/cpu/armv7/start.o
 .rel.text.mtd_name_complete
                0x00000000878cab80        0x8 arch/arm/cpu/armv7/start.o
 .rel.text.do_mtd
                0x00000000878cab88       0x10 arch/arm/cpu/armv7/start.o
 .rel.text.do_mtd_erase
                0x00000000878cab98       0x28 arch/arm/cpu/armv7/start.o
 .rel.text.do_mtd_io
                0x00000000878cabc0       0xc8 arch/arm/cpu/armv7/start.o
 .rel.text.mtd_part_info
                0x00000000878cac88       0x28 arch/arm/cpu/armv7/start.o
 .rel.text.env_get_mtdparts
                0x00000000878cacb0        0x8 arch/arm/cpu/armv7/start.o
 .rel.text.memsize_format
                0x00000000878cacb8       0x20 arch/arm/cpu/armv7/start.o
 .rel.text.index_partitions
                0x00000000878cacd8       0x28 arch/arm/cpu/armv7/start.o
 .rel.text.current_save
                0x00000000878cad00       0x48 arch/arm/cpu/armv7/start.o
 .rel.text.part_sort_add
                0x00000000878cad48       0x18 arch/arm/cpu/armv7/start.o
 .rel.text.device_del
                0x00000000878cad60       0x18 arch/arm/cpu/armv7/start.o
 .rel.text.generate_mtdparts_save.constprop.8
                0x00000000878cad78       0x18 arch/arm/cpu/armv7/start.o
 .rel.text.device_delall.constprop.10
                0x00000000878cad90        0x8 arch/arm/cpu/armv7/start.o
 .rel.text.mtd_devices_init
                0x00000000878cad98       0x10 arch/arm/cpu/armv7/start.o
 .rel.text.get_mtd_info.constprop.11
                0x00000000878cada8       0x30 arch/arm/cpu/armv7/start.o
 .rel.text.part_validate
                0x00000000878cadd8       0x50 arch/arm/cpu/armv7/start.o
 .rel.text.device_find
                0x00000000878cae28        0x8 arch/arm/cpu/armv7/start.o
 .rel.text.device_parse
                0x00000000878cae30       0x60 arch/arm/cpu/armv7/start.o
 .rel.text.mtd_id_parse
                0x00000000878cae90       0x38 arch/arm/cpu/armv7/start.o
 .rel.text.find_dev_and_part
                0x00000000878caec8       0x48 arch/arm/cpu/armv7/start.o
 .rel.text.mtdparts_init
                0x00000000878caf10       0xe8 arch/arm/cpu/armv7/start.o
 .rel.text.do_chpart
                0x00000000878caff8       0x40 arch/arm/cpu/armv7/start.o
 .rel.text.do_mtdparts
                0x00000000878cb038      0x118 arch/arm/cpu/armv7/start.o
 .rel.text.set_dev
                0x00000000878cb150       0x18 arch/arm/cpu/armv7/start.o
 .rel.text.nand_print_and_set_info
                0x00000000878cb168       0x60 arch/arm/cpu/armv7/start.o
 .rel.text.do_nand
                0x00000000878cb1c8      0x190 arch/arm/cpu/armv7/start.o
 .rel.text.nand_load_image
                0x00000000878cb358       0x40 arch/arm/cpu/armv7/start.o
 .rel.text.do_nandboot
                0x00000000878cb398       0x40 arch/arm/cpu/armv7/start.o
 .rel.text.netboot_common
                0x00000000878cb3d8       0xa8 arch/arm/cpu/armv7/start.o
 .rel.text.do_ping
                0x00000000878cb480       0x18 arch/arm/cpu/armv7/start.o
 .rel.text.efi_dump_single_var
                0x00000000878cb498       0x28 arch/arm/cpu/armv7/start.o
 .rel.text.do_env_print_efi
                0x00000000878cb4c0       0x10 arch/arm/cpu/armv7/start.o
 .rel.text.do_env_set_efi
                0x00000000878cb4d0       0x38 arch/arm/cpu/armv7/start.o
 .rel.text.do_part_list
                0x00000000878cb508       0x28 arch/arm/cpu/armv7/start.o
 .rel.text.do_part_info
                0x00000000878cb530       0x18 arch/arm/cpu/armv7/start.o
 .rel.text.do_part
                0x00000000878cb548       0x28 arch/arm/cpu/armv7/start.o
 .rel.text.do_pinmux
                0x00000000878cb570        0x8 arch/arm/cpu/armv7/start.o
 .rel.text.do_list
                0x00000000878cb578       0x20 arch/arm/cpu/armv7/start.o
 .rel.text.show_pinmux
                0x00000000878cb598       0x20 arch/arm/cpu/armv7/start.o
 .rel.text.do_status
                0x00000000878cb5b8       0x28 arch/arm/cpu/armv7/start.o
 .rel.text.do_dev
                0x00000000878cb5e0       0x20 arch/arm/cpu/armv7/start.o
 .rel.text.do_raw_read
                0x00000000878cb600       0x28 arch/arm/cpu/armv7/start.o
 .rel.text.do_spi_flash
                0x00000000878cb628       0xd8 arch/arm/cpu/armv7/start.o
 .rel.text.substitute
                0x00000000878cb700        0x8 arch/arm/cpu/armv7/start.o
 .rel.text.regex_sub
                0x00000000878cb708       0x38 arch/arm/cpu/armv7/start.o
 .rel.text.do_setexpr
                0x00000000878cb740       0x18 arch/arm/cpu/armv7/start.o
 .rel.text.do_test
                0x00000000878cb758       0x70 arch/arm/cpu/armv7/start.o
 .rel.text.ubi_find_volume
                0x00000000878cb7c8       0x10 arch/arm/cpu/armv7/start.o
 .rel.text.ubi_volume_continue_write
                0x00000000878cb7d8       0x10 arch/arm/cpu/armv7/start.o
 .rel.text.ubi_detach
                0x00000000878cb7e8        0x8 arch/arm/cpu/armv7/start.o
 .rel.text.ubi_volume_begin_write
                0x00000000878cb7f0       0x18 arch/arm/cpu/armv7/start.o
 .rel.text.ubi_volume_read
                0x00000000878cb808       0x48 arch/arm/cpu/armv7/start.o
 .rel.text.ubi_part
                0x00000000878cb850       0x38 arch/arm/cpu/armv7/start.o
 .rel.text.do_ubi
                0x00000000878cb888      0x188 arch/arm/cpu/armv7/start.o
 .rel.text.do_ubifs_ls
                0x00000000878cba10       0x20 arch/arm/cpu/armv7/start.o
 .rel.text.do_ubifs_load
                0x00000000878cba30       0x18 arch/arm/cpu/armv7/start.o
 .rel.text.cmd_ubifs_mount
                0x00000000878cba48       0x10 arch/arm/cpu/armv7/start.o
 .rel.text.ubifs_is_mounted
                0x00000000878cba58        0x8 arch/arm/cpu/armv7/start.o
 .rel.text.cmd_ubifs_umount
                0x00000000878cba60       0x18 arch/arm/cpu/armv7/start.o
 .rel.text.usb_get_class_desc
                0x00000000878cba78       0x50 arch/arm/cpu/armv7/start.o
 .rel.text.usb_display_class_sub
                0x00000000878cbac8       0xc8 arch/arm/cpu/armv7/start.o
 .rel.text.usb_display_desc
                0x00000000878cbb90       0x38 arch/arm/cpu/armv7/start.o
 .rel.text.usb_show_tree_graph
                0x00000000878cbbc8       0x48 arch/arm/cpu/armv7/start.o
 .rel.text.usb_display_string
                0x00000000878cbc10        0x8 arch/arm/cpu/armv7/start.o
 .rel.text.usb_display_config
                0x00000000878cbc18       0xa8 arch/arm/cpu/armv7/start.o
 .rel.text.do_usbboot
                0x00000000878cbcc0        0x8 arch/arm/cpu/armv7/start.o
 .rel.text.do_usb_start
                0x00000000878cbcc8        0x8 arch/arm/cpu/armv7/start.o
 .rel.text.usb_show_tree
                0x00000000878cbcd0        0x8 arch/arm/cpu/armv7/start.o
 .rel.text.do_usb
                0x00000000878cbcd8       0xf0 arch/arm/cpu/armv7/start.o
 .rel.text.common_diskboot
                0x00000000878cbdc8       0x28 arch/arm/cpu/armv7/start.o
 .rel.text.do_fastboot
                0x00000000878cbdf0       0x40 arch/arm/cpu/armv7/start.o
 .rel.text.do_imgextract
                0x00000000878cbe30       0x90 arch/arm/cpu/armv7/start.o
 .rel.text.do_env_delete
                0x00000000878cbec0       0x10 arch/arm/cpu/armv7/start.o
 .rel.text.do_env_exists
                0x00000000878cbed0        0x8 arch/arm/cpu/armv7/start.o
 .rel.text._do_env_set
                0x00000000878cbed8       0x30 arch/arm/cpu/armv7/start.o
 .rel.text.do_env
                0x00000000878cbf08        0x8 arch/arm/cpu/armv7/start.o
 .rel.text.env_print
                0x00000000878cbf10       0x18 arch/arm/cpu/armv7/start.o
 .rel.text.do_env_print
                0x00000000878cbf28       0x10 arch/arm/cpu/armv7/start.o
 .rel.text.do_env_import
                0x00000000878cbf38       0x50 arch/arm/cpu/armv7/start.o
 .rel.text.do_env_default
                0x00000000878cbf88        0x8 arch/arm/cpu/armv7/start.o
 .rel.text.get_env_id
                0x00000000878cbf90        0x8 arch/arm/cpu/armv7/start.o
 .rel.text.env_set
                0x00000000878cbf98        0x8 arch/arm/cpu/armv7/start.o
 .rel.text.env_set_hex
                0x00000000878cbfa0        0x8 arch/arm/cpu/armv7/start.o
 .rel.text.do_env_export
                0x00000000878cbfa8       0x30 arch/arm/cpu/armv7/start.o
 .rel.text.env_get_f
                0x00000000878cbfd8        0x8 arch/arm/cpu/armv7/start.o
 .rel.text.env_get
                0x00000000878cbfe0        0x8 arch/arm/cpu/armv7/start.o
 .rel.text.eth_env_set_enetaddr
                0x00000000878cbfe8        0x8 arch/arm/cpu/armv7/start.o
 .rel.text.do_env_edit.part.3
                0x00000000878cbff0       0x18 arch/arm/cpu/armv7/start.o
 .rel.rodata.fdt_member_table
                0x00000000878cc008       0x50 arch/arm/cpu/armv7/start.o
 .rel.rodata.op_table
                0x00000000878cc058       0x68 arch/arm/cpu/armv7/start.o
 .rel.rodata.reg_4_desc_tbl
                0x00000000878cc0c0       0x60 arch/arm/cpu/armv7/start.o
 .rel.rodata.desc_and_len_tbl
                0x00000000878cc120       0x30 arch/arm/cpu/armv7/start.o
 .rel.rodata.reg_5_desc_tbl
                0x00000000878cc150       0x60 arch/arm/cpu/armv7/start.o
 .rel.rodata.reg_2_desc_tbl
                0x00000000878cc1b0        0x8 arch/arm/cpu/armv7/start.o
 .rel.rodata.reg_0_5_desc_tbl
                0x00000000878cc1b8       0x30 arch/arm/cpu/armv7/start.o
 .rel.rodata.reg_3_desc_tbl
                0x00000000878cc1e8       0x18 arch/arm/cpu/armv7/start.o
 .rel.rodata.reg_0_desc_tbl
                0x00000000878cc200       0x50 arch/arm/cpu/armv7/start.o
 .rel.rodata.reg_1_desc_tbl
                0x00000000878cc250       0x80 arch/arm/cpu/armv7/start.o
 .rel.rodata.efi_var_attrs
                0x00000000878cc2d0       0x28 arch/arm/cpu/armv7/start.o
 .rel.rodata.op_adv
                0x00000000878cc2f8       0x80 arch/arm/cpu/armv7/start.o
 .rel.rodata.CSWTCH.31
                0x00000000878cc378       0x28 arch/arm/cpu/armv7/start.o
 .rel.u_boot_list_2_cmd_2_go
                0x00000000878cc3a0       0x28 arch/arm/cpu/armv7/start.o
 .rel.u_boot_list_2_cmd_2_reset
                0x00000000878cc3c8       0x28 arch/arm/cpu/armv7/start.o
 .rel.u_boot_list_2_cmd_2_iminfo
                0x00000000878cc3f0       0x28 arch/arm/cpu/armv7/start.o
 .rel.u_boot_list_2_cmd_2_boot
                0x00000000878cc418       0x28 arch/arm/cpu/armv7/start.o
 .rel.u_boot_list_2_cmd_2_bootd
                0x00000000878cc440       0x28 arch/arm/cpu/armv7/start.o
 .rel.u_boot_list_2_cmd_2_bootm
                0x00000000878cc468       0x28 arch/arm/cpu/armv7/start.o
 .rel.data.cmd_bootm_sub
                0x00000000878cc490      0x120 arch/arm/cpu/armv7/start.o
 .rel.u_boot_list_2_cmd_2_question_mark
                0x00000000878cc5b0       0x28 arch/arm/cpu/armv7/start.o
 .rel.u_boot_list_2_cmd_2_help
                0x00000000878cc5d8       0x28 arch/arm/cpu/armv7/start.o
 .rel.u_boot_list_2_cmd_2_version
                0x00000000878cc600       0x28 arch/arm/cpu/armv7/start.o
 .rel.u_boot_list_2_cmd_2_source
                0x00000000878cc628       0x28 arch/arm/cpu/armv7/start.o
 .rel.u_boot_list_2_cmd_2_bdinfo
                0x00000000878cc650       0x28 arch/arm/cpu/armv7/start.o
 .rel.data.cmd_blkc_sub
                0x00000000878cc678       0x50 arch/arm/cpu/armv7/start.o
 .rel.u_boot_list_2_cmd_2_blkcache
                0x00000000878cc6c8       0x28 arch/arm/cpu/armv7/start.o
 .rel.data.cmd_bmp_sub
                0x00000000878cc6f0       0x50 arch/arm/cpu/armv7/start.o
 .rel.u_boot_list_2_cmd_2_bmp
                0x00000000878cc740       0x28 arch/arm/cpu/armv7/start.o
 .rel.u_boot_list_2_cmd_2_bootefi
                0x00000000878cc768       0x28 arch/arm/cpu/armv7/start.o
 .rel.u_boot_list_2_cmd_2_bootz
                0x00000000878cc790       0x28 arch/arm/cpu/armv7/start.o
 .rel.u_boot_list_2_cmd_2_icache
                0x00000000878cc7b8       0x28 arch/arm/cpu/armv7/start.o
 .rel.u_boot_list_2_cmd_2_dcache
                0x00000000878cc7e0       0x28 arch/arm/cpu/armv7/start.o
 .rel.u_boot_list_2_cmd_2_coninfo
                0x00000000878cc808       0x28 arch/arm/cpu/armv7/start.o
 .rel.u_boot_list_2_cmd_2_dm
                0x00000000878cc830       0x28 arch/arm/cpu/armv7/start.o
 .rel.data.test_commands
                0x00000000878cc858       0x78 arch/arm/cpu/armv7/start.o
 .rel.u_boot_list_2_cmd_2_echo
                0x00000000878cc8d0       0x28 arch/arm/cpu/armv7/start.o
 .rel.u_boot_list_2_cmd_2_bootelf
                0x00000000878cc8f8       0x28 arch/arm/cpu/armv7/start.o
 .rel.u_boot_list_2_cmd_2_bootvx
                0x00000000878cc920       0x28 arch/arm/cpu/armv7/start.o
 .rel.u_boot_list_2_cmd_2_exit
                0x00000000878cc948       0x28 arch/arm/cpu/armv7/start.o
 .rel.u_boot_list_2_cmd_2_ext4load
                0x00000000878cc970       0x28 arch/arm/cpu/armv7/start.o
 .rel.u_boot_list_2_cmd_2_ext4write
                0x00000000878cc998       0x28 arch/arm/cpu/armv7/start.o
 .rel.u_boot_list_2_cmd_2_ext4ls
                0x00000000878cc9c0       0x28 arch/arm/cpu/armv7/start.o
 .rel.u_boot_list_2_cmd_2_ext4size
                0x00000000878cc9e8       0x28 arch/arm/cpu/armv7/start.o
 .rel.u_boot_list_2_cmd_2_ext2ls
                0x00000000878cca10       0x28 arch/arm/cpu/armv7/start.o
 .rel.u_boot_list_2_cmd_2_ext2load
                0x00000000878cca38       0x28 arch/arm/cpu/armv7/start.o
 .rel.u_boot_list_2_cmd_2_fatinfo
                0x00000000878cca60       0x28 arch/arm/cpu/armv7/start.o
 .rel.u_boot_list_2_cmd_2_fatwrite
                0x00000000878cca88       0x28 arch/arm/cpu/armv7/start.o
 .rel.u_boot_list_2_cmd_2_fatload
                0x00000000878ccab0       0x28 arch/arm/cpu/armv7/start.o
 .rel.u_boot_list_2_cmd_2_fatrm
                0x00000000878ccad8       0x28 arch/arm/cpu/armv7/start.o
 .rel.u_boot_list_2_cmd_2_fatls
                0x00000000878ccb00       0x28 arch/arm/cpu/armv7/start.o
 .rel.u_boot_list_2_cmd_2_fatsize
                0x00000000878ccb28       0x28 arch/arm/cpu/armv7/start.o
 .rel.u_boot_list_2_cmd_2_fatmkdir
                0x00000000878ccb50       0x28 arch/arm/cpu/armv7/start.o
 .rel.u_boot_list_2_cmd_2_fdt
                0x00000000878ccb78       0x28 arch/arm/cpu/armv7/start.o
 .rel.u_boot_list_2_cmd_2_protect
                0x00000000878ccba0       0x28 arch/arm/cpu/armv7/start.o
 .rel.u_boot_list_2_cmd_2_erase
                0x00000000878ccbc8       0x28 arch/arm/cpu/armv7/start.o
 .rel.u_boot_list_2_cmd_2_flinfo
                0x00000000878ccbf0       0x28 arch/arm/cpu/armv7/start.o
 .rel.u_boot_list_2_cmd_2_save
                0x00000000878ccc18       0x28 arch/arm/cpu/armv7/start.o
 .rel.u_boot_list_2_cmd_2_size
                0x00000000878ccc40       0x28 arch/arm/cpu/armv7/start.o
 .rel.u_boot_list_2_cmd_2_fstype
                0x00000000878ccc68       0x28 arch/arm/cpu/armv7/start.o
 .rel.u_boot_list_2_cmd_2_ls
                0x00000000878ccc90       0x28 arch/arm/cpu/armv7/start.o
 .rel.u_boot_list_2_cmd_2_load
                0x00000000878cccb8       0x28 arch/arm/cpu/armv7/start.o
 .rel.u_boot_list_2_cmd_2_fuse
                0x00000000878ccce0       0x28 arch/arm/cpu/armv7/start.o
 .rel.u_boot_list_2_cmd_2_gpio
                0x00000000878ccd08       0x28 arch/arm/cpu/armv7/start.o
 .rel.u_boot_list_2_cmd_2_i2c
                0x00000000878ccd30       0x28 arch/arm/cpu/armv7/start.o
 .rel.data.cmd_i2c_sub
                0x00000000878ccd58      0x258 arch/arm/cpu/armv7/start.o
 .rel.u_boot_list_2_cmd_2_itest
                0x00000000878ccfb0       0x28 arch/arm/cpu/armv7/start.o
 .rel.u_boot_list_2_cmd_2_loadb
                0x00000000878ccfd8       0x28 arch/arm/cpu/armv7/start.o
 .rel.u_boot_list_2_cmd_2_loadx
                0x00000000878cd000       0x28 arch/arm/cpu/armv7/start.o
 .rel.u_boot_list_2_cmd_2_loady
                0x00000000878cd028       0x28 arch/arm/cpu/armv7/start.o
 .rel.u_boot_list_2_cmd_2_loads
                0x00000000878cd050       0x28 arch/arm/cpu/armv7/start.o
 .rel.u_boot_list_2_cmd_2_base
                0x00000000878cd078       0x28 arch/arm/cpu/armv7/start.o
 .rel.u_boot_list_2_cmd_2_cmp
                0x00000000878cd0a0       0x28 arch/arm/cpu/armv7/start.o
 .rel.u_boot_list_2_cmd_2_nm
                0x00000000878cd0c8       0x28 arch/arm/cpu/armv7/start.o
 .rel.u_boot_list_2_cmd_2_loop
                0x00000000878cd0f0       0x28 arch/arm/cpu/armv7/start.o
 .rel.u_boot_list_2_cmd_2_mtest
                0x00000000878cd118       0x28 arch/arm/cpu/armv7/start.o
 .rel.u_boot_list_2_cmd_2_cp
                0x00000000878cd140       0x28 arch/arm/cpu/armv7/start.o
 .rel.u_boot_list_2_cmd_2_mm
                0x00000000878cd168       0x28 arch/arm/cpu/armv7/start.o
 .rel.u_boot_list_2_cmd_2_crc32
                0x00000000878cd190       0x28 arch/arm/cpu/armv7/start.o
 .rel.u_boot_list_2_cmd_2_md
                0x00000000878cd1b8       0x28 arch/arm/cpu/armv7/start.o
 .rel.u_boot_list_2_cmd_2_mw
                0x00000000878cd1e0       0x28 arch/arm/cpu/armv7/start.o
 .rel.u_boot_list_2_cmd_2_mii
                0x00000000878cd208       0x28 arch/arm/cpu/armv7/start.o
 .rel.u_boot_list_2_cmd_2_mdio
                0x00000000878cd230       0x28 arch/arm/cpu/armv7/start.o
 .rel.u_boot_list_2_cmd_2_sleep
                0x00000000878cd258       0x28 arch/arm/cpu/armv7/start.o
 .rel.u_boot_list_2_cmd_2_mmcinfo
                0x00000000878cd280       0x28 arch/arm/cpu/armv7/start.o
 .rel.data.cmd_mmc
                0x00000000878cd2a8      0x230 arch/arm/cpu/armv7/start.o
 .rel.u_boot_list_2_cmd_2_mmc
                0x00000000878cd4d8       0x28 arch/arm/cpu/armv7/start.o
 .rel.data.mtd_subcmds
                0x00000000878cd500      0x118 arch/arm/cpu/armv7/start.o
 .rel.u_boot_list_2_cmd_2_mtd
                0x00000000878cd618       0x30 arch/arm/cpu/armv7/start.o
 .rel.u_boot_list_2_cmd_2_mtdparts
                0x00000000878cd648       0x28 arch/arm/cpu/armv7/start.o
 .rel.u_boot_list_2_cmd_2_chpart
                0x00000000878cd670       0x28 arch/arm/cpu/armv7/start.o
 .rel.u_boot_list_2_cmd_2_nboot
                0x00000000878cd698       0x28 arch/arm/cpu/armv7/start.o
 .rel.u_boot_list_2_cmd_2_nand
                0x00000000878cd6c0       0x28 arch/arm/cpu/armv7/start.o
 .rel.u_boot_list_2_cmd_2_ping
                0x00000000878cd6e8       0x28 arch/arm/cpu/armv7/start.o
 .rel.u_boot_list_2_cmd_2_dhcp
                0x00000000878cd710       0x28 arch/arm/cpu/armv7/start.o
 .rel.u_boot_list_2_cmd_2_bootp
                0x00000000878cd738       0x28 arch/arm/cpu/armv7/start.o
 .rel.u_boot_list_2_cmd_2_tftpboot
                0x00000000878cd760       0x28 arch/arm/cpu/armv7/start.o
 .rel.u_boot_list_2_cmd_2_nfs
                0x00000000878cd788       0x28 arch/arm/cpu/armv7/start.o
 .rel.u_boot_list_2_cmd_2_part
                0x00000000878cd7b0       0x28 arch/arm/cpu/armv7/start.o
 .rel.data.pinmux_subcmd
                0x00000000878cd7d8       0x78 arch/arm/cpu/armv7/start.o
 .rel.u_boot_list_2_cmd_2_pinmux
                0x00000000878cd850       0x28 arch/arm/cpu/armv7/start.o
 .rel.u_boot_list_2_cmd_2_read
                0x00000000878cd878       0x28 arch/arm/cpu/armv7/start.o
 .rel.u_boot_list_2_cmd_2_sf
                0x00000000878cd8a0       0x28 arch/arm/cpu/armv7/start.o
 .rel.u_boot_list_2_cmd_2_setexpr
                0x00000000878cd8c8       0x28 arch/arm/cpu/armv7/start.o
 .rel.u_boot_list_2_cmd_2_test
                0x00000000878cd8f0       0x28 arch/arm/cpu/armv7/start.o
 .rel.u_boot_list_2_cmd_2_true
                0x00000000878cd918       0x20 arch/arm/cpu/armv7/start.o
 .rel.u_boot_list_2_cmd_2_false
                0x00000000878cd938       0x20 arch/arm/cpu/armv7/start.o
 .rel.u_boot_list_2_cmd_2_ubi
                0x00000000878cd958       0x28 arch/arm/cpu/armv7/start.o
 .rel.u_boot_list_2_cmd_2_ubifsumount
                0x00000000878cd980       0x28 arch/arm/cpu/armv7/start.o
 .rel.u_boot_list_2_cmd_2_ubifsload
                0x00000000878cd9a8       0x28 arch/arm/cpu/armv7/start.o
 .rel.u_boot_list_2_cmd_2_ubifsls
                0x00000000878cd9d0       0x28 arch/arm/cpu/armv7/start.o
 .rel.u_boot_list_2_cmd_2_ubifsmount
                0x00000000878cd9f8       0x28 arch/arm/cpu/armv7/start.o
 .rel.u_boot_list_2_cmd_2_usb
                0x00000000878cda20       0x28 arch/arm/cpu/armv7/start.o
 .rel.u_boot_list_2_cmd_2_usbboot
                0x00000000878cda48       0x28 arch/arm/cpu/armv7/start.o
 .rel.u_boot_list_2_cmd_2_fastboot
                0x00000000878cda70       0x28 arch/arm/cpu/armv7/start.o
 .rel.u_boot_list_2_cmd_2_imxtract
                0x00000000878cda98       0x28 arch/arm/cpu/armv7/start.o
 .rel.u_boot_list_2_cmd_2_setenv
                0x00000000878cdac0       0x30 arch/arm/cpu/armv7/start.o
 .rel.u_boot_list_2_cmd_2_env
                0x00000000878cdaf0       0x28 arch/arm/cpu/armv7/start.o
 .rel.u_boot_list_2_cmd_2_saveenv
                0x00000000878cdb18       0x28 arch/arm/cpu/armv7/start.o
 .rel.data.cmd_env_sub
                0x00000000878cdb40      0x190 arch/arm/cpu/armv7/start.o
 .rel.u_boot_list_2_cmd_2_printenv
                0x00000000878cdcd0       0x30 arch/arm/cpu/armv7/start.o
 .rel.u_boot_list_2_cmd_2_editenv
                0x00000000878cdd00       0x30 arch/arm/cpu/armv7/start.o
 .rel.u_boot_list_2_cmd_2_run
                0x00000000878cdd30       0x30 arch/arm/cpu/armv7/start.o
 .rel.text.main_loop
                0x00000000878cdd60        0x8 arch/arm/cpu/armv7/start.o
 .rel.text.jumptable_init
                0x00000000878cdd68       0xc0 arch/arm/cpu/armv7/start.o
 .rel.text.hash_command
                0x00000000878cde28        0x8 arch/arm/cpu/armv7/start.o
 .rel.text.mapset
                0x00000000878cde30        0x8 arch/arm/cpu/armv7/start.o
 .rel.text.syntax_err
                0x00000000878cde38        0x8 arch/arm/cpu/armv7/start.o
 .rel.text.xmalloc
                0x00000000878cde40        0x8 arch/arm/cpu/armv7/start.o
 .rel.text.xrealloc
                0x00000000878cde48        0x8 arch/arm/cpu/armv7/start.o
 .rel.text.done_word
                0x00000000878cde50        0x8 arch/arm/cpu/armv7/start.o
 .rel.text.do_showvar
                0x00000000878cde58       0x20 arch/arm/cpu/armv7/start.o
 .rel.text.is_assignment
                0x00000000878cde78        0x8 arch/arm/cpu/armv7/start.o
 .rel.text.file_get
                0x00000000878cde80       0x30 arch/arm/cpu/armv7/start.o
 .rel.text.b_addqchr
                0x00000000878cdeb0        0x8 arch/arm/cpu/armv7/start.o
 .rel.text.get_local_var
                0x00000000878cdeb8       0x20 arch/arm/cpu/armv7/start.o
 .rel.text.set_local_var
                0x00000000878cded8       0x20 arch/arm/cpu/armv7/start.o
 .rel.text.insert_var_value_sub
                0x00000000878cdef8        0x8 arch/arm/cpu/armv7/start.o
 .rel.text.parse_string_outer
                0x00000000878cdf00       0x18 arch/arm/cpu/armv7/start.o
 .rel.text.run_list_real
                0x00000000878cdf18       0x40 arch/arm/cpu/armv7/start.o
 .rel.text.parse_stream_outer
                0x00000000878cdf58       0x68 arch/arm/cpu/armv7/start.o
 .rel.text.parse_file_outer
                0x00000000878cdfc0       0x10 arch/arm/cpu/armv7/start.o
 .rel.text.u_boot_hush_start
                0x00000000878cdfd0       0x18 arch/arm/cpu/armv7/start.o
 .rel.text.bootdelay_process
                0x00000000878cdfe8       0x70 arch/arm/cpu/armv7/start.o
 .rel.text.autoboot_command
                0x00000000878ce058       0x20 arch/arm/cpu/armv7/start.o
 .rel.text.setup_mon_len
                0x00000000878ce078       0x10 arch/arm/cpu/armv7/start.o
 .rel.text.announce_dram_init
                0x00000000878ce088        0x8 arch/arm/cpu/armv7/start.o
 .rel.text.init_baud_rate
                0x00000000878ce090        0x8 arch/arm/cpu/armv7/start.o
 .rel.text.show_dram_config
                0x00000000878ce098        0x8 arch/arm/cpu/armv7/start.o
 .rel.text.board_init_f
                0x00000000878ce0a0       0x10 arch/arm/cpu/armv7/start.o
 .rel.text.initr_net
                0x00000000878ce0b0        0x8 arch/arm/cpu/armv7/start.o
 .rel.text.initr_ethaddr
                0x00000000878ce0b8        0x8 arch/arm/cpu/armv7/start.o
 .rel.text.initr_env
                0x00000000878ce0c0       0x20 arch/arm/cpu/armv7/start.o
 .rel.text.initr_mmc
                0x00000000878ce0e0        0x8 arch/arm/cpu/armv7/start.o
 .rel.text.initr_nand
                0x00000000878ce0e8       0x10 arch/arm/cpu/armv7/start.o
 .rel.text.initr_reloc_global_data
                0x00000000878ce0f8       0x18 arch/arm/cpu/armv7/start.o
 .rel.text.board_init_r
                0x00000000878ce110       0x10 arch/arm/cpu/armv7/start.o
 .rel.text.show_board_info
                0x00000000878ce120       0x10 arch/arm/cpu/armv7/start.o
 .rel.text.bootm_find_images
                0x00000000878ce130       0x18 arch/arm/cpu/armv7/start.o
 .rel.text.bootm_decomp_image
                0x00000000878ce148       0x48 arch/arm/cpu/armv7/start.o
 .rel.text.do_bootm_states
                0x00000000878ce190       0xc0 arch/arm/cpu/armv7/start.o
 .rel.text.do_bootm_vxworks
                0x00000000878ce250       0x38 arch/arm/cpu/armv7/start.o
 .rel.text.do_bootm_rtems
                0x00000000878ce288        0x8 arch/arm/cpu/armv7/start.o
 .rel.text.do_bootm_plan9
                0x00000000878ce290       0x18 arch/arm/cpu/armv7/start.o
 .rel.text.do_bootm_standalone
                0x00000000878ce2a8       0x18 arch/arm/cpu/armv7/start.o
 .rel.text.do_bootm_qnxelf
                0x00000000878ce2c0        0x8 arch/arm/cpu/armv7/start.o
 .rel.text.do_bootm_netbsd
                0x00000000878ce2c8       0x18 arch/arm/cpu/armv7/start.o
 .rel.text.bootm_os_get_boot_func
                0x00000000878ce2e0        0x8 arch/arm/cpu/armv7/start.o
 .rel.text.fdt_support_default_count_cells
                0x00000000878ce2e8        0x8 arch/arm/cpu/armv7/start.o
 .rel.text.fdt_find_or_add_subnode
                0x00000000878ce2f0       0x10 arch/arm/cpu/armv7/start.o
 .rel.text.fdt_root
                0x00000000878ce300       0x20 arch/arm/cpu/armv7/start.o
 .rel.text.fdt_initrd
                0x00000000878ce320       0x30 arch/arm/cpu/armv7/start.o
 .rel.text.fdt_chosen
                0x00000000878ce350       0x20 arch/arm/cpu/armv7/start.o
 .rel.text.do_fixup_by_path
                0x00000000878ce370        0x8 arch/arm/cpu/armv7/start.o
 .rel.text.fdt_fixup_memory_banks
                0x00000000878ce378       0x38 arch/arm/cpu/armv7/start.o
 .rel.text.fdt_fixup_ethernet
                0x00000000878ce3b0       0x30 arch/arm/cpu/armv7/start.o
 .rel.text.fdt_translate_address
                0x00000000878ce3e0       0x20 arch/arm/cpu/armv7/start.o
 .rel.text.fdt_overlay_apply_verbose
                0x00000000878ce400       0x20 arch/arm/cpu/armv7/start.o
 .rel.text.miiphy_get_dev_by_name
                0x00000000878ce420       0x10 arch/arm/cpu/armv7/start.o
 .rel.text.miiphy_init
                0x00000000878ce430       0x10 arch/arm/cpu/armv7/start.o
 .rel.text.mdio_register
                0x00000000878ce440       0x18 arch/arm/cpu/armv7/start.o
 .rel.text.mdio_unregister
                0x00000000878ce458        0x8 arch/arm/cpu/armv7/start.o
 .rel.text.mdio_list_devices
                0x00000000878ce460       0x28 arch/arm/cpu/armv7/start.o
 .rel.text.miiphy_set_current_dev
                0x00000000878ce488       0x10 arch/arm/cpu/armv7/start.o
 .rel.text.miiphy_get_active_dev
                0x00000000878ce498        0x8 arch/arm/cpu/armv7/start.o
 .rel.text.mdio_get_current_dev
                0x00000000878ce4a0        0x8 arch/arm/cpu/armv7/start.o
 .rel.text.mdio_phydev_for_ethname
                0x00000000878ce4a8       0x10 arch/arm/cpu/armv7/start.o
 .rel.text.miiphy_get_current_dev
                0x00000000878ce4b8        0x8 arch/arm/cpu/armv7/start.o
 .rel.text.miiphy_listdev
                0x00000000878ce4c0       0x30 arch/arm/cpu/armv7/start.o
 .rel.text.miiphy_speed
                0x00000000878ce4f0       0x20 arch/arm/cpu/armv7/start.o
 .rel.text.miiphy_duplex
                0x00000000878ce510       0x20 arch/arm/cpu/armv7/start.o
 .rel.text.get_descriptor_len
                0x00000000878ce530       0x10 arch/arm/cpu/armv7/start.o
 .rel.text.usb_setup_descriptor
                0x00000000878ce540       0x10 arch/arm/cpu/armv7/start.o
 .rel.text.usb_string_sub
                0x00000000878ce550        0x8 arch/arm/cpu/armv7/start.o
 .rel.text.usb_get_configuration_len
                0x00000000878ce558       0x10 arch/arm/cpu/armv7/start.o
 .rel.text.usb_set_interface
                0x00000000878ce568        0x8 arch/arm/cpu/armv7/start.o
 .rel.text.usb_select_config
                0x00000000878ce570       0x70 arch/arm/cpu/armv7/start.o
 .rel.text.usb_setup_device
                0x00000000878ce5e0       0x10 arch/arm/cpu/armv7/start.o
 .rel.text.usb_find_usb2_hub_address_port
                0x00000000878ce5f0        0x8 arch/arm/cpu/armv7/start.o
 .rel.text.usb_hub_port_connect_change
                0x00000000878ce5f8        0x8 arch/arm/cpu/armv7/start.o
 .rel.text.usb_hub_configure
                0x00000000878ce600       0x28 arch/arm/cpu/armv7/start.o
 .rel.text.usb_stor_BBB_transport
                0x00000000878ce628       0x10 arch/arm/cpu/armv7/start.o
 .rel.text.usb_stor_CB_comdat
                0x00000000878ce638        0x8 arch/arm/cpu/armv7/start.o
 .rel.text.usb_stor_CBI_get_status.isra.2
                0x00000000878ce640        0x8 arch/arm/cpu/armv7/start.o
 .rel.text.usb_stor_CB_transport
                0x00000000878ce648       0x10 arch/arm/cpu/armv7/start.o
 .rel.text.usb_request_sense.constprop.11
                0x00000000878ce658        0x8 arch/arm/cpu/armv7/start.o
 .rel.text.usb_stor_read
                0x00000000878ce660        0x8 arch/arm/cpu/armv7/start.o
 .rel.text.usb_stor_write
                0x00000000878ce668        0x8 arch/arm/cpu/armv7/start.o
 .rel.text.usb_stor_info
                0x00000000878ce670       0x10 arch/arm/cpu/armv7/start.o
 .rel.text.usb_stor_reset
                0x00000000878ce680        0x8 arch/arm/cpu/armv7/start.o
 .rel.text.usb_stor_scan
                0x00000000878ce688       0x18 arch/arm/cpu/armv7/start.o
 .rel.text.usb_storage_probe
                0x00000000878ce6a0       0x38 arch/arm/cpu/armv7/start.o
 .rel.text.usb_stor_get_info
                0x00000000878ce6d8       0x20 arch/arm/cpu/armv7/start.o
 .rel.text.usb_mass_storage_probe
                0x00000000878ce6f8       0x18 arch/arm/cpu/armv7/start.o
 .rel.text.iomux_doenv
                0x00000000878ce710       0x10 arch/arm/cpu/armv7/start.o
 .rel.text.splash_get_pos
                0x00000000878ce720        0x8 arch/arm/cpu/armv7/start.o
 .rel.text.delete_char.part.0
                0x00000000878ce728       0x10 arch/arm/cpu/armv7/start.o
 .rel.text.cread_add_char
                0x00000000878ce738        0x8 arch/arm/cpu/armv7/start.o
 .rel.text.cli_readline_into_buffer
                0x00000000878ce740      0x170 arch/arm/cpu/armv7/start.o
 .rel.text.cli_readline
                0x00000000878ce8b0        0x8 arch/arm/cpu/armv7/start.o
 .rel.text.console_tstc
                0x00000000878ce8b8       0x20 arch/arm/cpu/armv7/start.o
 .rel.text.console_putc
                0x00000000878ce8d8       0x10 arch/arm/cpu/armv7/start.o
 .rel.text.console_puts
                0x00000000878ce8e8       0x10 arch/arm/cpu/armv7/start.o
 .rel.text.on_console
                0x00000000878ce8f8       0x20 arch/arm/cpu/armv7/start.o
 .rel.text.console_getc.isra.0
                0x00000000878ce918        0x8 arch/arm/cpu/armv7/start.o
 .rel.text.getc
                0x00000000878ce920        0x8 arch/arm/cpu/armv7/start.o
 .rel.text.ctrlc
                0x00000000878ce928       0x10 arch/arm/cpu/armv7/start.o
 .rel.text.confirm_yesno
                0x00000000878ce938       0x20 arch/arm/cpu/armv7/start.o
 .rel.text.disable_ctrlc
                0x00000000878ce958        0x8 arch/arm/cpu/armv7/start.o
 .rel.text.had_ctrlc
                0x00000000878ce960        0x8 arch/arm/cpu/armv7/start.o
 .rel.text.clear_ctrlc
                0x00000000878ce968        0x8 arch/arm/cpu/armv7/start.o
 .rel.text.console_assign
                0x00000000878ce970       0x30 arch/arm/cpu/armv7/start.o
 .rel.text.stdio_print_current_devices
                0x00000000878ce9a0       0x40 arch/arm/cpu/armv7/start.o
 .rel.text.console_init_r
                0x00000000878ce9e0       0x48 arch/arm/cpu/armv7/start.o
 .rel.text.sbrk
                0x00000000878cea28       0x18 arch/arm/cpu/armv7/start.o
 .rel.text.mem_malloc_init
                0x00000000878cea40       0x18 arch/arm/cpu/armv7/start.o
 .rel.text.malloc_trim
                0x00000000878cea58       0x18 arch/arm/cpu/armv7/start.o
 .rel.text.free
                0x00000000878cea70       0x18 arch/arm/cpu/armv7/start.o
 .rel.text.malloc
                0x00000000878cea88       0x40 arch/arm/cpu/armv7/start.o
 .rel.text.calloc
                0x00000000878ceac8        0x8 arch/arm/cpu/armv7/start.o
 .rel.text.realloc
                0x00000000878cead0       0x10 arch/arm/cpu/armv7/start.o
 .rel.text.on_loadaddr
                0x00000000878ceae0        0x8 arch/arm/cpu/armv7/start.o
 .rel.text.env_get_bootm_low
                0x00000000878ceae8        0x8 arch/arm/cpu/armv7/start.o
 .rel.text.env_get_bootm_size
                0x00000000878ceaf0       0x10 arch/arm/cpu/armv7/start.o
 .rel.text.env_get_bootm_mapsize
                0x00000000878ceb00        0x8 arch/arm/cpu/armv7/start.o
 .rel.text.genimg_print_size
                0x00000000878ceb08       0x10 arch/arm/cpu/armv7/start.o
 .rel.text.genimg_get_os_name
                0x00000000878ceb18       0x10 arch/arm/cpu/armv7/start.o
 .rel.text.genimg_get_arch_name
                0x00000000878ceb28       0x10 arch/arm/cpu/armv7/start.o
 .rel.text.genimg_get_type_name
                0x00000000878ceb38       0x10 arch/arm/cpu/armv7/start.o
 .rel.text.genimg_get_comp_name
                0x00000000878ceb48       0x10 arch/arm/cpu/armv7/start.o
 .rel.text.image_print_contents
                0x00000000878ceb58       0x58 arch/arm/cpu/armv7/start.o
 .rel.text.genimg_get_kernel_addr_fit
                0x00000000878cebb0        0x8 arch/arm/cpu/armv7/start.o
 .rel.text.boot_get_ramdisk
                0x00000000878cebb8       0x50 arch/arm/cpu/armv7/start.o
 .rel.text.boot_ramdisk_high
                0x00000000878cec08       0x20 arch/arm/cpu/armv7/start.o
 .rel.text.android_image_get_kernel
                0x00000000878cec28      0x110 arch/arm/cpu/armv7/start.o
 .rel.text.android_image_check_header
                0x00000000878ced38        0x8 arch/arm/cpu/armv7/start.o
 .rel.text.android_image_get_ramdisk
                0x00000000878ced40        0x8 arch/arm/cpu/armv7/start.o
 .rel.text.android_image_get_second
                0x00000000878ced48        0x8 arch/arm/cpu/armv7/start.o
 .rel.text.android_print_contents
                0x00000000878ced50       0x60 arch/arm/cpu/armv7/start.o
 .rel.text.fdt_error
                0x00000000878cedb0       0x10 arch/arm/cpu/armv7/start.o
 .rel.text.boot_fdt_add_mem_rsv_regions
                0x00000000878cedc0       0x20 arch/arm/cpu/armv7/start.o
 .rel.text.boot_relocate_fdt
                0x00000000878cede0       0x40 arch/arm/cpu/armv7/start.o
 .rel.text.boot_get_fdt
                0x00000000878cee20       0x80 arch/arm/cpu/armv7/start.o
 .rel.text.image_setup_libfdt
                0x00000000878ceea0       0x28 arch/arm/cpu/armv7/start.o
 .rel.text.stdio_get_list
                0x00000000878ceec8        0x8 arch/arm/cpu/armv7/start.o
 .rel.text.stdio_get_by_name
                0x00000000878ceed0        0x8 arch/arm/cpu/armv7/start.o
 .rel.text.stdio_register_dev
                0x00000000878ceed8        0x8 arch/arm/cpu/armv7/start.o
 .rel.text.stdio_init_tables
                0x00000000878ceee0        0x8 arch/arm/cpu/armv7/start.o
 .rel.text.stdio_add_devices
                0x00000000878ceee8       0x48 arch/arm/cpu/armv7/start.o
 .rel.text.do_run
                0x00000000878cef30        0x8 arch/arm/cpu/armv7/start.o
 .rel.text.cli_process_fdt
                0x00000000878cef38       0x10 arch/arm/cpu/armv7/start.o
 .rel.text.cli_secure_boot_cmd
                0x00000000878cef48       0x18 arch/arm/cpu/armv7/start.o
 .rel.text.find_cmd
                0x00000000878cef60       0x10 arch/arm/cpu/armv7/start.o
 .rel.text.cmd_usage
                0x00000000878cef70       0x18 arch/arm/cpu/armv7/start.o
 .rel.text._do_help
                0x00000000878cef88       0x10 arch/arm/cpu/armv7/start.o
 .rel.text.var_complete
                0x00000000878cef98       0x10 arch/arm/cpu/armv7/start.o
 .rel.text.complete_subcmdv
                0x00000000878cefa8        0x8 arch/arm/cpu/armv7/start.o
 .rel.text.cmd_auto_complete
                0x00000000878cefb0       0x40 arch/arm/cpu/armv7/start.o
 .rel.text.cmd_get_data_size
                0x00000000878ceff0        0x8 arch/arm/cpu/armv7/start.o
 .rel.text.cmd_process
                0x00000000878ceff8       0x18 arch/arm/cpu/armv7/start.o
 .rel.text.cmd_process_error
                0x00000000878cf010        0x8 arch/arm/cpu/armv7/start.o
 .rel.text.srec_decode
                0x00000000878cf018       0x50 arch/arm/cpu/armv7/start.o
 .rel.text.xyzModem_get_hdr
                0x00000000878cf068       0x30 arch/arm/cpu/armv7/start.o
 .rel.text.xyzModem_stream_open
                0x00000000878cf098       0x10 arch/arm/cpu/armv7/start.o
 .rel.text.xyzModem_stream_read
                0x00000000878cf0a8        0x8 arch/arm/cpu/armv7/start.o
 .rel.text.xyzModem_stream_close
                0x00000000878cf0b0       0x20 arch/arm/cpu/armv7/start.o
 .rel.text.xyzModem_stream_terminate
                0x00000000878cf0d0        0x8 arch/arm/cpu/armv7/start.o
 .rel.text.xyzModem_error
                0x00000000878cf0d8       0x10 arch/arm/cpu/armv7/start.o
 .rel.rodata.init_sequence_f
                0x00000000878cf0e8      0x178 arch/arm/cpu/armv7/start.o
 .rel.rodata.boot_os
                0x00000000878cf260       0x38 arch/arm/cpu/armv7/start.o
 .rel.rodata.usb_hub_ids
                0x00000000878cf298        0x8 arch/arm/cpu/armv7/start.o
 .rel.rodata.usb_mass_storage_ids
                0x00000000878cf2a0        0x8 arch/arm/cpu/armv7/start.o
 .rel.rodata.usb_storage_ops
                0x00000000878cf2a8       0x10 arch/arm/cpu/armv7/start.o
 .rel.rodata.uimage_comp
                0x00000000878cf2b8       0x70 arch/arm/cpu/armv7/start.o
 .rel.rodata.uimage_os
                0x00000000878cf328       0xc0 arch/arm/cpu/armv7/start.o
 .rel.rodata.uimage_type
                0x00000000878cf3e8      0x270 arch/arm/cpu/armv7/start.o
 .rel.rodata.uimage_arch
                0x00000000878cf658      0x1b0 arch/arm/cpu/armv7/start.o
 .rel.rodata.CSWTCH.28
                0x00000000878cf808       0x40 arch/arm/cpu/armv7/start.o
 .rel.data.reserved_list
                0x00000000878cf848       0x58 arch/arm/cpu/armv7/start.o
 .rel.u_boot_list_2_cmd_2_showvar
                0x00000000878cf8a0       0x28 arch/arm/cpu/armv7/start.o
 .rel.data.init_sequence_r
                0x00000000878cf8c8      0x100 arch/arm/cpu/armv7/start.o
 .rel.data.of_busses
                0x00000000878cf9c8       0x28 arch/arm/cpu/armv7/start.o
 .rel.u_boot_list_2_uclass_2_usb_hub
                0x00000000878cf9f0       0x20 arch/arm/cpu/armv7/start.o
 .rel.u_boot_list_2_driver_2_usb_generic_hub
                0x00000000878cfa10       0x10 arch/arm/cpu/armv7/start.o
 .rel.data.usb_scan_list
                0x00000000878cfa20       0x10 arch/arm/cpu/armv7/start.o
 .rel.u_boot_list_2_usb_driver_entry_2_usb_generic_hub
                0x00000000878cfa30       0x10 arch/arm/cpu/armv7/start.o
 .rel.u_boot_list_2_driver_2_usb_storage_blk
                0x00000000878cfa40       0x10 arch/arm/cpu/armv7/start.o
 .rel.u_boot_list_2_driver_2_usb_mass_storage
                0x00000000878cfa50       0x18 arch/arm/cpu/armv7/start.o
 .rel.u_boot_list_2_uclass_2_usb_mass_storage
                0x00000000878cfa68        0x8 arch/arm/cpu/armv7/start.o
 .rel.u_boot_list_2_usb_driver_entry_2_usb_mass_storage
                0x00000000878cfa70       0x10 arch/arm/cpu/armv7/start.o
 .rel.u_boot_list_2_env_clbk_2_console
                0x00000000878cfa80       0x10 arch/arm/cpu/armv7/start.o
 .rel.data.av_  0x00000000878cfa90      0x800 arch/arm/cpu/armv7/start.o
 .rel.u_boot_list_2_env_clbk_2_loadaddr
                0x00000000878d0290       0x10 arch/arm/cpu/armv7/start.o
 .rel.data.stdio_names
                0x00000000878d02a0       0x18 arch/arm/cpu/armv7/start.o
 .rel.text.part_driver_lookup_type
                0x00000000878d02b8       0x10 arch/arm/cpu/armv7/start.o
 .rel.text.dev_print
                0x00000000878d02c8      0x138 arch/arm/cpu/armv7/start.o
 .rel.text.part_init
                0x00000000878d0400       0x10 arch/arm/cpu/armv7/start.o
 .rel.text.part_print
                0x00000000878d0410       0xd0 arch/arm/cpu/armv7/start.o
 .rel.text.part_get_info_whole_disk
                0x00000000878d04e0       0x10 arch/arm/cpu/armv7/start.o
 .rel.text.blk_get_device_by_str
                0x00000000878d04f0       0x10 arch/arm/cpu/armv7/start.o
 .rel.text.blk_get_device_part_str
                0x00000000878d0500       0x70 arch/arm/cpu/armv7/start.o
 .rel.text.part_set_generic_name
                0x00000000878d0570       0x18 arch/arm/cpu/armv7/start.o
 .rel.text.test_block_type
                0x00000000878d0588       0x10 arch/arm/cpu/armv7/start.o
 .rel.text.print_partition_extended
                0x00000000878d0598       0x30 arch/arm/cpu/armv7/start.o
 .rel.text.part_print_dos
                0x00000000878d05c8        0x8 arch/arm/cpu/armv7/start.o
 .rel.text.part_get_info_extended
                0x00000000878d05d0       0x20 arch/arm/cpu/armv7/start.o
 .rel.text.print_efiname
                0x00000000878d05f0       0x10 arch/arm/cpu/armv7/start.o
 .rel.text.validate_gpt_header
                0x00000000878d0600       0x30 arch/arm/cpu/armv7/start.o
 .rel.text.is_gpt_valid
                0x00000000878d0630       0x40 arch/arm/cpu/armv7/start.o
 .rel.text.is_pte_valid
                0x00000000878d0670       0x10 arch/arm/cpu/armv7/start.o
 .rel.text.part_print_efi
                0x00000000878d0680       0x60 arch/arm/cpu/armv7/start.o
 .rel.text.part_get_info_efi
                0x00000000878d06e0       0x30 arch/arm/cpu/armv7/start.o
 .rel.text.write_backup_gpt_partitions
                0x00000000878d0710       0x28 arch/arm/cpu/armv7/start.o
 .rel.rodata.CSWTCH.41
                0x00000000878d0738       0x40 arch/arm/cpu/armv7/start.o
 .rel.u_boot_list_2_part_driver_2_dos
                0x00000000878d0778       0x20 arch/arm/cpu/armv7/start.o
 .rel.u_boot_list_2_part_driver_2_a_efi
                0x00000000878d0798       0x20 arch/arm/cpu/armv7/start.o
 .rel.text.device_bind_common.isra.7
                0x00000000878d07b8       0x10 arch/arm/cpu/armv7/start.o
 .rel.text.device_probe
                0x00000000878d07c8       0x18 arch/arm/cpu/armv7/start.o
 .rel.text.dev_get_platdata
                0x00000000878d07e0       0x10 arch/arm/cpu/armv7/start.o
 .rel.text.dev_get_parent_platdata
                0x00000000878d07f0       0x10 arch/arm/cpu/armv7/start.o
 .rel.text.dev_get_uclass_platdata
                0x00000000878d0800       0x10 arch/arm/cpu/armv7/start.o
 .rel.text.dev_get_priv
                0x00000000878d0810       0x10 arch/arm/cpu/armv7/start.o
 .rel.text.dev_get_uclass_priv
                0x00000000878d0820       0x10 arch/arm/cpu/armv7/start.o
 .rel.text.dev_get_parent_priv
                0x00000000878d0830       0x10 arch/arm/cpu/armv7/start.o
 .rel.text.devfdt_get_addr_index
                0x00000000878d0840        0x8 arch/arm/cpu/armv7/start.o
 .rel.text.lists_driver_lookup_name
                0x00000000878d0848       0x10 arch/arm/cpu/armv7/start.o
 .rel.text.lists_uclass_lookup
                0x00000000878d0858       0x10 arch/arm/cpu/armv7/start.o
 .rel.text.lists_bind_drivers
                0x00000000878d0868       0x18 arch/arm/cpu/armv7/start.o
 .rel.text.lists_bind_fdt
                0x00000000878d0880       0x28 arch/arm/cpu/armv7/start.o
 .rel.text.dm_scan_fdt_node
                0x00000000878d08a8       0x18 arch/arm/cpu/armv7/start.o
 .rel.text.dm_root
                0x00000000878d08c0        0x8 arch/arm/cpu/armv7/start.o
 .rel.text.dm_init
                0x00000000878d08c8       0x10 arch/arm/cpu/armv7/start.o
 .rel.text.dm_scan_platdata
                0x00000000878d08d8        0x8 arch/arm/cpu/armv7/start.o
 .rel.text.dm_extended_scan_fdt
                0x00000000878d08e0       0x10 arch/arm/cpu/armv7/start.o
 .rel.text.uclass_resolve_seq
                0x00000000878d08f0        0x8 arch/arm/cpu/armv7/start.o
 .rel.text.dm_ofnode_pre_reloc
                0x00000000878d08f8       0x18 arch/arm/cpu/armv7/start.o
 .rel.text.devres_free
                0x00000000878d0910       0x20 arch/arm/cpu/armv7/start.o
 .rel.text.devres_add
                0x00000000878d0930       0x20 arch/arm/cpu/armv7/start.o
 .rel.text.devm_kmalloc
                0x00000000878d0950        0x8 arch/arm/cpu/armv7/start.o
 .rel.text.devm_kfree
                0x00000000878d0958       0x28 arch/arm/cpu/armv7/start.o
 .rel.text.device_remove
                0x00000000878d0980       0x20 arch/arm/cpu/armv7/start.o
 .rel.text.simple_bus_post_bind
                0x00000000878d09a0        0x8 arch/arm/cpu/armv7/start.o
 .rel.text.show_devices
                0x00000000878d09a8       0x30 arch/arm/cpu/armv7/start.o
 .rel.text.dm_dump_all
                0x00000000878d09d8       0x10 arch/arm/cpu/armv7/start.o
 .rel.text.dm_dump_uclass
                0x00000000878d09e8       0x20 arch/arm/cpu/armv7/start.o
 .rel.text.ofnode_pre_reloc
                0x00000000878d0a08       0x20 arch/arm/cpu/armv7/start.o
 .rel.text.ofnode_read_resource
                0x00000000878d0a28        0x8 arch/arm/cpu/armv7/start.o
 .rel.text.ofnode_read_resource_byname
                0x00000000878d0a30        0x8 arch/arm/cpu/armv7/start.o
 .rel.text.pinconfig_post_bind
                0x00000000878d0a38       0x10 arch/arm/cpu/armv7/start.o
 .rel.text.pinctrl_select_state
                0x00000000878d0a48       0x18 arch/arm/cpu/armv7/start.o
 .rel.text.imx_pinctrl_set_state
                0x00000000878d0a60       0x28 arch/arm/cpu/armv7/start.o
 .rel.text.imx_pinctrl_probe
                0x00000000878d0a88       0x28 arch/arm/cpu/armv7/start.o
 .rel.text.blk_get_if_type_name
                0x00000000878d0ab0        0x8 arch/arm/cpu/armv7/start.o
 .rel.text.blk_get_devnum_by_typename
                0x00000000878d0ab8       0x10 arch/arm/cpu/armv7/start.o
 .rel.text.blk_list_devices
                0x00000000878d0ac8        0x8 arch/arm/cpu/armv7/start.o
 .rel.text.blk_print_device_num
                0x00000000878d0ad0        0x8 arch/arm/cpu/armv7/start.o
 .rel.text.blk_show_device
                0x00000000878d0ad8       0x10 arch/arm/cpu/armv7/start.o
 .rel.text.blk_create_devicef
                0x00000000878d0ae8        0x8 arch/arm/cpu/armv7/start.o
 .rel.text.blkcache_read
                0x00000000878d0af0       0x10 arch/arm/cpu/armv7/start.o
 .rel.text.blkcache_fill
                0x00000000878d0b00       0x10 arch/arm/cpu/armv7/start.o
 .rel.text.blkcache_invalidate
                0x00000000878d0b10       0x10 arch/arm/cpu/armv7/start.o
 .rel.text.blkcache_configure
                0x00000000878d0b20       0x10 arch/arm/cpu/armv7/start.o
 .rel.text.blkcache_stats
                0x00000000878d0b30        0x8 arch/arm/cpu/armv7/start.o
 .rel.text.fastboot_fail
                0x00000000878d0b38       0x10 arch/arm/cpu/armv7/start.o
 .rel.text.fastboot_okay
                0x00000000878d0b48       0x10 arch/arm/cpu/armv7/start.o
 .rel.text.fastboot_boot
                0x00000000878d0b58       0x30 arch/arm/cpu/armv7/start.o
 .rel.text.fastboot_init
                0x00000000878d0b88       0x20 arch/arm/cpu/armv7/start.o
 .rel.text.write_backup_gpt
                0x00000000878d0ba8       0x30 arch/arm/cpu/armv7/start.o
 .rel.text.process_flash_blkdev
                0x00000000878d0bd8      0x100 arch/arm/cpu/armv7/start.o
 .rel.text.fastboot_process_erase
                0x00000000878d0cd8       0x78 arch/arm/cpu/armv7/start.o
 .rel.text.fastboot_process_flash
                0x00000000878d0d50       0x18 arch/arm/cpu/armv7/start.o
 .rel.text.upload
                0x00000000878d0d68       0x30 arch/arm/cpu/armv7/start.o
 .rel.text.reboot_bootloader
                0x00000000878d0d98        0x8 arch/arm/cpu/armv7/start.o
 .rel.text.download
                0x00000000878d0da0       0x40 arch/arm/cpu/armv7/start.o
 .rel.text.run_ucmd
                0x00000000878d0de0       0x18 arch/arm/cpu/armv7/start.o
 .rel.text.run_acmd
                0x00000000878d0df8       0x18 arch/arm/cpu/armv7/start.o
 .rel.text.erase
                0x00000000878d0e10        0x8 arch/arm/cpu/armv7/start.o
 .rel.text.flash
                0x00000000878d0e18       0x18 arch/arm/cpu/armv7/start.o
 .rel.text.fastboot_run_bootmode
                0x00000000878d0e30        0x8 arch/arm/cpu/armv7/start.o
 .rel.text.fastboot_data_remaining
                0x00000000878d0e38       0x10 arch/arm/cpu/armv7/start.o
 .rel.text.fastboot_data_download
                0x00000000878d0e48       0x20 arch/arm/cpu/armv7/start.o
 .rel.text.fastboot_data_complete
                0x00000000878d0e68       0x28 arch/arm/cpu/armv7/start.o
 .rel.text.fastboot_acmd_complete
                0x00000000878d0e90        0x8 arch/arm/cpu/armv7/start.o
 .rel.text.fastboot_handle_command
                0x00000000878d0e98       0x20 arch/arm/cpu/armv7/start.o
 .rel.text.board_fastboot_setup
                0x00000000878d0eb8       0xa8 arch/arm/cpu/armv7/start.o
 .rel.text.fastboot_setup
                0x00000000878d0f60       0x38 arch/arm/cpu/armv7/start.o
 .rel.text.get_block_size
                0x00000000878d0f98       0x20 arch/arm/cpu/armv7/start.o
 .rel.text.get_single_var
                0x00000000878d0fb8      0x148 arch/arm/cpu/armv7/start.o
 .rel.text.fastboot_getvar
                0x00000000878d1100       0xc8 arch/arm/cpu/armv7/start.o
 .rel.text.bootloader_mmc_offset
                0x00000000878d11c8        0x8 arch/arm/cpu/armv7/start.o
 .rel.text.bootloader_gpt_overlay
                0x00000000878d11d0        0x8 arch/arm/cpu/armv7/start.o
 .rel.text.fastboot_flash_add_ptn
                0x00000000878d11d8       0x10 arch/arm/cpu/armv7/start.o
 .rel.text._fastboot_parts_load_from_ptable
                0x00000000878d11e8       0x90 arch/arm/cpu/armv7/start.o
 .rel.text.fastboot_load_partitions
                0x00000000878d1278        0x8 arch/arm/cpu/armv7/start.o
 .rel.text.fastboot_flash_dump_ptn
                0x00000000878d1280       0x18 arch/arm/cpu/armv7/start.o
 .rel.text.fastboot_flash_find_ptn
                0x00000000878d1298       0x10 arch/arm/cpu/armv7/start.o
 .rel.text.fastboot_parts_is_raw
                0x00000000878d12a8       0x18 arch/arm/cpu/armv7/start.o
 .rel.text.fastboot_parts_get_name
                0x00000000878d12c0       0x20 arch/arm/cpu/armv7/start.o
 .rel.text.fastboot_parts_is_slot
                0x00000000878d12e0       0x18 arch/arm/cpu/armv7/start.o
 .rel.text.finish_access
                0x00000000878d12f8        0x8 arch/arm/cpu/armv7/start.o
 .rel.text.prepare_access
                0x00000000878d1300        0x8 arch/arm/cpu/armv7/start.o
 .rel.text.fuse_read
                0x00000000878d1308        0x8 arch/arm/cpu/armv7/start.o
 .rel.text.fuse_sense
                0x00000000878d1310       0x10 arch/arm/cpu/armv7/start.o
 .rel.text.fuse_prog
                0x00000000878d1320        0x8 arch/arm/cpu/armv7/start.o
 .rel.text.fuse_override
                0x00000000878d1328        0x8 arch/arm/cpu/armv7/start.o
 .rel.text.mmc_set_capacity
                0x00000000878d1330       0x40 arch/arm/cpu/armv7/start.o
 .rel.text.mmc_power_on.isra.8
                0x00000000878d1370        0x8 arch/arm/cpu/armv7/start.o
 .rel.text.mmc_mode_name
                0x00000000878d1378       0x10 arch/arm/cpu/armv7/start.o
 .rel.text.mmc_send_status
                0x00000000878d1388       0x10 arch/arm/cpu/armv7/start.o
 .rel.text.mmc_startup_v4
                0x00000000878d1398        0x8 arch/arm/cpu/armv7/start.o
 .rel.text.unlikely.mmc_set_card_speed.constprop.16
                0x00000000878d13a0       0x30 arch/arm/cpu/armv7/start.o
 .rel.text.mmc_bread
                0x00000000878d13d0       0x10 arch/arm/cpu/armv7/start.o
 .rel.text.mmc_hwpart_config
                0x00000000878d13e0       0x48 arch/arm/cpu/armv7/start.o
 .rel.text.mmc_startup
                0x00000000878d1428       0xb0 arch/arm/cpu/armv7/start.o
 .rel.text.mmc_get_op_cond
                0x00000000878d14d8       0x18 arch/arm/cpu/armv7/start.o
 .rel.text.mmc_start_init
                0x00000000878d14f0        0x8 arch/arm/cpu/armv7/start.o
 .rel.text.mmc_initialize
                0x00000000878d14f8        0x8 arch/arm/cpu/armv7/start.o
 .rel.text.find_mmc_device
                0x00000000878d1500        0x8 arch/arm/cpu/armv7/start.o
 .rel.text.print_mmc_devices
                0x00000000878d1508       0x38 arch/arm/cpu/armv7/start.o
 .rel.text.mmc_bind
                0x00000000878d1540       0x10 arch/arm/cpu/armv7/start.o
 .rel.text.mmc_berase
                0x00000000878d1550       0x10 arch/arm/cpu/armv7/start.o
 .rel.text.mmc_bwrite
                0x00000000878d1560       0x18 arch/arm/cpu/armv7/start.o
 .rel.text.fsl_esdhc_send_cmd
                0x00000000878d1578       0x20 arch/arm/cpu/armv7/start.o
 .rel.text.fsl_esdhc_probe
                0x00000000878d1598       0x88 arch/arm/cpu/armv7/start.o
 .rel.text.video_drawchars
                0x00000000878d1620       0x80 arch/arm/cpu/armv7/start.o
 .rel.text.video_invertchar
                0x00000000878d16a0       0x10 arch/arm/cpu/armv7/start.o
 .rel.text.console_cursor_fix
                0x00000000878d16b0       0x20 arch/arm/cpu/armv7/start.o
 .rel.text.console_cursor_set_position
                0x00000000878d16d0       0x10 arch/arm/cpu/armv7/start.o
 .rel.text.console_swap_colors
                0x00000000878d16e0       0x18 arch/arm/cpu/armv7/start.o
 .rel.text.draw_bitmap
                0x00000000878d16f8       0x28 arch/arm/cpu/armv7/start.o
 .rel.text.console_clear_line
                0x00000000878d1720       0x18 arch/arm/cpu/armv7/start.o
 .rel.text.console_newline
                0x00000000878d1738       0x28 arch/arm/cpu/armv7/start.o
 .rel.text.console_cursor
                0x00000000878d1760       0x40 arch/arm/cpu/armv7/start.o
 .rel.text.video_set_cursor
                0x00000000878d17a0        0x8 arch/arm/cpu/armv7/start.o
 .rel.text.parse_putc
                0x00000000878d17a8       0x68 arch/arm/cpu/armv7/start.o
 .rel.text.cfb_video_putc
                0x00000000878d1810       0x98 arch/arm/cpu/armv7/start.o
 .rel.text.cfb_video_puts
                0x00000000878d18a8       0x10 arch/arm/cpu/armv7/start.o
 .rel.text.display_rle8_bitmap
                0x00000000878d18b8       0x48 arch/arm/cpu/armv7/start.o
 .rel.text.plot_logo_or_black
                0x00000000878d1900       0x50 arch/arm/cpu/armv7/start.o
 .rel.text.do_clrlogo
                0x00000000878d1950       0x18 arch/arm/cpu/armv7/start.o
 .rel.text.video_display_bitmap
                0x00000000878d1968       0x98 arch/arm/cpu/armv7/start.o
 .rel.text.video_clear
                0x00000000878d1a00       0x18 arch/arm/cpu/armv7/start.o
 .rel.text.drv_video_init
                0x00000000878d1a18       0xc0 arch/arm/cpu/armv7/start.o
 .rel.text.mxs_lcd_panel_setup
                0x00000000878d1ad8       0x20 arch/arm/cpu/armv7/start.o
 .rel.text.lcdif_power_down
                0x00000000878d1af8        0x8 arch/arm/cpu/armv7/start.o
 .rel.text.video_hw_init
                0x00000000878d1b00       0x78 arch/arm/cpu/armv7/start.o
 .rel.text.video_get_params
                0x00000000878d1b78       0x88 arch/arm/cpu/armv7/start.o
 .rel.text.imx_thermal_get_temp
                0x00000000878d1c00       0x10 arch/arm/cpu/armv7/start.o
 .rel.rodata.root_info
                0x00000000878d1c10        0x8 arch/arm/cpu/armv7/start.o
 .rel.rodata.generic_simple_bus_ids
                0x00000000878d1c18       0x10 arch/arm/cpu/armv7/start.o
 .rel.rodata.imx_pinctrl_ops
                0x00000000878d1c28        0x8 arch/arm/cpu/armv7/start.o
 .rel.rodata.imx6_pinctrl_match
                0x00000000878d1c30       0x80 arch/arm/cpu/armv7/start.o
 .rel.rodata.if_typename_str
                0x00000000878d1cb0       0x60 arch/arm/cpu/armv7/start.o
 .rel.rodata.bootm_args.8160
                0x00000000878d1d10       0x10 arch/arm/cpu/armv7/start.o
 .rel.rodata.commands
                0x00000000878d1d20       0xc0 arch/arm/cpu/armv7/start.o
 .rel.rodata.names.10755
                0x00000000878d1de0       0x70 arch/arm/cpu/armv7/start.o
 .rel.rodata.mmc_blk_ops
                0x00000000878d1e50       0x20 arch/arm/cpu/armv7/start.o
 .rel.rodata.fsl_esdhc_ids
                0x00000000878d1e70       0x58 arch/arm/cpu/armv7/start.o
 .rel.rodata.fsl_esdhc_ops
                0x00000000878d1ec8       0x18 arch/arm/cpu/armv7/start.o
 .rel.rodata.imx_thermal_ops
                0x00000000878d1ee0        0x8 arch/arm/cpu/armv7/start.o
 .rel.u_boot_list_2_driver_2_root_driver
                0x00000000878d1ee8        0x8 arch/arm/cpu/armv7/start.o
 .rel.u_boot_list_2_uclass_2_root
                0x00000000878d1ef0        0x8 arch/arm/cpu/armv7/start.o
 .rel.u_boot_list_2_uclass_2_simple_bus
                0x00000000878d1ef8       0x10 arch/arm/cpu/armv7/start.o
 .rel.u_boot_list_2_driver_2_simple_bus_drv
                0x00000000878d1f08       0x10 arch/arm/cpu/armv7/start.o
 .rel.u_boot_list_2_uclass_2_pinconfig
                0x00000000878d1f18       0x10 arch/arm/cpu/armv7/start.o
 .rel.u_boot_list_2_driver_2_pinconfig_generic
                0x00000000878d1f28        0x8 arch/arm/cpu/armv7/start.o
 .rel.u_boot_list_2_uclass_2_pinctrl
                0x00000000878d1f30       0x10 arch/arm/cpu/armv7/start.o
 .rel.u_boot_list_2_driver_2_imx6_pinctrl
                0x00000000878d1f40       0x28 arch/arm/cpu/armv7/start.o
 .rel.u_boot_list_2_uclass_2_blk
                0x00000000878d1f68       0x10 arch/arm/cpu/armv7/start.o
 .rel.data.block_cache
                0x00000000878d1f78       0x10 arch/arm/cpu/armv7/start.o
 .rel.data.fastboot_common_var
                0x00000000878d1f88       0x68 arch/arm/cpu/armv7/start.o
 .rel.u_boot_list_2_driver_2_mmc
                0x00000000878d1ff0        0x8 arch/arm/cpu/armv7/start.o
 .rel.u_boot_list_2_uclass_2_mmc
                0x00000000878d1ff8        0x8 arch/arm/cpu/armv7/start.o
 .rel.u_boot_list_2_driver_2_mmc_blk
                0x00000000878d2000       0x18 arch/arm/cpu/armv7/start.o
 .rel.u_boot_list_2_driver_2_fsl_esdhc
                0x00000000878d2018       0x28 arch/arm/cpu/armv7/start.o
 .rel.u_boot_list_2_cmd_2_clrlogo
                0x00000000878d2040       0x28 arch/arm/cpu/armv7/start.o
 .rel.u_boot_list_2_uclass_2_thermal
                0x00000000878d2068        0x8 arch/arm/cpu/armv7/start.o
 .rel.u_boot_list_2_driver_2_imx_thermal
                0x00000000878d2070       0x18 arch/arm/cpu/armv7/start.o
 .rel.text.mxs_dma_validate_chan
                0x00000000878d2088        0x8 arch/arm/cpu/armv7/start.o
 .rel.text.mxs_dma_release
                0x00000000878d2090        0x8 arch/arm/cpu/armv7/start.o
 .rel.text.mxs_dma_desc_append
                0x00000000878d2098        0x8 arch/arm/cpu/armv7/start.o
 .rel.text.mxs_dma_go
                0x00000000878d20a0        0x8 arch/arm/cpu/armv7/start.o
 .rel.text.mxs_dma_init
                0x00000000878d20a8        0x8 arch/arm/cpu/armv7/start.o
 .rel.text.mxs_dma_init_channel
                0x00000000878d20b0       0x10 arch/arm/cpu/armv7/start.o
 .rel.text.check_reserved
                0x00000000878d20c0       0x10 arch/arm/cpu/armv7/start.o
 .rel.text.dm_gpio_lookup_name
                0x00000000878d20d0        0x8 arch/arm/cpu/armv7/start.o
 .rel.text.gpio_direction_input
                0x00000000878d20d8        0x8 arch/arm/cpu/armv7/start.o
 .rel.text.gpio_direction_output
                0x00000000878d20e0        0x8 arch/arm/cpu/armv7/start.o
 .rel.text.dm_gpio_get_value
                0x00000000878d20e8        0x8 arch/arm/cpu/armv7/start.o
 .rel.text.dm_gpio_set_value
                0x00000000878d20f0        0x8 arch/arm/cpu/armv7/start.o
 .rel.text.dm_gpio_set_dir_flags
                0x00000000878d20f8        0x8 arch/arm/cpu/armv7/start.o
 .rel.text.gpio_request_tail
                0x00000000878d2100       0x10 arch/arm/cpu/armv7/start.o
 .rel.text.gpio_get_status
                0x00000000878d2110       0x28 arch/arm/cpu/armv7/start.o
 .rel.text.gpio_request_by_name_nodev
                0x00000000878d2138        0x8 arch/arm/cpu/armv7/start.o
 .rel.text.gpio_request_by_name
                0x00000000878d2140        0x8 arch/arm/cpu/armv7/start.o
 .rel.text.gpio_request_list_by_name_nodev
                0x00000000878d2148        0x8 arch/arm/cpu/armv7/start.o
 .rel.text.gen_74x164_probe
                0x00000000878d2150       0x20 arch/arm/cpu/armv7/start.o
 .rel.text.mxc_gpio_probe
                0x00000000878d2170        0x8 arch/arm/cpu/armv7/start.o
 .rel.rodata.gpio_function
                0x00000000878d2178       0x28 arch/arm/cpu/armv7/start.o
 .rel.rodata.gen_74x164_ops
                0x00000000878d21a0       0x30 arch/arm/cpu/armv7/start.o
 .rel.rodata.gen_74x164_ids
                0x00000000878d21d0        0x8 arch/arm/cpu/armv7/start.o
 .rel.rodata.mxc_gpio_ids
                0x00000000878d21d8        0x8 arch/arm/cpu/armv7/start.o
 .rel.rodata.gpio_mxc_ops
                0x00000000878d21e0       0x28 arch/arm/cpu/armv7/start.o
 .rel.u_boot_list_2_uclass_2_gpio
                0x00000000878d2208       0x20 arch/arm/cpu/armv7/start.o
 .rel.u_boot_list_2_driver_2_74x164
                0x00000000878d2228       0x20 arch/arm/cpu/armv7/start.o
 .rel.u_boot_list_2_driver_2_gpio_mxc
                0x00000000878d2248       0x28 arch/arm/cpu/armv7/start.o
 .rel.text.i2c_uclass_init
                0x00000000878d2270        0x8 arch/arm/cpu/armv7/start.o
 .rel.text.i2c_get_chip
                0x00000000878d2278       0x10 arch/arm/cpu/armv7/start.o
 .rel.text.i2c_post_probe
                0x00000000878d2288        0x8 arch/arm/cpu/armv7/start.o
 .rel.text.i2c_deblock
                0x00000000878d2290       0x18 arch/arm/cpu/armv7/start.o
 .rel.text.i2c_chip_ofdata_to_platdata
                0x00000000878d22a8       0x10 arch/arm/cpu/armv7/start.o
 .rel.text.wait_for_sr_state
                0x00000000878d22b8       0x18 arch/arm/cpu/armv7/start.o
 .rel.text.mxc_i2c_probe
                0x00000000878d22d0       0x30 arch/arm/cpu/armv7/start.o
 .rel.text.i2c_imx_stop
                0x00000000878d2300       0x10 arch/arm/cpu/armv7/start.o
 .rel.text.mxc_i2c_set_bus_speed
                0x00000000878d2310        0x8 arch/arm/cpu/armv7/start.o
 .rel.text.i2c_idle_bus
                0x00000000878d2318       0x20 arch/arm/cpu/armv7/start.o
 .rel.text.i2c_init_transfer.constprop.5
                0x00000000878d2338       0x18 arch/arm/cpu/armv7/start.o
 .rel.rodata.mxc_i2c_ids
                0x00000000878d2350       0x10 arch/arm/cpu/armv7/start.o
 .rel.rodata.mxc_i2c_ops
                0x00000000878d2360       0x18 arch/arm/cpu/armv7/start.o
 .rel.u_boot_list_2_driver_2_i2c_generic_chip_drv
                0x00000000878d2378        0x8 arch/arm/cpu/armv7/start.o
 .rel.u_boot_list_2_uclass_2_i2c
                0x00000000878d2380       0x28 arch/arm/cpu/armv7/start.o
 .rel.u_boot_list_2_uclass_2_i2c_generic
                0x00000000878d23a8        0x8 arch/arm/cpu/armv7/start.o
 .rel.u_boot_list_2_driver_2_i2c_mxc
                0x00000000878d23b0       0x20 arch/arm/cpu/armv7/start.o
 .rel.text.__mtd_next_device
                0x00000000878d23d0        0x8 arch/arm/cpu/armv7/start.o
 .rel.text.mtd_dev_list_updated
                0x00000000878d23d8        0x8 arch/arm/cpu/armv7/start.o
 .rel.text.del_mtd_device
                0x00000000878d23e0       0x10 arch/arm/cpu/armv7/start.o
 .rel.text.get_mtd_device
                0x00000000878d23f0        0x8 arch/arm/cpu/armv7/start.o
 .rel.text.__put_mtd_device
                0x00000000878d23f8       0x20 arch/arm/cpu/armv7/start.o
 .rel.text.add_mtd_device
                0x00000000878d2418       0x30 arch/arm/cpu/armv7/start.o
 .rel.text.get_mtdids
                0x00000000878d2448       0x10 arch/arm/cpu/armv7/start.o
 .rel.text.mtd_probe_devices
                0x00000000878d2458       0x68 arch/arm/cpu/armv7/start.o
 .rel.text.mtd_arg_off
                0x00000000878d24c0       0x10 arch/arm/cpu/armv7/start.o
 .rel.text.mtd_arg_off_size
                0x00000000878d24d0       0x28 arch/arm/cpu/armv7/start.o
 .rel.text.mtd_parse_partition
                0x00000000878d24f8       0x38 arch/arm/cpu/armv7/start.o
 .rel.text.mtd_parse_partitions
                0x00000000878d2530       0x10 arch/arm/cpu/armv7/start.o
 .rel.text.mtd_erase_callback
                0x00000000878d2540        0x8 arch/arm/cpu/armv7/start.o
 .rel.text.del_mtd_partitions
                0x00000000878d2548        0x8 arch/arm/cpu/armv7/start.o
 .rel.text.add_mtd_partitions
                0x00000000878d2550       0xe0 arch/arm/cpu/armv7/start.o
 .rel.u_boot_list_2_uclass_2_mtd
                0x00000000878d2630        0x8 arch/arm/cpu/armv7/start.o
 .rel.text.get_nand_dev_by_index
                0x00000000878d2638        0x8 arch/arm/cpu/armv7/start.o
 .rel.text.nand_register
                0x00000000878d2640       0x28 arch/arm/cpu/armv7/start.o
 .rel.text.nand_size
                0x00000000878d2668        0x8 arch/arm/cpu/armv7/start.o
 .rel.text.nand_init
                0x00000000878d2670        0x8 arch/arm/cpu/armv7/start.o
 .rel.text.verify_bbt_descr
                0x00000000878d2678       0x20 arch/arm/cpu/armv7/start.o
 .rel.text.create_bbt
                0x00000000878d2698       0x20 arch/arm/cpu/armv7/start.o
 .rel.text.write_bbt
                0x00000000878d26b8       0x48 arch/arm/cpu/armv7/start.o
 .rel.text.nand_default_bbt
                0x00000000878d2700       0x30 arch/arm/cpu/armv7/start.o
 .rel.text.nand_erase_opts
                0x00000000878d2730       0x48 arch/arm/cpu/armv7/start.o
 .rel.text.nand_write_skip_bad
                0x00000000878d2778       0x28 arch/arm/cpu/armv7/start.o
 .rel.text.nand_read_skip_bad
                0x00000000878d27a0       0x28 arch/arm/cpu/armv7/start.o
 .rel.text.nand_calculate_ecc
                0x00000000878d27c8        0x8 arch/arm/cpu/armv7/start.o
 .rel.text.nand_set_defaults
                0x00000000878d27d0       0x88 arch/arm/cpu/armv7/start.o
 .rel.text.nand_wait
                0x00000000878d2858       0x18 arch/arm/cpu/armv7/start.o
 .rel.text.nand_fill_oob
                0x00000000878d2870       0x20 arch/arm/cpu/armv7/start.o
 .rel.text.nand_select_chip
                0x00000000878d2890       0x20 arch/arm/cpu/armv7/start.o
 .rel.text.nand_transfer_oob
                0x00000000878d28b0       0x20 arch/arm/cpu/armv7/start.o
 .rel.text.nand_reset
                0x00000000878d28d0        0x8 arch/arm/cpu/armv7/start.o
 .rel.text.check_mmc_num
                0x00000000878d28d8        0x8 arch/arm/cpu/armv7/start.o
 .rel.text.nand_get_flash_type
                0x00000000878d28e0       0xc8 arch/arm/cpu/armv7/start.o
 .rel.text.nand_scan_ident
                0x00000000878d29a8       0x68 arch/arm/cpu/armv7/start.o
 .rel.text.nand_scan_tail
                0x00000000878d2a10      0x138 arch/arm/cpu/armv7/start.o
 .rel.text.onfi_init_data_interface
                0x00000000878d2b48        0x8 arch/arm/cpu/armv7/start.o
 .rel.text.nand_get_default_data_interface
                0x00000000878d2b50        0x8 arch/arm/cpu/armv7/start.o
 .rel.text.mxs_nand_get_dma_desc
                0x00000000878d2b58        0x8 arch/arm/cpu/armv7/start.o
 .rel.text.mxs_nand_ecc_write_oob
                0x00000000878d2b60        0x8 arch/arm/cpu/armv7/start.o
 .rel.text.mxs_nand_read_buf
                0x00000000878d2b68       0x18 arch/arm/cpu/armv7/start.o
 .rel.text.mxs_nand_init_dma
                0x00000000878d2b80       0x10 arch/arm/cpu/armv7/start.o
 .rel.text.mxs_nand_ecc_read_page
                0x00000000878d2b90       0x18 arch/arm/cpu/armv7/start.o
 .rel.text.mxs_nand_cmd_ctrl
                0x00000000878d2ba8       0x10 arch/arm/cpu/armv7/start.o
 .rel.text.mxs_nand_write_buf
                0x00000000878d2bb8       0x18 arch/arm/cpu/armv7/start.o
 .rel.text.mxs_nand_ecc_write_page
                0x00000000878d2bd0       0x10 arch/arm/cpu/armv7/start.o
 .rel.text.mxs_nand_setup_ecc
                0x00000000878d2be0       0x30 arch/arm/cpu/armv7/start.o
 .rel.text.mxs_nand_alloc_buffers
                0x00000000878d2c10       0x10 arch/arm/cpu/armv7/start.o
 .rel.text.mxs_nand_init_ctrl
                0x00000000878d2c20       0x60 arch/arm/cpu/armv7/start.o
 .rel.text.mxs_nand_dt_probe
                0x00000000878d2c80       0x20 arch/arm/cpu/armv7/start.o
 .rel.text.board_nand_init
                0x00000000878d2ca0       0x10 arch/arm/cpu/armv7/start.o
 .rel.rodata.mxs_nand_dt_ids
                0x00000000878d2cb0       0x40 arch/arm/cpu/armv7/start.o
 .rel.data.bbt_mirror_descr
                0x00000000878d2cf0        0x8 arch/arm/cpu/armv7/start.o
 .rel.data.bbt_main_no_oob_descr
                0x00000000878d2cf8        0x8 arch/arm/cpu/armv7/start.o
 .rel.data.bbt_mirror_no_oob_descr
                0x00000000878d2d00        0x8 arch/arm/cpu/armv7/start.o
 .rel.data.bbt_main_descr
                0x00000000878d2d08        0x8 arch/arm/cpu/armv7/start.o
 .rel.data.nand_flash_ids
                0x00000000878d2d10      0x2b0 arch/arm/cpu/armv7/start.o
 .rel.u_boot_list_2_driver_2_mxs_nand_dt
                0x00000000878d2fc0       0x18 arch/arm/cpu/armv7/start.o
 .rel.text.spi_flash_probe_bus_cs
                0x00000000878d2fd8       0x10 arch/arm/cpu/armv7/start.o
 .rel.text.spi_flash_std_erase
                0x00000000878d2fe8        0x8 arch/arm/cpu/armv7/start.o
 .rel.text.spi_flash_std_probe
                0x00000000878d2ff0        0x8 arch/arm/cpu/armv7/start.o
 .rel.text.spi_nor_wait_till_ready_with_timeout.constprop.8
                0x00000000878d2ff8        0x8 arch/arm/cpu/armv7/start.o
 .rel.text.spi_nor_scan
                0x00000000878d3000       0xa0 arch/arm/cpu/armv7/start.o
 .rel.rodata.spi_flash_std_ops
                0x00000000878d30a0       0x20 arch/arm/cpu/armv7/start.o
 .rel.rodata.spi_flash_std_ids
                0x00000000878d30c0       0x10 arch/arm/cpu/armv7/start.o
 .rel.rodata.spi_nor_ids
                0x00000000878d30d0       0xd0 arch/arm/cpu/armv7/start.o
 .rel.u_boot_list_2_uclass_2_spi_nor
                0x00000000878d31a0       0x10 arch/arm/cpu/armv7/start.o
 .rel.u_boot_list_2_driver_2_spi_flash_std
                0x00000000878d31b0       0x28 arch/arm/cpu/armv7/start.o
 .rel.text.add_to_list
                0x00000000878d31d8       0x20 arch/arm/cpu/armv7/start.o
 .rel.text.validate_vid_hdr.isra.6
                0x00000000878d31f8       0x30 arch/arm/cpu/armv7/start.o
 .rel.text.ubi_compare_lebs
                0x00000000878d3228       0x18 arch/arm/cpu/armv7/start.o
 .rel.text.ubi_add_to_av
                0x00000000878d3240       0x10 arch/arm/cpu/armv7/start.o
 .rel.text.ubi_early_get_peb
                0x00000000878d3250       0x20 arch/arm/cpu/armv7/start.o
 .rel.text.ubi_attach
                0x00000000878d3270      0x240 arch/arm/cpu/armv7/start.o
 .rel.text.ubi_get_device
                0x00000000878d34b0       0x20 arch/arm/cpu/armv7/start.o
 .rel.text.ubi_attach_mtd_dev
                0x00000000878d34d0      0x110 arch/arm/cpu/armv7/start.o
 .rel.text.ubi_detach_mtd_dev
                0x00000000878d35e0       0x38 arch/arm/cpu/armv7/start.o
 .rel.text.ubi_init
                0x00000000878d3618       0x40 arch/arm/cpu/armv7/start.o
 .rel.text.ubi_exit
                0x00000000878d3658       0x18 arch/arm/cpu/armv7/start.o
 .rel.text.ubi_mtd_param_parse
                0x00000000878d3670       0x48 arch/arm/cpu/armv7/start.o
 .rel.text.vtbl_check
                0x00000000878d36b8       0x38 arch/arm/cpu/armv7/start.o
 .rel.text.ubi_change_vtbl_record
                0x00000000878d36f0       0x48 arch/arm/cpu/armv7/start.o
 .rel.text.ubi_read_volume_table
                0x00000000878d3738       0xa0 arch/arm/cpu/armv7/start.o
 .rel.text.self_check_volumes
                0x00000000878d37d8       0x90 arch/arm/cpu/armv7/start.o
 .rel.text.ubi_create_volume
                0x00000000878d3868       0x40 arch/arm/cpu/armv7/start.o
 .rel.text.ubi_resize_volume
                0x00000000878d38a8       0x20 arch/arm/cpu/armv7/start.o
 .rel.text.ubi_add_volume
                0x00000000878d38c8        0x8 arch/arm/cpu/armv7/start.o
 .rel.text.clear_update_marker
                0x00000000878d38d0       0x18 arch/arm/cpu/armv7/start.o
 .rel.text.ubi_start_update
                0x00000000878d38e8       0x20 arch/arm/cpu/armv7/start.o
 .rel.text.ubi_more_update_data
                0x00000000878d3908       0x18 arch/arm/cpu/armv7/start.o
 .rel.text.ubi_close_volume
                0x00000000878d3920       0x20 arch/arm/cpu/armv7/start.o
 .rel.text.ubi_open_volume
                0x00000000878d3940       0x10 arch/arm/cpu/armv7/start.o
 .rel.text.ltree_add_entry
                0x00000000878d3950       0x18 arch/arm/cpu/armv7/start.o
 .rel.text.leb_write_unlock
                0x00000000878d3968       0x18 arch/arm/cpu/armv7/start.o
 .rel.text.leb_read_unlock
                0x00000000878d3980       0x18 arch/arm/cpu/armv7/start.o
 .rel.text.ubi_eba_read_leb
                0x00000000878d3998       0x28 arch/arm/cpu/armv7/start.o
 .rel.text.ubi_eba_write_leb
                0x00000000878d39c0       0x38 arch/arm/cpu/armv7/start.o
 .rel.text.ubi_eba_write_leb_st
                0x00000000878d39f8       0x20 arch/arm/cpu/armv7/start.o
 .rel.text.ubi_eba_atomic_leb_change
                0x00000000878d3a18        0x8 arch/arm/cpu/armv7/start.o
 .rel.text.ubi_eba_copy_leb
                0x00000000878d3a20       0x18 arch/arm/cpu/armv7/start.o
 .rel.text.ubi_eba_init
                0x00000000878d3a38       0x18 arch/arm/cpu/armv7/start.o
 .rel.text.validate_ec_hdr
                0x00000000878d3a50       0x30 arch/arm/cpu/armv7/start.o
 .rel.text.validate_vid_hdr
                0x00000000878d3a80       0x80 arch/arm/cpu/armv7/start.o
 .rel.text.self_check_ec_hdr.part.1
                0x00000000878d3b00       0x18 arch/arm/cpu/armv7/start.o
 .rel.text.self_check_vid_hdr.part.2
                0x00000000878d3b18       0x18 arch/arm/cpu/armv7/start.o
 .rel.text.ubi_io_is_bad
                0x00000000878d3b30       0x20 arch/arm/cpu/armv7/start.o
 .rel.text.self_check_not_bad.part.3
                0x00000000878d3b50       0x10 arch/arm/cpu/armv7/start.o
 .rel.text.ubi_io_read
                0x00000000878d3b60       0x38 arch/arm/cpu/armv7/start.o
 .rel.text.self_check_peb_ec_hdr.part.4
                0x00000000878d3b98       0x18 arch/arm/cpu/armv7/start.o
 .rel.text.ubi_io_mark_bad
                0x00000000878d3bb0       0x28 arch/arm/cpu/armv7/start.o
 .rel.text.ubi_io_read_ec_hdr
                0x00000000878d3bd8       0x20 arch/arm/cpu/armv7/start.o
 .rel.text.ubi_io_read_vid_hdr
                0x00000000878d3bf8       0x20 arch/arm/cpu/armv7/start.o
 .rel.text.ubi_self_check_all_ff
                0x00000000878d3c18       0x38 arch/arm/cpu/armv7/start.o
 .rel.text.ubi_io_write
                0x00000000878d3c50       0x80 arch/arm/cpu/armv7/start.o
 .rel.text.ubi_io_write_ec_hdr
                0x00000000878d3cd0       0x18 arch/arm/cpu/armv7/start.o
 .rel.text.ubi_io_write_vid_hdr
                0x00000000878d3ce8       0x18 arch/arm/cpu/armv7/start.o
 .rel.text.do_sync_erase
                0x00000000878d3d00       0x40 arch/arm/cpu/armv7/start.o
 .rel.text.ubi_io_sync_erase
                0x00000000878d3d40       0x68 arch/arm/cpu/armv7/start.o
 .rel.text.prot_queue_del
                0x00000000878d3da8       0x10 arch/arm/cpu/armv7/start.o
 .rel.text.do_work
                0x00000000878d3db8       0x20 arch/arm/cpu/armv7/start.o
 .rel.text.prot_queue_add
                0x00000000878d3dd8       0x18 arch/arm/cpu/armv7/start.o
 .rel.text.__schedule_ubi_work
                0x00000000878d3df0       0x18 arch/arm/cpu/armv7/start.o
 .rel.text.shutdown_work
                0x00000000878d3e08       0x18 arch/arm/cpu/armv7/start.o
 .rel.text.wl_tree_add
                0x00000000878d3e20       0x18 arch/arm/cpu/armv7/start.o
 .rel.text.in_wl_tree
                0x00000000878d3e38       0x18 arch/arm/cpu/armv7/start.o
 .rel.text.self_check_in_wl_tree
                0x00000000878d3e50       0x10 arch/arm/cpu/armv7/start.o
 .rel.text.get_peb_for_wl
                0x00000000878d3e60       0x18 arch/arm/cpu/armv7/start.o
 .rel.text.ubi_do_worker
                0x00000000878d3e78       0x10 arch/arm/cpu/armv7/start.o
 .rel.text.schedule_erase
                0x00000000878d3e88       0x20 arch/arm/cpu/armv7/start.o
 .rel.text.ensure_wear_leveling
                0x00000000878d3ea8        0x8 arch/arm/cpu/armv7/start.o
 .rel.text.erase_worker
                0x00000000878d3eb0       0x70 arch/arm/cpu/armv7/start.o
 .rel.text.wear_leveling_worker
                0x00000000878d3f20       0x40 arch/arm/cpu/armv7/start.o
 .rel.text.ubi_wl_put_peb
                0x00000000878d3f60       0x20 arch/arm/cpu/armv7/start.o
 .rel.text.ubi_wl_scrub_peb
                0x00000000878d3f80       0x18 arch/arm/cpu/armv7/start.o
 .rel.text.ubi_wl_flush
                0x00000000878d3f98       0x18 arch/arm/cpu/armv7/start.o
 .rel.text.ubi_wl_init
                0x00000000878d3fb0       0x38 arch/arm/cpu/armv7/start.o
 .rel.text.ubi_wl_get_peb
                0x00000000878d3fe8       0x30 arch/arm/cpu/armv7/start.o
 .rel.text.crc32_le
                0x00000000878d4018        0x8 arch/arm/cpu/armv7/start.o
 .rel.text.ubi_calc_data_len
                0x00000000878d4020       0x18 arch/arm/cpu/armv7/start.o
 .rel.text.ubi_update_reserved
                0x00000000878d4038        0x8 arch/arm/cpu/armv7/start.o
 .rel.text.ubi_dump_flash
                0x00000000878d4040       0x20 arch/arm/cpu/armv7/start.o
 .rel.text.ubi_dump_ec_hdr
                0x00000000878d4060       0x50 arch/arm/cpu/armv7/start.o
 .rel.text.ubi_dump_vid_hdr
                0x00000000878d40b0       0x78 arch/arm/cpu/armv7/start.o
 .rel.text.ubi_dump_vol_info
                0x00000000878d4128       0x78 arch/arm/cpu/armv7/start.o
 .rel.text.ubi_dump_vtbl_record
                0x00000000878d41a0       0x58 arch/arm/cpu/armv7/start.o
 .rel.text.ubi_dump_av
                0x00000000878d41f8       0x48 arch/arm/cpu/armv7/start.o
 .rel.text.ubi_dump_aeb
                0x00000000878d4240       0x30 arch/arm/cpu/armv7/start.o
 .rel.text.fec_phy_write
                0x00000000878d4270        0x8 arch/arm/cpu/armv7/start.o
 .rel.text.fec_phy_read
                0x00000000878d4278        0x8 arch/arm/cpu/armv7/start.o
 .rel.text.fecmxc_ofdata_to_platdata
                0x00000000878d4280       0x38 arch/arm/cpu/armv7/start.o
 .rel.text.fecmxc_send
                0x00000000878d42b8        0x8 arch/arm/cpu/armv7/start.o
 .rel.text.fec_mii_setspeed.isra.8
                0x00000000878d42c0        0x8 arch/arm/cpu/armv7/start.o
 .rel.text.fecmxc_init
                0x00000000878d42c8        0x8 arch/arm/cpu/armv7/start.o
 .rel.text.fecmxc_recv
                0x00000000878d42d0       0x18 arch/arm/cpu/armv7/start.o
 .rel.text.fec_get_miibus
                0x00000000878d42e8       0x30 arch/arm/cpu/armv7/start.o
 .rel.text.fecmxc_probe
                0x00000000878d4318       0x98 arch/arm/cpu/armv7/start.o
 .rel.rodata.fecmxc_ops
                0x00000000878d43b0       0x38 arch/arm/cpu/armv7/start.o
 .rel.rodata.fecmxc_ids
                0x00000000878d43e8       0x38 arch/arm/cpu/armv7/start.o
 .rel.u_boot_list_2_driver_2_fecmxc_gem
                0x00000000878d4420       0x30 arch/arm/cpu/armv7/start.o
 .rel.text.genphy_update_link
                0x00000000878d4450       0x28 arch/arm/cpu/armv7/start.o
 .rel.text.phy_register
                0x00000000878d4478        0x8 arch/arm/cpu/armv7/start.o
 .rel.text.get_phy_device_by_mask
                0x00000000878d4480       0x18 arch/arm/cpu/armv7/start.o
 .rel.text.phy_reset
                0x00000000878d4498        0x8 arch/arm/cpu/armv7/start.o
 .rel.text.phy_connect_dev
                0x00000000878d44a0        0x8 arch/arm/cpu/armv7/start.o
 .rel.text.phy_connect
                0x00000000878d44a8        0x8 arch/arm/cpu/armv7/start.o
 .rel.text.phy_get_interface_by_name
                0x00000000878d44b0        0x8 arch/arm/cpu/armv7/start.o
 .rel.text.phy_micrel_ksz8xxx_init
                0x00000000878d44b8       0x38 arch/arm/cpu/armv7/start.o
 .rel.rodata.phy_interface_strings
                0x00000000878d44f0       0xb0 arch/arm/cpu/armv7/start.o
 .rel.data.genphy_driver
                0x00000000878d45a0       0x20 arch/arm/cpu/armv7/start.o
 .rel.data.phy_drivers
                0x00000000878d45c0       0x10 arch/arm/cpu/armv7/start.o
 .rel.data.ksz8895_driver
                0x00000000878d45d0       0x20 arch/arm/cpu/armv7/start.o
 .rel.data.KSZ8081_driver
                0x00000000878d45f0       0x20 arch/arm/cpu/armv7/start.o
 .rel.data.KSZ804_driver
                0x00000000878d4610       0x20 arch/arm/cpu/armv7/start.o
 .rel.data.ksz886x_driver
                0x00000000878d4630       0x20 arch/arm/cpu/armv7/start.o
 .rel.data.KSZ8051_driver
                0x00000000878d4650       0x20 arch/arm/cpu/armv7/start.o
 .rel.data.KSZ8031_driver
                0x00000000878d4670       0x20 arch/arm/cpu/armv7/start.o
 .rel.data.KS8721_driver
                0x00000000878d4690       0x20 arch/arm/cpu/armv7/start.o
 .rel.text.regulator_pre_probe
                0x00000000878d46b0       0x38 arch/arm/cpu/armv7/start.o
 .rel.text.regulator_post_bind
                0x00000000878d46e8        0x8 arch/arm/cpu/armv7/start.o
 .rel.text.fixed_regulator_set_enable
                0x00000000878d46f0        0x8 arch/arm/cpu/armv7/start.o
 .rel.text.fixed_regulator_ofdata_to_platdata
                0x00000000878d46f8       0x20 arch/arm/cpu/armv7/start.o
 .rel.text.gpio_regulator_set_value
                0x00000000878d4718        0x8 arch/arm/cpu/armv7/start.o
 .rel.text.gpio_regulator_ofdata_to_platdata
                0x00000000878d4720       0x10 arch/arm/cpu/armv7/start.o
 .rel.rodata.fixed_regulator_ops
                0x00000000878d4730       0x20 arch/arm/cpu/armv7/start.o
 .rel.rodata.fixed_regulator_ids
                0x00000000878d4750        0x8 arch/arm/cpu/armv7/start.o
 .rel.rodata.gpio_regulator_ops
                0x00000000878d4758       0x10 arch/arm/cpu/armv7/start.o
 .rel.rodata.gpio_regulator_ids
                0x00000000878d4768        0x8 arch/arm/cpu/armv7/start.o
 .rel.u_boot_list_2_uclass_2_regulator
                0x00000000878d4770       0x18 arch/arm/cpu/armv7/start.o
 .rel.u_boot_list_2_driver_2_fixed_regulator
                0x00000000878d4788       0x20 arch/arm/cpu/armv7/start.o
 .rel.u_boot_list_2_driver_2_gpio_regulator
                0x00000000878d47a8       0x20 arch/arm/cpu/armv7/start.o
 .rel.text.get_current
                0x00000000878d47c8       0x10 arch/arm/cpu/armv7/start.o
 .rel.text.serial_register
                0x00000000878d47d8        0x8 arch/arm/cpu/armv7/start.o
 .rel.text.serial_stdio_init
                0x00000000878d47e0       0x38 arch/arm/cpu/armv7/start.o
 .rel.text.serial_assign
                0x00000000878d4818       0x10 arch/arm/cpu/armv7/start.o
 .rel.text.on_baudrate
                0x00000000878d4828       0x18 arch/arm/cpu/armv7/start.o
 .rel.text.mxc_serial_initialize
                0x00000000878d4840        0x8 arch/arm/cpu/armv7/start.o
 .rel.text.default_serial_console
                0x00000000878d4848        0x8 arch/arm/cpu/armv7/start.o
 .rel.u_boot_list_2_env_clbk_2_baudrate
                0x00000000878d4850       0x10 arch/arm/cpu/armv7/start.o
 .rel.data.mxc_serial_drv
                0x00000000878d4860       0x30 arch/arm/cpu/armv7/start.o
 .rel.text.spi_set_speed_mode
                0x00000000878d4890       0x10 arch/arm/cpu/armv7/start.o
 .rel.text.spi_post_probe
                0x00000000878d48a0        0x8 arch/arm/cpu/armv7/start.o
 .rel.text.spi_get_bus_and_cs
                0x00000000878d48a8       0x18 arch/arm/cpu/armv7/start.o
 .rel.text.spi_slave_ofdata_to_platdata
                0x00000000878d48c0       0x58 arch/arm/cpu/armv7/start.o
 .rel.text.soft_spi_ofdata_to_platdata
                0x00000000878d4918        0x8 arch/arm/cpu/armv7/start.o
 .rel.text.soft_spi_probe
                0x00000000878d4920       0x20 arch/arm/cpu/armv7/start.o
 .rel.text.fsl_qspi_ofdata_to_platdata
                0x00000000878d4940       0x38 arch/arm/cpu/armv7/start.o
 .rel.text.qspi_xfer
                0x00000000878d4978        0x8 arch/arm/cpu/armv7/start.o
 .rel.text.fsl_qspi_probe
                0x00000000878d4980        0x8 arch/arm/cpu/armv7/start.o
 .rel.rodata.soft_spi_ops
                0x00000000878d4988       0x28 arch/arm/cpu/armv7/start.o
 .rel.rodata.soft_spi_ids
                0x00000000878d49b0        0x8 arch/arm/cpu/armv7/start.o
 .rel.rodata.fsl_qspi_ids
                0x00000000878d49b8       0x28 arch/arm/cpu/armv7/start.o
 .rel.rodata.fsl_qspi_ops
                0x00000000878d49e0       0x28 arch/arm/cpu/armv7/start.o
 .rel.u_boot_list_2_uclass_2_spi_generic
                0x00000000878d4a08        0x8 arch/arm/cpu/armv7/start.o
 .rel.u_boot_list_2_driver_2_spi_generic_drv
                0x00000000878d4a10        0x8 arch/arm/cpu/armv7/start.o
 .rel.u_boot_list_2_uclass_2_spi
                0x00000000878d4a18       0x28 arch/arm/cpu/armv7/start.o
 .rel.u_boot_list_2_driver_2_soft_spi
                0x00000000878d4a40       0x28 arch/arm/cpu/armv7/start.o
 .rel.u_boot_list_2_driver_2_fsl_qspi
                0x00000000878d4a68       0x30 arch/arm/cpu/armv7/start.o
 .rel.text.usb_ether_receive
                0x00000000878d4a98        0x8 arch/arm/cpu/armv7/start.o
 .rel.text.asix_eth_start
                0x00000000878d4aa0       0x18 arch/arm/cpu/armv7/start.o
 .rel.rodata.asix_eth_ops
                0x00000000878d4ab8       0x30 arch/arm/cpu/armv7/start.o
 .rel.u_boot_list_2_usb_driver_entry_2_asix_eth
                0x00000000878d4ae8       0x10 arch/arm/cpu/armv7/start.o
 .rel.u_boot_list_2_driver_2_asix_eth
                0x00000000878d4af8       0x18 arch/arm/cpu/armv7/start.o
 .rel.text.usb_ep_autoconfig
                0x00000000878d4b10        0x8 arch/arm/cpu/armv7/start.o
 .rel.text.usb_ep_autoconfig_reset
                0x00000000878d4b18        0x8 arch/arm/cpu/armv7/start.o
 .rel.text.ci_ep_free_request
                0x00000000878d4b20        0x8 arch/arm/cpu/armv7/start.o
 .rel.text.ci_ep_alloc_request
                0x00000000878d4b28        0x8 arch/arm/cpu/armv7/start.o
 .rel.text.ci_flush_qtd
                0x00000000878d4b30        0x8 arch/arm/cpu/armv7/start.o
 .rel.text.ci_flush_qh
                0x00000000878d4b38        0x8 arch/arm/cpu/armv7/start.o
 .rel.text.stop_activity
                0x00000000878d4b40        0x8 arch/arm/cpu/armv7/start.o
 .rel.text.ep_enable
                0x00000000878d4b48        0x8 arch/arm/cpu/armv7/start.o
 .rel.text.ci_ep_enable
                0x00000000878d4b50        0x8 arch/arm/cpu/armv7/start.o
 .rel.text.ci_ep_submit_next_request
                0x00000000878d4b58        0x8 arch/arm/cpu/armv7/start.o
 .rel.text.ci_ep_queue
                0x00000000878d4b60       0x10 arch/arm/cpu/armv7/start.o
 .rel.text.udc_irq
                0x00000000878d4b70       0x38 arch/arm/cpu/armv7/start.o
 .rel.text.usb_gadget_handle_interrupts
                0x00000000878d4ba8        0x8 arch/arm/cpu/armv7/start.o
 .rel.text.udc_disconnect
                0x00000000878d4bb0        0x8 arch/arm/cpu/armv7/start.o
 .rel.text.ci_pullup
                0x00000000878d4bb8        0x8 arch/arm/cpu/armv7/start.o
 .rel.text.usb_gadget_register_driver
                0x00000000878d4bc0       0x30 arch/arm/cpu/armv7/start.o
 .rel.text.usb_gadget_unregister_driver
                0x00000000878d4bf0        0x8 arch/arm/cpu/armv7/start.o
 .rel.text.composite_suspend
                0x00000000878d4bf8        0x8 arch/arm/cpu/armv7/start.o
 .rel.text.composite_resume
                0x00000000878d4c00        0x8 arch/arm/cpu/armv7/start.o
 .rel.text.composite_unbind
                0x00000000878d4c08       0x28 arch/arm/cpu/armv7/start.o
 .rel.text.composite_bind
                0x00000000878d4c30       0x18 arch/arm/cpu/armv7/start.o
 .rel.text.g_dnl_do_config
                0x00000000878d4c48       0x10 arch/arm/cpu/armv7/start.o
 .rel.text.composite_disconnect
                0x00000000878d4c58        0x8 arch/arm/cpu/armv7/start.o
 .rel.text.unlikely.count_ext_compat
                0x00000000878d4c60       0x20 arch/arm/cpu/armv7/start.o
 .rel.text.composite_setup
                0x00000000878d4c80       0xe8 arch/arm/cpu/armv7/start.o
 .rel.text.usb_add_config
                0x00000000878d4d68        0x8 arch/arm/cpu/armv7/start.o
 .rel.text.usb_composite_register
                0x00000000878d4d70       0x18 arch/arm/cpu/armv7/start.o
 .rel.text.usb_composite_unregister
                0x00000000878d4d88       0x10 arch/arm/cpu/armv7/start.o
 .rel.text.g_dnl_set_serialnumber
                0x00000000878d4d98        0x8 arch/arm/cpu/armv7/start.o
 .rel.text.g_dnl_bind
                0x00000000878d4da0       0x30 arch/arm/cpu/armv7/start.o
 .rel.text.g_dnl_detach
                0x00000000878d4dd0        0x8 arch/arm/cpu/armv7/start.o
 .rel.text.g_dnl_trigger_detach
                0x00000000878d4dd8        0x8 arch/arm/cpu/armv7/start.o
 .rel.text.g_dnl_clear_detach
                0x00000000878d4de0        0x8 arch/arm/cpu/armv7/start.o
 .rel.text.g_dnl_register
                0x00000000878d4de8       0x18 arch/arm/cpu/armv7/start.o
 .rel.text.g_dnl_unregister
                0x00000000878d4e00        0x8 arch/arm/cpu/armv7/start.o
 .rel.text.fastboot_unbind
                0x00000000878d4e08       0x10 arch/arm/cpu/armv7/start.o
 .rel.text.fastboot_add
                0x00000000878d4e18       0x38 arch/arm/cpu/armv7/start.o
 .rel.text.fastboot_complete
                0x00000000878d4e50        0x8 arch/arm/cpu/armv7/start.o
 .rel.text.fastboot_bind
                0x00000000878d4e58       0x78 arch/arm/cpu/armv7/start.o
 .rel.text.fastboot_fifo_complete
                0x00000000878d4ed0       0x10 arch/arm/cpu/armv7/start.o
 .rel.text.fastboot_set_alt
                0x00000000878d4ee0       0x60 arch/arm/cpu/armv7/start.o
 .rel.text.fastboot_tx_write_more
                0x00000000878d4f40       0x28 arch/arm/cpu/armv7/start.o
 .rel.text.fastboot_tx_write
                0x00000000878d4f68       0x10 arch/arm/cpu/armv7/start.o
 .rel.text.rx_handler_command
                0x00000000878d4f78       0x78 arch/arm/cpu/armv7/start.o
 .rel.text.rx_handler_dl_image
                0x00000000878d4ff0       0x10 arch/arm/cpu/armv7/start.o
 .rel.rodata.ci_ep_init
                0x00000000878d5000       0x50 arch/arm/cpu/armv7/start.o
 .rel.data.ci_ep_ops
                0x00000000878d5050       0x30 arch/arm/cpu/armv7/start.o
 .rel.data.ci_udc_ops
                0x00000000878d5080        0x8 arch/arm/cpu/armv7/start.o
 .rel.data.controller
                0x00000000878d5088       0x10 arch/arm/cpu/armv7/start.o
 .rel.data.g_dnl_string_tab
                0x00000000878d5098        0x8 arch/arm/cpu/armv7/start.o
 .rel.data.g_dnl_composite_strings
                0x00000000878d50a0        0x8 arch/arm/cpu/armv7/start.o
 .rel.u_boot_list_2_env_clbk_2_serialno
                0x00000000878d50a8       0x10 arch/arm/cpu/armv7/start.o
 .rel.data.g_dnl_driver
                0x00000000878d50b8       0x20 arch/arm/cpu/armv7/start.o
 .rel.data.composite_driver
                0x00000000878d50d8       0x38 arch/arm/cpu/armv7/start.o
 .rel.data.g_dnl_string_defs
                0x00000000878d5110       0x18 arch/arm/cpu/armv7/start.o
 .rel.data.fb_os_desc
                0x00000000878d5128        0x8 arch/arm/cpu/armv7/start.o
 .rel.data.fastboot_string_defs
                0x00000000878d5130        0x8 arch/arm/cpu/armv7/start.o
 .rel.data.fb_ext_prop
                0x00000000878d5138       0x10 arch/arm/cpu/armv7/start.o
 .rel.data.fastboot_strings
                0x00000000878d5148        0x8 arch/arm/cpu/armv7/start.o
 .rel.data.fb_ss_function
                0x00000000878d5150       0x28 arch/arm/cpu/armv7/start.o
 .rel.data.fb_os_desc_table
                0x00000000878d5178        0x8 arch/arm/cpu/armv7/start.o
 .rel.data.stringtab_fastboot
                0x00000000878d5180        0x8 arch/arm/cpu/armv7/start.o
 .rel.u_boot_list_2_g_dnl_bind_callbacks_2___usb_function_name_usb_dnl_fastboot
                0x00000000878d5188       0x10 arch/arm/cpu/armv7/start.o
 .rel.data.fb_hs_function
                0x00000000878d5198       0x18 arch/arm/cpu/armv7/start.o
 .rel.data.fb_fs_function
                0x00000000878d51b0       0x18 arch/arm/cpu/armv7/start.o
 .rel.u_boot_list_2_uclass_2_usb_gadget_generic
                0x00000000878d51c8        0x8 arch/arm/cpu/armv7/start.o
 .rel.text.usb_child_post_bind
                0x00000000878d51d0       0x10 arch/arm/cpu/armv7/start.o
 .rel.text.usb_disable_asynch
                0x00000000878d51e0        0x8 arch/arm/cpu/armv7/start.o
 .rel.text.usb_stop
                0x00000000878d51e8        0x8 arch/arm/cpu/armv7/start.o
 .rel.text.usb_scan_device
                0x00000000878d51f0       0x20 arch/arm/cpu/armv7/start.o
 .rel.text.usb_scan_bus.isra.5
                0x00000000878d5210       0x20 arch/arm/cpu/armv7/start.o
 .rel.text.usb_init
                0x00000000878d5230       0x38 arch/arm/cpu/armv7/start.o
 .rel.text.ehci_td_buffer
                0x00000000878d5268        0x8 arch/arm/cpu/armv7/start.o
 .rel.text.ehci_shutdown
                0x00000000878d5270        0x8 arch/arm/cpu/armv7/start.o
 .rel.text.disable_periodic.isra.1
                0x00000000878d5278        0x8 arch/arm/cpu/armv7/start.o
 .rel.text.enable_periodic.isra.2
                0x00000000878d5280        0x8 arch/arm/cpu/armv7/start.o
 .rel.text._ehci_destroy_int_queue
                0x00000000878d5288        0x8 arch/arm/cpu/armv7/start.o
 .rel.text.ehci_submit_async
                0x00000000878d5290       0x30 arch/arm/cpu/armv7/start.o
 .rel.text._ehci_create_int_queue.isra.5
                0x00000000878d52c0       0x10 arch/arm/cpu/armv7/start.o
 .rel.text.ehci_submit_int_msg
                0x00000000878d52d0        0x8 arch/arm/cpu/armv7/start.o
 .rel.text.ehci_submit_control_msg
                0x00000000878d52d8       0x28 arch/arm/cpu/armv7/start.o
 .rel.text.ehci_register
                0x00000000878d5300       0x38 arch/arm/cpu/armv7/start.o
 .rel.text.ehci_mx6_common_init
                0x00000000878d5338        0x8 arch/arm/cpu/armv7/start.o
 .rel.text.ehci_usb_probe
                0x00000000878d5340       0x38 arch/arm/cpu/armv7/start.o
 .rel.text.mx6_init_after_reset
                0x00000000878d5378       0x10 arch/arm/cpu/armv7/start.o
 .rel.text.ehci_usb_ofdata_to_platdata
                0x00000000878d5388       0x28 arch/arm/cpu/armv7/start.o
 .rel.rodata.mx6_usb_ids
                0x00000000878d53b0        0x8 arch/arm/cpu/armv7/start.o
 .rel.rodata.mx6_ehci_ops
                0x00000000878d53b8       0x10 arch/arm/cpu/armv7/start.o
 .rel.u_boot_list_2_uclass_2_usb_dev_generic
                0x00000000878d53c8        0x8 arch/arm/cpu/armv7/start.o
 .rel.u_boot_list_2_driver_2_usb_dev_generic_drv
                0x00000000878d53d0        0x8 arch/arm/cpu/armv7/start.o
 .rel.u_boot_list_2_uclass_2_usb
                0x00000000878d53d8       0x20 arch/arm/cpu/armv7/start.o
 .rel.data.ehci_usb_ops
                0x00000000878d53f8       0x38 arch/arm/cpu/armv7/start.o
 .rel.u_boot_list_2_driver_2_usb_mx6
                0x00000000878d5430       0x30 arch/arm/cpu/armv7/start.o
 .rel.text.set_default_env
                0x00000000878d5460       0x28 arch/arm/cpu/armv7/start.o
 .rel.text.set_default_vars
                0x00000000878d5488       0x10 arch/arm/cpu/armv7/start.o
 .rel.text.env_import
                0x00000000878d5498       0x28 arch/arm/cpu/armv7/start.o
 .rel.text.env_export
                0x00000000878d54c0       0x18 arch/arm/cpu/armv7/start.o
 .rel.text.env_relocate
                0x00000000878d54d8        0x8 arch/arm/cpu/armv7/start.o
 .rel.text.env_complete
                0x00000000878d54e0       0x30 arch/arm/cpu/armv7/start.o
 .rel.text.env_driver_lookup
                0x00000000878d5510       0x10 arch/arm/cpu/armv7/start.o
 .rel.text.env_get_char
                0x00000000878d5520        0x8 arch/arm/cpu/armv7/start.o
 .rel.text.env_load
                0x00000000878d5528       0x10 arch/arm/cpu/armv7/start.o
 .rel.text.env_save
                0x00000000878d5538       0x18 arch/arm/cpu/armv7/start.o
 .rel.text.env_init
                0x00000000878d5550        0x8 arch/arm/cpu/armv7/start.o
 .rel.text.regex_callback
                0x00000000878d5558       0x10 arch/arm/cpu/armv7/start.o
 .rel.text.env_attr_lookup
                0x00000000878d5568        0x8 arch/arm/cpu/armv7/start.o
 .rel.text.find_env_callback
                0x00000000878d5570       0x10 arch/arm/cpu/armv7/start.o
 .rel.text.on_callbacks
                0x00000000878d5580       0x20 arch/arm/cpu/armv7/start.o
 .rel.text.set_callback
                0x00000000878d55a0        0x8 arch/arm/cpu/armv7/start.o
 .rel.text.env_callback_init
                0x00000000878d55a8       0x20 arch/arm/cpu/armv7/start.o
 .rel.text.skip_num
                0x00000000878d55c8        0x8 arch/arm/cpu/armv7/start.o
 .rel.text.on_flags
                0x00000000878d55d0       0x20 arch/arm/cpu/armv7/start.o
 .rel.text.env_flags_parse_vartype
                0x00000000878d55f0       0x10 arch/arm/cpu/armv7/start.o
 .rel.text.env_flags_parse_varaccess
                0x00000000878d5600       0x10 arch/arm/cpu/armv7/start.o
 .rel.text.set_flags
                0x00000000878d5610       0x10 arch/arm/cpu/armv7/start.o
 .rel.text.env_flags_init
                0x00000000878d5620       0x30 arch/arm/cpu/armv7/start.o
 .rel.text.env_flags_validate
                0x00000000878d5650       0x68 arch/arm/cpu/armv7/start.o
 .rel.text.mmc_get_env_addr
                0x00000000878d56b8       0x20 arch/arm/cpu/armv7/start.o
 .rel.text.fini_mmc_for_env.isra.1
                0x00000000878d56d8        0x8 arch/arm/cpu/armv7/start.o
 .rel.text.init_mmc_for_env
                0x00000000878d56e0       0x28 arch/arm/cpu/armv7/start.o
 .rel.text.env_mmc_save
                0x00000000878d5708       0x20 arch/arm/cpu/armv7/start.o
 .rel.text.env_mmc_load
                0x00000000878d5728        0x8 arch/arm/cpu/armv7/start.o
 .rel.data.env_htab
                0x00000000878d5730        0x8 arch/arm/cpu/armv7/start.o
 .rel.u_boot_list_2_env_clbk_2_callbacks
                0x00000000878d5738       0x10 arch/arm/cpu/armv7/start.o
 .rel.u_boot_list_2_env_clbk_2_flags
                0x00000000878d5748       0x10 arch/arm/cpu/armv7/start.o
 .rel.u_boot_list_2_env_driver_2_mmc
                0x00000000878d5758       0x18 arch/arm/cpu/armv7/start.o
 .rel.text.fs_probe_unsupported
                0x00000000878d5770        0x8 arch/arm/cpu/armv7/start.o
 .rel.text.fs_get_info
                0x00000000878d5778        0x8 arch/arm/cpu/armv7/start.o
 .rel.text.fs_close
                0x00000000878d5780        0x8 arch/arm/cpu/armv7/start.o
 .rel.text.fs_set_blk_dev
                0x00000000878d5788       0x28 arch/arm/cpu/armv7/start.o
 .rel.text.fs_set_blk_dev_with_part
                0x00000000878d57b0       0x28 arch/arm/cpu/armv7/start.o
 .rel.text.fs_ls
                0x00000000878d57d8        0x8 arch/arm/cpu/armv7/start.o
 .rel.text.fs_exists
                0x00000000878d57e0        0x8 arch/arm/cpu/armv7/start.o
 .rel.text.fs_size
                0x00000000878d57e8        0x8 arch/arm/cpu/armv7/start.o
 .rel.text.fs_read
                0x00000000878d57f0        0x8 arch/arm/cpu/armv7/start.o
 .rel.text.fs_write
                0x00000000878d57f8       0x10 arch/arm/cpu/armv7/start.o
 .rel.text.fs_opendir
                0x00000000878d5808       0x20 arch/arm/cpu/armv7/start.o
 .rel.text.fs_readdir
                0x00000000878d5828       0x10 arch/arm/cpu/armv7/start.o
 .rel.text.fs_closedir
                0x00000000878d5838        0x8 arch/arm/cpu/armv7/start.o
 .rel.text.fs_ls_generic
                0x00000000878d5840       0x20 arch/arm/cpu/armv7/start.o
 .rel.text.fs_unlink
                0x00000000878d5860        0x8 arch/arm/cpu/armv7/start.o
 .rel.text.fs_mkdir
                0x00000000878d5868        0x8 arch/arm/cpu/armv7/start.o
 .rel.text.do_size
                0x00000000878d5870        0x8 arch/arm/cpu/armv7/start.o
 .rel.text.do_load
                0x00000000878d5878       0x60 arch/arm/cpu/armv7/start.o
 .rel.text.do_ls
                0x00000000878d58d8        0x8 arch/arm/cpu/armv7/start.o
 .rel.text.do_save
                0x00000000878d58e0       0x28 arch/arm/cpu/armv7/start.o
 .rel.text.do_fs_type
                0x00000000878d5908       0x10 arch/arm/cpu/armv7/start.o
 .rel.text.do_mkdir
                0x00000000878d5918        0x8 arch/arm/cpu/armv7/start.o
 .rel.text.get_fs
                0x00000000878d5920        0x8 arch/arm/cpu/armv7/start.o
 .rel.text.ext4fs_free_node
                0x00000000878d5928        0x8 arch/arm/cpu/armv7/start.o
 .rel.text.ext4fs_read_file
                0x00000000878d5930        0x8 arch/arm/cpu/armv7/start.o
 .rel.text.ext4fs_ls
                0x00000000878d5938       0x10 arch/arm/cpu/armv7/start.o
 .rel.text.ext4fs_read
                0x00000000878d5948       0x10 arch/arm/cpu/armv7/start.o
 .rel.text.ext4_read_file
                0x00000000878d5958        0x8 arch/arm/cpu/armv7/start.o
 .rel.text.ext4fs_uuid
                0x00000000878d5960        0x8 arch/arm/cpu/armv7/start.o
 .rel.text.put_ext4
                0x00000000878d5968       0x20 arch/arm/cpu/armv7/start.o
 .rel.text.ext4fs_set_block_bmap
                0x00000000878d5988        0x8 arch/arm/cpu/armv7/start.o
 .rel.text.ext4fs_reset_block_bmap
                0x00000000878d5990        0x8 arch/arm/cpu/armv7/start.o
 .rel.text.ext4fs_set_inode_bmap
                0x00000000878d5998        0x8 arch/arm/cpu/armv7/start.o
 .rel.text.ext4fs_reset_inode_bmap
                0x00000000878d59a0        0x8 arch/arm/cpu/armv7/start.o
 .rel.text.ext4fs_get_new_blk_no
                0x00000000878d59a8       0x10 arch/arm/cpu/armv7/start.o
 .rel.text.ext4fs_get_new_inode_no
                0x00000000878d59b8       0x10 arch/arm/cpu/armv7/start.o
 .rel.text.ext4fs_allocate_blocks
                0x00000000878d59c8       0x30 arch/arm/cpu/armv7/start.o
 .rel.text.ext4fs_iget
                0x00000000878d59f8        0x8 arch/arm/cpu/armv7/start.o
 .rel.text.read_allocated_block
                0x00000000878d5a00       0xb0 arch/arm/cpu/armv7/start.o
 .rel.text.ext4fs_update_parent_dentry
                0x00000000878d5ab0       0x48 arch/arm/cpu/armv7/start.o
 .rel.text.search_dir
                0x00000000878d5af8       0x10 arch/arm/cpu/armv7/start.o
 .rel.text.ext4fs_get_parent_inode_num
                0x00000000878d5b08       0x28 arch/arm/cpu/armv7/start.o
 .rel.text.ext4fs_filename_unlink
                0x00000000878d5b30       0x20 arch/arm/cpu/armv7/start.o
 .rel.text.ext4fs_reinit_global
                0x00000000878d5b50       0x48 arch/arm/cpu/armv7/start.o
 .rel.text.ext4fs_close
                0x00000000878d5b98       0x10 arch/arm/cpu/armv7/start.o
 .rel.text.ext4fs_iterate_dir
                0x00000000878d5ba8       0x30 arch/arm/cpu/armv7/start.o
 .rel.text.ext4fs_find_file1
                0x00000000878d5bd8       0x10 arch/arm/cpu/armv7/start.o
 .rel.text.ext4fs_find_file
                0x00000000878d5be8        0x8 arch/arm/cpu/armv7/start.o
 .rel.text.ext4fs_open
                0x00000000878d5bf0       0x10 arch/arm/cpu/armv7/start.o
 .rel.text.ext4fs_mount
                0x00000000878d5c00       0x10 arch/arm/cpu/armv7/start.o
 .rel.text.ext4fs_set_blk_dev
                0x00000000878d5c10       0x18 arch/arm/cpu/armv7/start.o
 .rel.text.ext4fs_devread
                0x00000000878d5c28        0x8 arch/arm/cpu/armv7/start.o
 .rel.text.ext4fs_update
                0x00000000878d5c30       0x10 arch/arm/cpu/armv7/start.o
 .rel.text.ext4fs_get_bgdtable
                0x00000000878d5c40        0x8 arch/arm/cpu/armv7/start.o
 .rel.text.ext4fs_deinit
                0x00000000878d5c48        0x8 arch/arm/cpu/armv7/start.o
 .rel.text.ext4fs_init
                0x00000000878d5c50       0x10 arch/arm/cpu/armv7/start.o
 .rel.text.ext4fs_write
                0x00000000878d5c60       0x68 arch/arm/cpu/armv7/start.o
 .rel.text.ext4_write_file
                0x00000000878d5cc8       0x10 arch/arm/cpu/armv7/start.o
 .rel.text.ext4fs_dump_metadata
                0x00000000878d5cd8        0x8 arch/arm/cpu/armv7/start.o
 .rel.text.ext4fs_free_journal
                0x00000000878d5ce0       0x28 arch/arm/cpu/armv7/start.o
 .rel.text.ext4fs_log_gdt
                0x00000000878d5d08       0x10 arch/arm/cpu/armv7/start.o
 .rel.text.ext4fs_log_journal
                0x00000000878d5d18       0x20 arch/arm/cpu/armv7/start.o
 .rel.text.ext4fs_put_metadata
                0x00000000878d5d38       0x20 arch/arm/cpu/armv7/start.o
 .rel.text.ext4fs_push_revoke_blk
                0x00000000878d5d58       0x28 arch/arm/cpu/armv7/start.o
 .rel.text.ext4fs_free_revoke_blks
                0x00000000878d5d80       0x18 arch/arm/cpu/armv7/start.o
 .rel.text.check_blknr_for_revoke
                0x00000000878d5d98        0x8 arch/arm/cpu/armv7/start.o
 .rel.text.recover_transaction
                0x00000000878d5da0       0x10 arch/arm/cpu/armv7/start.o
 .rel.text.print_jrnl_status
                0x00000000878d5db0       0x10 arch/arm/cpu/armv7/start.o
 .rel.text.ext4fs_check_journal_state
                0x00000000878d5dc0       0x18 arch/arm/cpu/armv7/start.o
 .rel.text.ext4fs_init_journal
                0x00000000878d5dd8       0x38 arch/arm/cpu/armv7/start.o
 .rel.text.ext4fs_update_journal
                0x00000000878d5e10       0x20 arch/arm/cpu/armv7/start.o
 .rel.text.ext2fs_crc16
                0x00000000878d5e30        0x8 arch/arm/cpu/armv7/start.o
 .rel.text.downcase
                0x00000000878d5e38        0x8 arch/arm/cpu/armv7/start.o
 .rel.text.disk_read
                0x00000000878d5e40       0x10 arch/arm/cpu/armv7/start.o
 .rel.text.read_bootsectandvi
                0x00000000878d5e50       0x20 arch/arm/cpu/armv7/start.o
 .rel.text.fat_itr_root
                0x00000000878d5e70       0x20 arch/arm/cpu/armv7/start.o
 .rel.text.split_filename
                0x00000000878d5e90        0x8 arch/arm/cpu/armv7/start.o
 .rel.text.disk_write
                0x00000000878d5e98       0x20 arch/arm/cpu/armv7/start.o
 .rel.text.get_fatent
                0x00000000878d5eb8        0x8 arch/arm/cpu/armv7/start.o
 .rel.text.normalize_longname
                0x00000000878d5ec0        0x8 arch/arm/cpu/armv7/start.o
 .rel.text.set_name
                0x00000000878d5ec8        0x8 arch/arm/cpu/armv7/start.o
 .rel.text.get_set_cluster
                0x00000000878d5ed0        0x8 arch/arm/cpu/armv7/start.o
 .rel.text.set_contents
                0x00000000878d5ed8       0x18 arch/arm/cpu/armv7/start.o
 .rel.text.fat_itr_resolve
                0x00000000878d5ef0       0x10 arch/arm/cpu/armv7/start.o
 .rel.text.flush_dir_table
                0x00000000878d5f00       0x10 arch/arm/cpu/armv7/start.o
 .rel.text.fat_set_blk_dev
                0x00000000878d5f10       0x28 arch/arm/cpu/armv7/start.o
 .rel.text.file_fat_detectfs
                0x00000000878d5f38       0xb0 arch/arm/cpu/armv7/start.o
 .rel.text.file_fat_read_at
                0x00000000878d5fe8       0x10 arch/arm/cpu/armv7/start.o
 .rel.text.fat_read_file
                0x00000000878d5ff8        0x8 arch/arm/cpu/armv7/start.o
 .rel.text.file_fat_write_at
                0x00000000878d6000       0x48 arch/arm/cpu/armv7/start.o
 .rel.text.fat_unlink
                0x00000000878d6048       0x50 arch/arm/cpu/armv7/start.o
 .rel.text.fat_mkdir
                0x00000000878d6098       0x68 arch/arm/cpu/armv7/start.o
 .rel.text.compr_init
                0x00000000878d6100        0x8 arch/arm/cpu/armv7/start.o
 .rel.text.ubifs_findfile
                0x00000000878d6108       0x28 arch/arm/cpu/armv7/start.o
 .rel.text.ubifs_decompress
                0x00000000878d6130       0x30 arch/arm/cpu/armv7/start.o
 .rel.text.read_block
                0x00000000878d6160       0x20 arch/arm/cpu/armv7/start.o
 .rel.text.ubifs_compressors_init
                0x00000000878d6180       0x18 arch/arm/cpu/armv7/start.o
 .rel.text.ubifs_ls
                0x00000000878d6198       0x90 arch/arm/cpu/armv7/start.o
 .rel.text.ubifs_exists
                0x00000000878d6228        0x8 arch/arm/cpu/armv7/start.o
 .rel.text.ubifs_size
                0x00000000878d6230       0x18 arch/arm/cpu/armv7/start.o
 .rel.text.ubifs_read
                0x00000000878d6248       0x48 arch/arm/cpu/armv7/start.o
 .rel.text.ubifs_load
                0x00000000878d6290       0x18 arch/arm/cpu/armv7/start.o
 .rel.text.uboot_ubifs_umount
                0x00000000878d62a8       0x10 arch/arm/cpu/armv7/start.o
 .rel.text.ubifs_leb_read
                0x00000000878d62b8       0x10 arch/arm/cpu/armv7/start.o
 .rel.text.ubifs_leb_unmap
                0x00000000878d62c8       0x18 arch/arm/cpu/armv7/start.o
 .rel.text.ubifs_is_mapped
                0x00000000878d62e0       0x10 arch/arm/cpu/armv7/start.o
 .rel.text.ubifs_check_node
                0x00000000878d62f0       0x38 arch/arm/cpu/armv7/start.o
 .rel.text.ubifs_pad
                0x00000000878d6328       0x10 arch/arm/cpu/armv7/start.o
 .rel.text.ubifs_wbuf_seek_nolock
                0x00000000878d6338       0x10 arch/arm/cpu/armv7/start.o
 .rel.text.ubifs_read_node
                0x00000000878d6348       0x30 arch/arm/cpu/armv7/start.o
 .rel.text.ubifs_read_node_wbuf
                0x00000000878d6378       0x30 arch/arm/cpu/armv7/start.o
 .rel.text.free_orphans
                0x00000000878d63a8       0x10 arch/arm/cpu/armv7/start.o
 .rel.text.ubifs_alloc_inode
                0x00000000878d63b8        0x8 arch/arm/cpu/armv7/start.o
 .rel.text.iput
                0x00000000878d63c0        0x8 arch/arm/cpu/armv7/start.o
 .rel.text.ubifs_iget
                0x00000000878d63c8       0x38 arch/arm/cpu/armv7/start.o
 .rel.text.ubifs_umount
                0x00000000878d6400        0x8 arch/arm/cpu/armv7/start.o
 .rel.text.ubifs_mount
                0x00000000878d6408       0xf8 arch/arm/cpu/armv7/start.o
 .rel.text.ubifs_init
                0x00000000878d6500        0x8 arch/arm/cpu/armv7/start.o
 .rel.text.uboot_ubifs_mount
                0x00000000878d6508       0x18 arch/arm/cpu/armv7/start.o
 .rel.text.ubifs_read_superblock
                0x00000000878d6520       0x80 arch/arm/cpu/armv7/start.o
 .rel.text.ubifs_read_master
                0x00000000878d65a0       0x30 arch/arm/cpu/armv7/start.o
 .rel.text.ubifs_calc_lpt_geom
                0x00000000878d65d0       0x18 arch/arm/cpu/armv7/start.o
 .rel.text.ubifs_unpack_bits
                0x00000000878d65e8       0x50 arch/arm/cpu/armv7/start.o
 .rel.text.check_lpt_crc
                0x00000000878d6638       0x10 arch/arm/cpu/armv7/start.o
 .rel.text.check_lpt_type.constprop.8
                0x00000000878d6648       0x10 arch/arm/cpu/armv7/start.o
 .rel.text.ubifs_add_lpt_dirt
                0x00000000878d6658       0x10 arch/arm/cpu/armv7/start.o
 .rel.text.dirty_cow_nnode
                0x00000000878d6668       0x10 arch/arm/cpu/armv7/start.o
 .rel.text.ubifs_read_nnode
                0x00000000878d6678       0x10 arch/arm/cpu/armv7/start.o
 .rel.text.ubifs_get_pnode
                0x00000000878d6688       0x18 arch/arm/cpu/armv7/start.o
 .rel.text.ubifs_lpt_lookup_dirty
                0x00000000878d66a0       0x18 arch/arm/cpu/armv7/start.o
 .rel.text.ubifs_scan_a_node
                0x00000000878d66b8       0x18 arch/arm/cpu/armv7/start.o
 .rel.text.ubifs_start_scan
                0x00000000878d66d0       0x10 arch/arm/cpu/armv7/start.o
 .rel.text.ubifs_end_scan
                0x00000000878d66e0       0x10 arch/arm/cpu/armv7/start.o
 .rel.text.ubifs_scanned_corruption
                0x00000000878d66f0       0x20 arch/arm/cpu/armv7/start.o
 .rel.text.ubifs_scan
                0x00000000878d6710       0x68 arch/arm/cpu/armv7/start.o
 .rel.text.ubifs_remove_from_cat
                0x00000000878d6778       0x18 arch/arm/cpu/armv7/start.o
 .rel.text.ubifs_add_to_cat
                0x00000000878d6790       0x50 arch/arm/cpu/armv7/start.o
 .rel.text.ubifs_replace_cat
                0x00000000878d67e0       0x10 arch/arm/cpu/armv7/start.o
 .rel.text.ubifs_categorize_lprops
                0x00000000878d67f0       0x10 arch/arm/cpu/armv7/start.o
 .rel.text.ubifs_calc_dark
                0x00000000878d6800       0x10 arch/arm/cpu/armv7/start.o
 .rel.text.ubifs_change_lp
                0x00000000878d6810       0x10 arch/arm/cpu/armv7/start.o
 .rel.text.ubifs_change_one_lp
                0x00000000878d6820       0x20 arch/arm/cpu/armv7/start.o
 .rel.text.ubifs_update_one_lp
                0x00000000878d6840       0x20 arch/arm/cpu/armv7/start.o
 .rel.text.insert_zbranch
                0x00000000878d6860       0x10 arch/arm/cpu/armv7/start.o
 .rel.text.insert_old_idx
                0x00000000878d6870       0x10 arch/arm/cpu/armv7/start.o
 .rel.text.lnc_add_directly
                0x00000000878d6880       0x10 arch/arm/cpu/armv7/start.o
 .rel.text.fallible_read_node
                0x00000000878d6890       0x10 arch/arm/cpu/armv7/start.o
 .rel.text.resolve_collision
                0x00000000878d68a0       0x10 arch/arm/cpu/armv7/start.o
 .rel.text.fallible_matches_name
                0x00000000878d68b0       0x10 arch/arm/cpu/armv7/start.o
 .rel.text.fallible_resolve_collision
                0x00000000878d68c0       0x10 arch/arm/cpu/armv7/start.o
 .rel.text.correct_parent_keys.isra.17
                0x00000000878d68d0       0x10 arch/arm/cpu/armv7/start.o
 .rel.text.tnc_read_node_nm
                0x00000000878d68e0       0x18 arch/arm/cpu/armv7/start.o
 .rel.text.tnc_insert.constprop.20
                0x00000000878d68f8       0x10 arch/arm/cpu/armv7/start.o
 .rel.text.dirty_cow_znode
                0x00000000878d6908       0x18 arch/arm/cpu/armv7/start.o
 .rel.text.dirty_cow_bottom_up
                0x00000000878d6920       0x10 arch/arm/cpu/armv7/start.o
 .rel.text.tnc_delete
                0x00000000878d6930       0x18 arch/arm/cpu/armv7/start.o
 .rel.text.ubifs_lookup_level0
                0x00000000878d6948       0x10 arch/arm/cpu/armv7/start.o
 .rel.text.ubifs_tnc_add_nm
                0x00000000878d6958        0x8 arch/arm/cpu/armv7/start.o
 .rel.text.ubifs_tnc_next_ent
                0x00000000878d6960       0x10 arch/arm/cpu/armv7/start.o
 .rel.text.ubifs_tnc_close
                0x00000000878d6970       0x20 arch/arm/cpu/armv7/start.o
 .rel.text.ubifs_search_zbranch
                0x00000000878d6990       0x10 arch/arm/cpu/armv7/start.o
 .rel.text.ubifs_tnc_postorder_next
                0x00000000878d69a0       0x10 arch/arm/cpu/armv7/start.o
 .rel.text.ubifs_destroy_tnc_subtree
                0x00000000878d69b0       0x10 arch/arm/cpu/armv7/start.o
 .rel.text.ubifs_load_znode
                0x00000000878d69c0       0x70 arch/arm/cpu/armv7/start.o
 .rel.text.ubifs_tnc_read_node
                0x00000000878d6a30       0x10 arch/arm/cpu/armv7/start.o
 .rel.text.dbg_snprintf_key
                0x00000000878d6a40       0x70 arch/arm/cpu/armv7/start.o
 .rel.text.ubifs_dump_node
                0x00000000878d6ab0      0x3c0 arch/arm/cpu/armv7/start.o
 .rel.text.ubifs_dump_znode
                0x00000000878d6e70       0x20 arch/arm/cpu/armv7/start.o
 .rel.text.ubifs_dump_pnode
                0x00000000878d6e90       0x28 arch/arm/cpu/armv7/start.o
 .rel.text.crc16
                0x00000000878d6eb8        0x8 arch/arm/cpu/armv7/start.o
 .rel.text.ubifs_add_bud
                0x00000000878d6ec0       0x10 arch/arm/cpu/armv7/start.o
 .rel.text.ubifs_mount_orphans
                0x00000000878d6ed0       0x18 arch/arm/cpu/armv7/start.o
 .rel.text.ubifs_recover_master_node
                0x00000000878d6ee8       0x20 arch/arm/cpu/armv7/start.o
 .rel.text.ubifs_recover_leb
                0x00000000878d6f08       0x38 arch/arm/cpu/armv7/start.o
 .rel.text.ubifs_recover_log_leb
                0x00000000878d6f40       0x38 arch/arm/cpu/armv7/start.o
 .rel.text.ubifs_recover_size
                0x00000000878d6f78       0x10 arch/arm/cpu/armv7/start.o
 .rel.text.replay_entries_cmp
                0x00000000878d6f88       0x10 arch/arm/cpu/armv7/start.o
 .rel.text.ubifs_validate_entry
                0x00000000878d6f98       0x28 arch/arm/cpu/armv7/start.o
 .rel.text.ubifs_replay_journal
                0x00000000878d6fc0       0xe8 arch/arm/cpu/armv7/start.o
 .rel.text.fs_devread
                0x00000000878d70a8       0x30 arch/arm/cpu/armv7/start.o
 .rel.rodata.ubifs_super_operations
                0x00000000878d70d8       0x10 arch/arm/cpu/armv7/start.o
 .rel.rodata.CSWTCH.43
                0x00000000878d70e8       0x28 arch/arm/cpu/armv7/start.o
 .rel.rodata.CSWTCH.45
                0x00000000878d7110       0x18 arch/arm/cpu/armv7/start.o
 .rel.rodata.CSWTCH.49
                0x00000000878d7128       0x60 arch/arm/cpu/armv7/start.o
 .rel.data.fstypes
                0x00000000878d7188      0x190 arch/arm/cpu/armv7/start.o
 .rel.data.lzo_compr
                0x00000000878d7318       0x18 arch/arm/cpu/armv7/start.o
 .rel.data.none_compr
                0x00000000878d7330       0x10 arch/arm/cpu/armv7/start.o
 .rel.data.zlib_compr
                0x00000000878d7340       0x18 arch/arm/cpu/armv7/start.o
 .rel.data.ubifs_fs_type
                0x00000000878d7358       0x18 arch/arm/cpu/armv7/start.o
 .rel.text.efi_uc_destroy
                0x00000000878d7370        0x8 arch/arm/cpu/armv7/start.o
 .rel.text.efi_uc_init
                0x00000000878d7378        0x8 arch/arm/cpu/armv7/start.o
 .rel.text.check_node_type
                0x00000000878d7380       0x10 arch/arm/cpu/armv7/start.o
 .rel.text.efi_uc_start
                0x00000000878d7390        0x8 arch/arm/cpu/armv7/start.o
 .rel.text.efi_uc_supported
                0x00000000878d7398        0x8 arch/arm/cpu/armv7/start.o
 .rel.text.disconnect_child
                0x00000000878d73a0        0x8 arch/arm/cpu/armv7/start.o
 .rel.text.efi_uc_stop
                0x00000000878d73a8       0x18 arch/arm/cpu/armv7/start.o
 .rel.text.efi_driver_init
                0x00000000878d73c0       0x40 arch/arm/cpu/armv7/start.o
 .rel.text.efi_bl_bind
                0x00000000878d7400       0x10 arch/arm/cpu/armv7/start.o
 .rel.text.get_var.constprop.0
                0x00000000878d7410       0x10 arch/arm/cpu/armv7/start.o
 .rel.text.efi_bootmgr_load
                0x00000000878d7420       0x40 arch/arm/cpu/armv7/start.o
 .rel.text.efi_is_event
                0x00000000878d7460        0x8 arch/arm/cpu/armv7/start.o
 .rel.text.__efi_entry_check
                0x00000000878d7468       0x18 arch/arm/cpu/armv7/start.o
 .rel.text.__efi_exit_check
                0x00000000878d7480       0x10 arch/arm/cpu/armv7/start.o
 .rel.text.efi_queue_event
                0x00000000878d7490        0x8 arch/arm/cpu/armv7/start.o
 .rel.text.efi_start_image
                0x00000000878d7498       0x18 arch/arm/cpu/armv7/start.o
 .rel.text.efi_get_next_monotonic_count
                0x00000000878d74b0        0x8 arch/arm/cpu/armv7/start.o
 .rel.text.efi_raise_tpl
                0x00000000878d74b8        0x8 arch/arm/cpu/armv7/start.o
 .rel.text.efi_save_gd
                0x00000000878d74c0        0x8 arch/arm/cpu/armv7/start.o
 .rel.text.efi_restore_gd
                0x00000000878d74c8        0x8 arch/arm/cpu/armv7/start.o
 .rel.text.efi_signal_event
                0x00000000878d74d0        0x8 arch/arm/cpu/armv7/start.o
 .rel.text.efi_exit_boot_services
                0x00000000878d74d8       0x30 arch/arm/cpu/armv7/start.o
 .rel.text.efi_add_handle
                0x00000000878d7508        0x8 arch/arm/cpu/armv7/start.o
 .rel.text.efi_create_event
                0x00000000878d7510        0x8 arch/arm/cpu/armv7/start.o
 .rel.text.efi_timer_check
                0x00000000878d7518        0x8 arch/arm/cpu/armv7/start.o
 .rel.text.efi_wait_for_event
                0x00000000878d7520        0x8 arch/arm/cpu/armv7/start.o
 .rel.text.efi_restore_tpl
                0x00000000878d7528        0x8 arch/arm/cpu/armv7/start.o
 .rel.text.efi_search_obj
                0x00000000878d7530        0x8 arch/arm/cpu/armv7/start.o
 .rel.text.efi_locate_protocol
                0x00000000878d7538        0x8 arch/arm/cpu/armv7/start.o
 .rel.text.efi_locate_handle
                0x00000000878d7540        0x8 arch/arm/cpu/armv7/start.o
 .rel.text.efi_locate_device_path
                0x00000000878d7548        0x8 arch/arm/cpu/armv7/start.o
 .rel.text.efi_disconnect_controller
                0x00000000878d7550        0x8 arch/arm/cpu/armv7/start.o
 .rel.text.efi_bind_controller
                0x00000000878d7558        0x8 arch/arm/cpu/armv7/start.o
 .rel.text.efi_connect_controller
                0x00000000878d7560        0x8 arch/arm/cpu/armv7/start.o
 .rel.text.efi_add_protocol
                0x00000000878d7568        0x8 arch/arm/cpu/armv7/start.o
 .rel.text.efi_install_configuration_table
                0x00000000878d7570       0x10 arch/arm/cpu/armv7/start.o
 .rel.text.efi_setup_loaded_image
                0x00000000878d7580       0x20 arch/arm/cpu/armv7/start.o
 .rel.text.efi_load_image_from_path
                0x00000000878d75a0       0x10 arch/arm/cpu/armv7/start.o
 .rel.text.efi_load_image
                0x00000000878d75b0        0x8 arch/arm/cpu/armv7/start.o
 .rel.text.efi_initialize_system_table
                0x00000000878d75b8       0x18 arch/arm/cpu/armv7/start.o
 .rel.text.efi_cout_enable_cursor
                0x00000000878d75d0        0x8 arch/arm/cpu/armv7/start.o
 .rel.text.efi_cout_set_cursor_position
                0x00000000878d75d8       0x18 arch/arm/cpu/armv7/start.o
 .rel.text.efi_cout_clear_screen
                0x00000000878d75f0       0x10 arch/arm/cpu/armv7/start.o
 .rel.text.efi_cout_set_attribute
                0x00000000878d7600       0x18 arch/arm/cpu/armv7/start.o
 .rel.text.efi_cout_reset
                0x00000000878d7618        0x8 arch/arm/cpu/armv7/start.o
 .rel.text.efi_cout_output_string
                0x00000000878d7620       0x10 arch/arm/cpu/armv7/start.o
 .rel.text.efi_cin_unregister_key_notify
                0x00000000878d7630        0x8 arch/arm/cpu/armv7/start.o
 .rel.text.efi_cin_empty_buffer
                0x00000000878d7638        0x8 arch/arm/cpu/armv7/start.o
 .rel.text.efi_cin_register_key_notify
                0x00000000878d7640        0x8 arch/arm/cpu/armv7/start.o
 .rel.text.efi_cout_set_mode
                0x00000000878d7648        0x8 arch/arm/cpu/armv7/start.o
 .rel.text.efi_cout_query_mode
                0x00000000878d7650       0x10 arch/arm/cpu/armv7/start.o
 .rel.text.unlikely.analyze_modifiers.constprop.7
                0x00000000878d7660        0x8 arch/arm/cpu/armv7/start.o
 .rel.text.efi_cin_check
                0x00000000878d7668      0x1a8 arch/arm/cpu/armv7/start.o
 .rel.text.efi_cin_read_key_stroke
                0x00000000878d7810       0x18 arch/arm/cpu/armv7/start.o
 .rel.text.efi_cin_read_key_stroke_ex
                0x00000000878d7828       0x18 arch/arm/cpu/armv7/start.o
 .rel.text.efi_console_register
                0x00000000878d7840       0xa0 arch/arm/cpu/armv7/start.o
 .rel.text.dp_fill
                0x00000000878d78e0        0x8 arch/arm/cpu/armv7/start.o
 .rel.text.find_obj
                0x00000000878d78e8       0x10 arch/arm/cpu/armv7/start.o
 .rel.text.efi_dp_append
                0x00000000878d78f8        0x8 arch/arm/cpu/armv7/start.o
 .rel.text.efi_dp_append_node
                0x00000000878d7900        0x8 arch/arm/cpu/armv7/start.o
 .rel.text.efi_dp_append_instance
                0x00000000878d7908        0x8 arch/arm/cpu/armv7/start.o
 .rel.text.efi_dp_from_part
                0x00000000878d7910        0x8 arch/arm/cpu/armv7/start.o
 .rel.text.efi_dp_from_file
                0x00000000878d7918        0x8 arch/arm/cpu/armv7/start.o
 .rel.text.efi_dp_from_eth
                0x00000000878d7920        0x8 arch/arm/cpu/armv7/start.o
 .rel.text.efi_dp_from_mem
                0x00000000878d7928        0x8 arch/arm/cpu/armv7/start.o
 .rel.text.efi_dp_from_name
                0x00000000878d7930       0x10 arch/arm/cpu/armv7/start.o
 .rel.text.efi_convert_single_device_node_to_text
                0x00000000878d7940       0x98 arch/arm/cpu/armv7/start.o
 .rel.text.file_open
                0x00000000878d79d8       0x28 arch/arm/cpu/armv7/start.o
 .rel.text.efi_file_getinfo
                0x00000000878d7a00       0x10 arch/arm/cpu/armv7/start.o
 .rel.text.efi_file_from_path
                0x00000000878d7a10        0x8 arch/arm/cpu/armv7/start.o
 .rel.text.efi_simple_file_system
                0x00000000878d7a18        0x8 arch/arm/cpu/armv7/start.o
 .rel.text.efi_set_code_and_data_type
                0x00000000878d7a20       0x30 arch/arm/cpu/armv7/start.o
 .rel.text.efi_print_image_infos
                0x00000000878d7a50       0x38 arch/arm/cpu/armv7/start.o
 .rel.text.efi_load_pe
                0x00000000878d7a88       0x98 arch/arm/cpu/armv7/start.o
 .rel.text.efi_find_free_memory
                0x00000000878d7b20        0x8 arch/arm/cpu/armv7/start.o
 .rel.text.efi_add_memory_map
                0x00000000878d7b28       0x18 arch/arm/cpu/armv7/start.o
 .rel.text.efi_get_memory_map
                0x00000000878d7b40       0x10 arch/arm/cpu/armv7/start.o
 .rel.text.efi_memory_init
                0x00000000878d7b50       0x10 arch/arm/cpu/armv7/start.o
 .rel.text.efi_root_node_register
                0x00000000878d7b60       0x40 arch/arm/cpu/armv7/start.o
 .rel.text.efi_reset_system_boottime
                0x00000000878d7ba0       0x10 arch/arm/cpu/armv7/start.o
 .rel.text.efi_runtime_relocate
                0x00000000878d7bb0       0x38 arch/arm/cpu/armv7/start.o
 .rel.text.efi_set_virtual_address_map
                0x00000000878d7be8       0x20 arch/arm/cpu/armv7/start.o
 .rel.text.efi_init_obj_list
                0x00000000878d7c08        0x8 arch/arm/cpu/armv7/start.o
 .rel.text.efi_str_to_fat
                0x00000000878d7c10       0x10 arch/arm/cpu/armv7/start.o
 .rel.text.efi_fat_to_str
                0x00000000878d7c20        0x8 arch/arm/cpu/armv7/start.o
 .rel.text.efi_to_native
                0x00000000878d7c28       0x10 arch/arm/cpu/armv7/start.o
 .rel.text.parse_attr
                0x00000000878d7c38       0x20 arch/arm/cpu/armv7/start.o
 .rel.text.efi_get_variable
                0x00000000878d7c58       0x18 arch/arm/cpu/armv7/start.o
 .rel.text.efi_get_next_variable_name
                0x00000000878d7c70       0x20 arch/arm/cpu/armv7/start.o
 .rel.text.efi_set_variable
                0x00000000878d7c90       0x40 arch/arm/cpu/armv7/start.o
 .rel.text.efi_watchdog_timer_notify
                0x00000000878d7cd0       0x10 arch/arm/cpu/armv7/start.o
 .rel.text.efi_set_watchdog
                0x00000000878d7ce0        0x8 arch/arm/cpu/armv7/start.o
 .rel.text.efi_watchdog_register
                0x00000000878d7ce8       0x20 arch/arm/cpu/armv7/start.o
 .rel.text.efi_disk_add_dev.isra.0.part.1
                0x00000000878d7d08       0x38 arch/arm/cpu/armv7/start.o
 .rel.text.efi_fs_from_path
                0x00000000878d7d40        0x8 arch/arm/cpu/armv7/start.o
 .rel.text.efi_disk_create_partitions
                0x00000000878d7d48       0x18 arch/arm/cpu/armv7/start.o
 .rel.text.efi_disk_register
                0x00000000878d7d60       0x20 arch/arm/cpu/armv7/start.o
 .rel.text.efi_net_push
                0x00000000878d7d80       0x10 arch/arm/cpu/armv7/start.o
 .rel.text.efi_network_timer_notify
                0x00000000878d7d90       0x18 arch/arm/cpu/armv7/start.o
 .rel.text.efi_net_get_status
                0x00000000878d7da8       0x10 arch/arm/cpu/armv7/start.o
 .rel.text.efi_net_receive
                0x00000000878d7db8       0x18 arch/arm/cpu/armv7/start.o
 .rel.text.efi_net_transmit
                0x00000000878d7dd0       0x10 arch/arm/cpu/armv7/start.o
 .rel.text.efi_net_set_dhcp_ack
                0x00000000878d7de0        0x8 arch/arm/cpu/armv7/start.o
 .rel.text.efi_net_register
                0x00000000878d7de8       0xc8 arch/arm/cpu/armv7/start.o
 .rel.text.efi_smbios_register
                0x00000000878d7eb0        0x8 arch/arm/cpu/armv7/start.o
 .rel.text.console_read_unicode
                0x00000000878d7eb8        0x8 arch/arm/cpu/armv7/start.o
 .rel.text.utf8_get
                0x00000000878d7ec0        0x8 arch/arm/cpu/armv7/start.o
 .rel.text.utf_to_lower
                0x00000000878d7ec8        0x8 arch/arm/cpu/armv7/start.o
 .rel.text.utf_to_upper
                0x00000000878d7ed0        0x8 arch/arm/cpu/armv7/start.o
 .rel.text.crc16_ccitt
                0x00000000878d7ed8        0x8 arch/arm/cpu/armv7/start.o
 .rel.text.smbios_write_type3
                0x00000000878d7ee0        0x8 arch/arm/cpu/armv7/start.o
 .rel.text.smbios_write_type2
                0x00000000878d7ee8       0x10 arch/arm/cpu/armv7/start.o
 .rel.text.smbios_write_type0
                0x00000000878d7ef8       0x18 arch/arm/cpu/armv7/start.o
 .rel.text.smbios_write_type1
                0x00000000878d7f10       0x18 arch/arm/cpu/armv7/start.o
 .rel.text.smbios_write_type4
                0x00000000878d7f28        0x8 arch/arm/cpu/armv7/start.o
 .rel.text.write_smbios_table
                0x00000000878d7f30       0x18 arch/arm/cpu/armv7/start.o
 .rel.text.write_sparse_image
                0x00000000878d7f48       0xb8 arch/arm/cpu/armv7/start.o
 .rel.text.list_sort
                0x00000000878d8000        0x8 arch/arm/cpu/armv7/start.o
 .rel.text.inflate_fast
                0x00000000878d8008       0x18 arch/arm/cpu/armv7/start.o
 .rel.text.inflate_table
                0x00000000878d8020       0x20 arch/arm/cpu/armv7/start.o
 .rel.text.inflateInit2_
                0x00000000878d8040       0x10 arch/arm/cpu/armv7/start.o
 .rel.text.inflate
                0x00000000878d8050      0x188 arch/arm/cpu/armv7/start.o
 .rel.text.gzip_parse_header
                0x00000000878d81d8       0x10 arch/arm/cpu/armv7/start.o
 .rel.text.zunzip
                0x00000000878d81e8       0x28 arch/arm/cpu/armv7/start.o
 .rel.text.lzop_is_valid_header
                0x00000000878d8210        0x8 arch/arm/cpu/armv7/start.o
 .rel.text.fdt_next_tag
                0x00000000878d8218       0x48 arch/arm/cpu/armv7/start.o
 .rel.text.fdt_strerror
                0x00000000878d8260       0x20 arch/arm/cpu/armv7/start.o
 .rel.text.fdt_address_cells
                0x00000000878d8280        0x8 arch/arm/cpu/armv7/start.o
 .rel.text.fdt_size_cells
                0x00000000878d8288        0x8 arch/arm/cpu/armv7/start.o
 .rel.text.overlay_adjust_node_phandles
                0x00000000878d8290       0x10 arch/arm/cpu/armv7/start.o
 .rel.text.overlay_get_target
                0x00000000878d82a0       0x10 arch/arm/cpu/armv7/start.o
 .rel.text.fdt_overlay_apply
                0x00000000878d82b0       0x30 arch/arm/cpu/armv7/start.o
 .rel.text.fdt_get_phandle
                0x00000000878d82e0       0x10 arch/arm/cpu/armv7/start.o
 .rel.text.fdt_get_alias_namelen
                0x00000000878d82f0        0x8 arch/arm/cpu/armv7/start.o
 .rel.text.fdtdec_get_is_enabled
                0x00000000878d82f8       0x10 arch/arm/cpu/armv7/start.o
 .rel.text.fdtdec_get_alias_seq
                0x00000000878d8308        0x8 arch/arm/cpu/armv7/start.o
 .rel.text.fdtdec_get_alias_highest_id
                0x00000000878d8310        0x8 arch/arm/cpu/armv7/start.o
 .rel.text.fdtdec_prepare_fdt
                0x00000000878d8318        0x8 arch/arm/cpu/armv7/start.o
 .rel.text.fdtdec_get_config_int
                0x00000000878d8320        0x8 arch/arm/cpu/armv7/start.o
 .rel.text.fdtdec_get_config_string
                0x00000000878d8328        0x8 arch/arm/cpu/armv7/start.o
 .rel.text.board_fdt_blob_setup
                0x00000000878d8330        0x8 arch/arm/cpu/armv7/start.o
 .rel.text.fdtdec_setup
                0x00000000878d8338        0x8 arch/arm/cpu/armv7/start.o
 .rel.text.match_string
                0x00000000878d8340        0x8 arch/arm/cpu/armv7/start.o
 .rel.text.match_entry
                0x00000000878d8348        0x8 arch/arm/cpu/armv7/start.o
 .rel.text.hcreate_r
                0x00000000878d8350        0x8 arch/arm/cpu/armv7/start.o
 .rel.text.hdestroy_r
                0x00000000878d8358        0x8 arch/arm/cpu/armv7/start.o
 .rel.text.hmatch_r
                0x00000000878d8360        0x8 arch/arm/cpu/armv7/start.o
 .rel.text.hsearch_r
                0x00000000878d8368        0x8 arch/arm/cpu/armv7/start.o
 .rel.text.hdelete_r
                0x00000000878d8370        0x8 arch/arm/cpu/armv7/start.o
 .rel.text.hexport_r
                0x00000000878d8378       0x18 arch/arm/cpu/armv7/start.o
 .rel.text.himport_r
                0x00000000878d8390       0x20 arch/arm/cpu/armv7/start.o
 .rel.text.display_options_get_banner_priv
                0x00000000878d83b0       0x28 arch/arm/cpu/armv7/start.o
 .rel.text.display_options
                0x00000000878d83d8        0x8 arch/arm/cpu/armv7/start.o
 .rel.text.print_size
                0x00000000878d83e0       0x28 arch/arm/cpu/armv7/start.o
 .rel.text.print_buffer
                0x00000000878d8408       0x28 arch/arm/cpu/armv7/start.o
 .rel.text.hang
                0x00000000878d8430        0x8 arch/arm/cpu/armv7/start.o
 .rel.text.skip_spaces
                0x00000000878d8438        0x8 arch/arm/cpu/armv7/start.o
 .rel.text.strim
                0x00000000878d8440        0x8 arch/arm/cpu/armv7/start.o
 .rel.text.lmb_alloc_base
                0x00000000878d8448        0x8 arch/arm/cpu/armv7/start.o
 .rel.text.emit
                0x00000000878d8450        0x8 arch/arm/cpu/armv7/start.o
 .rel.text.store_char_in_data
                0x00000000878d8458        0x8 arch/arm/cpu/armv7/start.o
 .rel.text.match
                0x00000000878d8460       0x98 arch/arm/cpu/armv7/start.o
 .rel.text.fixup_branch.part.0
                0x00000000878d84f8        0x8 arch/arm/cpu/armv7/start.o
 .rel.text.quantifier
                0x00000000878d8500        0x8 arch/arm/cpu/armv7/start.o
 .rel.text.compile
                0x00000000878d8508       0x28 arch/arm/cpu/armv7/start.o
 .rel.text.strncasecmp
                0x00000000878d8530        0x8 arch/arm/cpu/armv7/start.o
 .rel.text.strtok
                0x00000000878d8538        0x8 arch/arm/cpu/armv7/start.o
 .rel.text.hex_dump_to_buffer
                0x00000000878d8540       0x38 arch/arm/cpu/armv7/start.o
 .rel.text.print_hex_dump
                0x00000000878d8578       0x18 arch/arm/cpu/armv7/start.o
 .rel.text.uuid_str_valid
                0x00000000878d8590        0x8 arch/arm/cpu/armv7/start.o
 .rel.text.uuid_bin_to_str
                0x00000000878d8598       0x18 arch/arm/cpu/armv7/start.o
 .rel.text.number
                0x00000000878d85b0        0x8 arch/arm/cpu/armv7/start.o
 .rel.text.string16
                0x00000000878d85b8        0x8 arch/arm/cpu/armv7/start.o
 .rel.text.string
                0x00000000878d85c0        0x8 arch/arm/cpu/armv7/start.o
 .rel.text.vsnprintf_internal
                0x00000000878d85c8       0x18 arch/arm/cpu/armv7/start.o
 .rel.text.simple_itoa
                0x00000000878d85e0        0x8 arch/arm/cpu/armv7/start.o
 .rel.text._parse_integer_fixup_radix
                0x00000000878d85e8        0x8 arch/arm/cpu/armv7/start.o
 .rel.text.simple_strtoul
                0x00000000878d85f0        0x8 arch/arm/cpu/armv7/start.o
 .rel.text.ustrtoul
                0x00000000878d85f8        0x8 arch/arm/cpu/armv7/start.o
 .rel.text.simple_strtoull
                0x00000000878d8600        0x8 arch/arm/cpu/armv7/start.o
 .rel.text.ustrtoull
                0x00000000878d8608        0x8 arch/arm/cpu/armv7/start.o
 .rel.text.trailing_strtoln
                0x00000000878d8610        0x8 arch/arm/cpu/armv7/start.o
 .rel.rodata.driver_ops
                0x00000000878d8618       0x18 arch/arm/cpu/armv7/start.o
 .rel.rodata.efi_blk_ops
                0x00000000878d8630       0x10 arch/arm/cpu/armv7/start.o
 .rel.rodata.efi_device_path_to_text
                0x00000000878d8640       0x10 arch/arm/cpu/armv7/start.o
 .rel.rodata.efi_device_path_utilities
                0x00000000878d8650       0x40 arch/arm/cpu/armv7/start.o
 .rel.rodata.efi_file_handle_protocol
                0x00000000878d8690       0x50 arch/arm/cpu/armv7/start.o
 .rel.rodata.efi_runtime_detach_list
                0x00000000878d86e0       0x80 arch/arm/cpu/armv7/start.o
 .rel.rodata.efi_unicode_collation_protocol
                0x00000000878d8760       0x38 arch/arm/cpu/armv7/start.o
 .rel.rodata.smbios_write_funcs
                0x00000000878d8798       0x38 arch/arm/cpu/armv7/start.o
 .rel.rodata.fdt_errtable
                0x00000000878d87d0       0x88 arch/arm/cpu/armv7/start.o
 .rel.u_boot_list_2_uclass_2_efi
                0x00000000878d8858       0x18 arch/arm/cpu/armv7/start.o
 .rel.u_boot_list_2_driver_2_efi_blk
                0x00000000878d8870       0x10 arch/arm/cpu/armv7/start.o
 .rel.u_boot_list_2_driver_2_efi_block
                0x00000000878d8880       0x10 arch/arm/cpu/armv7/start.o
 .rel.data.efi_boot_services
                0x00000000878d8890      0x158 arch/arm/cpu/armv7/start.o
 .rel.data.efi_events
                0x00000000878d89e8       0x10 arch/arm/cpu/armv7/start.o
 .rel.data.efi_obj_list
                0x00000000878d89f8       0x10 arch/arm/cpu/armv7/start.o
 .rel.data.cin_notify_functions
                0x00000000878d8a08       0x10 arch/arm/cpu/armv7/start.o
 .rel.data.efi_con_in
                0x00000000878d8a18       0x10 arch/arm/cpu/armv7/start.o
 .rel.data.efi_con_out
                0x00000000878d8a28       0x50 arch/arm/cpu/armv7/start.o
 .rel.data.efi_con_in_ex
                0x00000000878d8a78       0x28 arch/arm/cpu/armv7/start.o
 .rel.data.efi_mem
                0x00000000878d8aa0       0x10 arch/arm/cpu/armv7/start.o
 .rel.data.efi_runtime_mmio
                0x00000000878d8ab0       0x10 arch/arm/cpu/armv7/start.o
 .rel.data.current
                0x00000000878d8ac0        0x8 arch/arm/cpu/armv7/start.o
 .rel.text.arp_init
                0x00000000878d8ac8       0x30 arch/arm/cpu/armv7/start.o
 .rel.text.arp_raw_request
                0x00000000878d8af8       0x18 arch/arm/cpu/armv7/start.o
 .rel.text.arp_request
                0x00000000878d8b10       0x38 arch/arm/cpu/armv7/start.o
 .rel.text.arp_timeout_check
                0x00000000878d8b48       0x28 arch/arm/cpu/armv7/start.o
 .rel.text.arp_receive
                0x00000000878d8b70       0x40 arch/arm/cpu/armv7/start.o
 .rel.text.arp_is_waiting
                0x00000000878d8bb0        0x8 arch/arm/cpu/armv7/start.o
 .rel.text.dhcp_extended
                0x00000000878d8bb8       0x28 arch/arm/cpu/armv7/start.o
 .rel.text.dhcp_process_options
                0x00000000878d8be0       0x70 arch/arm/cpu/armv7/start.o
 .rel.text.dhcp_packet_process_options
                0x00000000878d8c50        0x8 arch/arm/cpu/armv7/start.o
 .rel.text.dhcp_handler
                0x00000000878d8c58       0x98 arch/arm/cpu/armv7/start.o
 .rel.text.bootp_reset
                0x00000000878d8cf0       0x20 arch/arm/cpu/armv7/start.o
 .rel.text.bootp_request
                0x00000000878d8d10       0x78 arch/arm/cpu/armv7/start.o
 .rel.text.bootp_timeout_handler
                0x00000000878d8d88       0x28 arch/arm/cpu/armv7/start.o
 .rel.text.eth_write_hwaddr
                0x00000000878d8db0       0x10 arch/arm/cpu/armv7/start.o
 .rel.text.eth_post_probe
                0x00000000878d8dc0       0x30 arch/arm/cpu/armv7/start.o
 .rel.text.eth_post_bind
                0x00000000878d8df0        0x8 arch/arm/cpu/armv7/start.o
 .rel.text.eth_get_dev
                0x00000000878d8df8        0x8 arch/arm/cpu/armv7/start.o
 .rel.text.eth_set_dev
                0x00000000878d8e00        0x8 arch/arm/cpu/armv7/start.o
 .rel.text.eth_get_dev_by_name
                0x00000000878d8e08        0x8 arch/arm/cpu/armv7/start.o
 .rel.text.eth_init
                0x00000000878d8e10       0x28 arch/arm/cpu/armv7/start.o
 .rel.text.eth_initialize
                0x00000000878d8e38       0x28 arch/arm/cpu/armv7/start.o
 .rel.text.eth_env_get_enetaddr_by_index
                0x00000000878d8e60       0x10 arch/arm/cpu/armv7/start.o
 .rel.text.eth_env_set_enetaddr_by_index
                0x00000000878d8e70       0x10 arch/arm/cpu/armv7/start.o
 .rel.text.eth_mac_skip
                0x00000000878d8e80       0x10 arch/arm/cpu/armv7/start.o
 .rel.text.eth_get_name
                0x00000000878d8e90        0x8 arch/arm/cpu/armv7/start.o
 .rel.text.eth_current_changed
                0x00000000878d8e98       0x18 arch/arm/cpu/armv7/start.o
 .rel.text.eth_try_another
                0x00000000878d8eb0       0x20 arch/arm/cpu/armv7/start.o
 .rel.text.eth_set_current
                0x00000000878d8ed0       0x20 arch/arm/cpu/armv7/start.o
 .rel.text.start_again_timeout_handler
                0x00000000878d8ef0        0x8 arch/arm/cpu/armv7/start.o
 .rel.text.on_ipaddr
                0x00000000878d8ef8        0x8 arch/arm/cpu/armv7/start.o
 .rel.text.on_gatewayip
                0x00000000878d8f00        0x8 arch/arm/cpu/armv7/start.o
 .rel.text.on_netmask
                0x00000000878d8f08        0x8 arch/arm/cpu/armv7/start.o
 .rel.text.on_serverip
                0x00000000878d8f10        0x8 arch/arm/cpu/armv7/start.o
 .rel.text.net_init_loop
                0x00000000878d8f18        0x8 arch/arm/cpu/armv7/start.o
 .rel.text.net_clear_handlers
                0x00000000878d8f20       0x20 arch/arm/cpu/armv7/start.o
 .rel.text.net_init
                0x00000000878d8f40       0x20 arch/arm/cpu/armv7/start.o
 .rel.text.net_start_again
                0x00000000878d8f60       0x78 arch/arm/cpu/armv7/start.o
 .rel.text.net_set_udp_handler
                0x00000000878d8fd8       0x10 arch/arm/cpu/armv7/start.o
 .rel.text.net_get_arp_handler
                0x00000000878d8fe8        0x8 arch/arm/cpu/armv7/start.o
 .rel.text.net_set_timeout_handler
                0x00000000878d8ff0       0x18 arch/arm/cpu/armv7/start.o
 .rel.text.net_get_async_tx_pkt_buf
                0x00000000878d9008       0x10 arch/arm/cpu/armv7/start.o
 .rel.text.net_process_received_packet
                0x00000000878d9018       0x40 arch/arm/cpu/armv7/start.o
 .rel.text.net_eth_hdr_size
                0x00000000878d9058        0x8 arch/arm/cpu/armv7/start.o
 .rel.text.net_set_ether
                0x00000000878d9060       0x10 arch/arm/cpu/armv7/start.o
 .rel.text.net_update_ether
                0x00000000878d9070        0x8 arch/arm/cpu/armv7/start.o
 .rel.text.net_set_ip_header
                0x00000000878d9078        0x8 arch/arm/cpu/armv7/start.o
 .rel.text.net_set_udp_header
                0x00000000878d9080        0x8 arch/arm/cpu/armv7/start.o
 .rel.text.net_send_ip_packet
                0x00000000878d9088       0x40 arch/arm/cpu/armv7/start.o
 .rel.text.is_serverip_in_cmd
                0x00000000878d90c8        0x8 arch/arm/cpu/armv7/start.o
 .rel.text.net_check_prereq
                0x00000000878d90d0       0xd0 arch/arm/cpu/armv7/start.o
 .rel.text.net_auto_load
                0x00000000878d91a0       0x28 arch/arm/cpu/armv7/start.o
 .rel.text.net_loop
                0x00000000878d91c8       0xb8 arch/arm/cpu/armv7/start.o
 .rel.text.net_parse_bootfile
                0x00000000878d9280        0x8 arch/arm/cpu/armv7/start.o
 .rel.text.ip_to_string
                0x00000000878d9288        0x8 arch/arm/cpu/armv7/start.o
 .rel.text.on_nvlan
                0x00000000878d9290        0x8 arch/arm/cpu/armv7/start.o
 .rel.text.on_vlan
                0x00000000878d9298        0x8 arch/arm/cpu/armv7/start.o
 .rel.text.rpc_lookup_reply
                0x00000000878d92a0       0x18 arch/arm/cpu/armv7/start.o
 .rel.text.nfs_mount_reply
                0x00000000878d92b8       0x18 arch/arm/cpu/armv7/start.o
 .rel.text.nfs_umountall_reply
                0x00000000878d92d0       0x18 arch/arm/cpu/armv7/start.o
 .rel.text.nfs_lookup_reply
                0x00000000878d92e8       0x30 arch/arm/cpu/armv7/start.o
 .rel.text.nfs_readlink_reply
                0x00000000878d9318       0x20 arch/arm/cpu/armv7/start.o
 .rel.text.rpc_req
                0x00000000878d9338       0x40 arch/arm/cpu/armv7/start.o
 .rel.text.nfs_umountall_req
                0x00000000878d9378       0x10 arch/arm/cpu/armv7/start.o
 .rel.text.nfs_read_reply.isra.2
                0x00000000878d9388       0x30 arch/arm/cpu/armv7/start.o
 .rel.text.nfs_readlink_req
                0x00000000878d93b8       0x18 arch/arm/cpu/armv7/start.o
 .rel.text.nfs_read_req
                0x00000000878d93d0       0x18 arch/arm/cpu/armv7/start.o
 .rel.text.nfs_lookup_req
                0x00000000878d93e8       0x10 arch/arm/cpu/armv7/start.o
 .rel.text.nfs_send
                0x00000000878d93f8       0x68 arch/arm/cpu/armv7/start.o
 .rel.text.nfs_handler
                0x00000000878d9460       0xa8 arch/arm/cpu/armv7/start.o
 .rel.text.nfs_timeout_handler
                0x00000000878d9508       0x20 arch/arm/cpu/armv7/start.o
 .rel.text.nfs_start
                0x00000000878d9528       0xd0 arch/arm/cpu/armv7/start.o
 .rel.text.ping_timeout_handler
                0x00000000878d95f8        0x8 arch/arm/cpu/armv7/start.o
 .rel.text.ping_start
                0x00000000878d9600       0x58 arch/arm/cpu/armv7/start.o
 .rel.text.ping_receive
                0x00000000878d9658       0x18 arch/arm/cpu/armv7/start.o
 .rel.text.tftp_send
                0x00000000878d9670       0xb8 arch/arm/cpu/armv7/start.o
 .rel.text.tftp_handler
                0x00000000878d9728       0xe0 arch/arm/cpu/armv7/start.o
 .rel.text.tftp_timeout_handler
                0x00000000878d9808       0x40 arch/arm/cpu/armv7/start.o
 .rel.text.tftp_start
                0x00000000878d9848      0x168 arch/arm/cpu/armv7/start.o
 .rel.u_boot_list_2_uclass_2_eth
                0x00000000878d99b0       0x28 arch/arm/cpu/armv7/start.o
 .rel.u_boot_list_2_env_clbk_2_ethaddr
                0x00000000878d99d8       0x10 arch/arm/cpu/armv7/start.o
 .rel.u_boot_list_2_env_clbk_2_ipaddr
                0x00000000878d99e8       0x10 arch/arm/cpu/armv7/start.o
 .rel.u_boot_list_2_env_clbk_2_vlan
                0x00000000878d99f8       0x10 arch/arm/cpu/armv7/start.o
 .rel.u_boot_list_2_env_clbk_2_serverip
                0x00000000878d9a08       0x10 arch/arm/cpu/armv7/start.o
 .rel.u_boot_list_2_env_clbk_2_netmask
                0x00000000878d9a18       0x10 arch/arm/cpu/armv7/start.o
 .rel.u_boot_list_2_env_clbk_2_nvlan
                0x00000000878d9a28       0x10 arch/arm/cpu/armv7/start.o
 .rel.u_boot_list_2_env_clbk_2_gatewayip
                0x00000000878d9a38       0x10 arch/arm/cpu/armv7/start.o

.rel_dyn_end    0x00000000878d9a48        0x0
 *(.__rel_dyn_end)
 .__rel_dyn_end
                0x00000000878d9a48        0x0 arch/arm/lib/built-in.o

.end            0x00000000878d9a48        0x0
 *(.__end)
 .__end         0x00000000878d9a48        0x0 arch/arm/lib/built-in.o
                0x00000000878d9a48                _image_binary_end = .
                0x00000000878da000                . = ALIGN (0x1000)

.mmutable
 *(.mmutable)

.bss_start      0x00000000878c89d8        0x0
 *(.__bss_start)
 .__bss_start   0x00000000878c89d8        0x0 arch/arm/lib/built-in.o
                0x00000000878c89d8                __bss_start
                0x00000000878c89d8                __bss_base = .

.bss            0x00000000878c89d8    0x1a77c
 *(.bss*)
 .bss.params    0x00000000878c89d8        0x4 arch/arm/lib/built-in.o
 .bss.modes     0x00000000878c89dc        0x8 arch/arm/mach-imx/built-in.o
 .bss.bootefi_device_path
                0x00000000878c89e4        0x4 cmd/built-in.o
 .bss.bootefi_image_path
                0x00000000878c89e8        0x4 cmd/built-in.o
 .bss.data.9081
                0x00000000878c89ec      0x400 cmd/built-in.o
 .bss.working_fdt
                0x00000000878c8dec        0x4 cmd/built-in.o
                0x00000000878c8dec                working_fdt
 .bss.i2c_mm_last_chip
                0x00000000878c8df0        0x4 cmd/built-in.o
 .bss.i2c_mm_last_alen
                0x00000000878c8df4        0x4 cmd/built-in.o
 .bss.i2c_mm_last_addr
                0x00000000878c8df8        0x4 cmd/built-in.o
 .bss.i2c_dp_last_chip
                0x00000000878c8dfc        0x4 cmd/built-in.o
 .bss.i2c_dp_last_addr
                0x00000000878c8e00        0x4 cmd/built-in.o
 .bss.i2c_cur_bus
                0x00000000878c8e04        0x4 cmd/built-in.o
 .bss.i2c_dp_last_alen
                0x00000000878c8e08        0x4 cmd/built-in.o
 .bss.send_parms
                0x00000000878c8e0c       0x14 cmd/built-in.o
 .bss.os_data_init
                0x00000000878c8e20        0x4 cmd/built-in.o
 .bss.os_data_addr_saved
                0x00000000878c8e24        0x4 cmd/built-in.o
 .bss.his_pad_char
                0x00000000878c8e28        0x1 cmd/built-in.o
 .bss.a_b       0x00000000878c8e29       0x18 cmd/built-in.o
 *fill*         0x00000000878c8e41        0x3 
 .bss.os_data_char
                0x00000000878c8e44        0x4 cmd/built-in.o
 .bss.os_data_state
                0x00000000878c8e48        0x4 cmd/built-in.o
 .bss.k_data_escape
                0x00000000878c8e4c        0x4 cmd/built-in.o
 .bss.os_data_state_saved
                0x00000000878c8e50        0x4 cmd/built-in.o
 .bss.os_data_addr
                0x00000000878c8e54        0x4 cmd/built-in.o
 .bss.send_ptr  0x00000000878c8e58        0x4 cmd/built-in.o
 .bss.bin_start_address
                0x00000000878c8e5c        0x4 cmd/built-in.o
 .bss.his_quote
                0x00000000878c8e60        0x1 cmd/built-in.o
 *fill*         0x00000000878c8e61        0x3 
 .bss.his_pad_count
                0x00000000878c8e64        0x4 cmd/built-in.o
 .bss.his_eol   0x00000000878c8e68        0x1 cmd/built-in.o
 *fill*         0x00000000878c8e69        0x3 
 .bss.k_data_escape_saved
                0x00000000878c8e6c        0x4 cmd/built-in.o
 .bss.dp_last_addr
                0x00000000878c8e70        0x4 cmd/built-in.o
 .bss.base_address
                0x00000000878c8e74        0x4 cmd/built-in.o
 .bss.mm_last_size
                0x00000000878c8e78        0x4 cmd/built-in.o
 .bss.mm_last_addr
                0x00000000878c8e7c        0x4 cmd/built-in.o
 .bss.dp_last_size
                0x00000000878c8e80        0x4 cmd/built-in.o
 .bss.last_data
                0x00000000878c8e84        0x8 cmd/built-in.o
 .bss.last_reg_hi
                0x00000000878c8e8c        0x8 cmd/built-in.o
 .bss.last_mask
                0x00000000878c8e94        0x4 cmd/built-in.o
 .bss.last_addr_lo
                0x00000000878c8e98        0x8 cmd/built-in.o
 .bss.last_op   0x00000000878c8ea0        0x4 cmd/built-in.o
 .bss.last_addr_hi
                0x00000000878c8ea4        0x8 cmd/built-in.o
 .bss.last_reg_lo
                0x00000000878c8eac        0x8 cmd/built-in.o
 .bss.last_devad_hi
                0x00000000878c8eb4        0x4 cmd/built-in.o
 .bss.last_devad_lo
                0x00000000878c8eb8        0x4 cmd/built-in.o
 .bss.last_ids  0x00000000878c8ebc       0x81 cmd/built-in.o
 *fill*         0x00000000878c8f3d        0x3 
 .bss.initialized.11689
                0x00000000878c8f40        0x4 cmd/built-in.o
 .bss.current_mtd_dev
                0x00000000878c8f44        0x4 cmd/built-in.o
                0x00000000878c8f44                current_mtd_dev
 .bss.use_defaults
                0x00000000878c8f48        0x1 cmd/built-in.o
                0x00000000878c8f48                use_defaults
 .bss.last_partition
                0x00000000878c8f49       0x11 cmd/built-in.o
 .bss.last_parts
                0x00000000878c8f5a      0x201 cmd/built-in.o
 .bss.current_mtd_partnum
                0x00000000878c915b        0x1 cmd/built-in.o
                0x00000000878c915b                current_mtd_partnum
 .bss.mtdids    0x00000000878c915c        0x8 cmd/built-in.o
 .bss.devices   0x00000000878c9164        0x8 cmd/built-in.o
 *fill*         0x00000000878c916c        0x4 
 .bss.last.11491
                0x00000000878c9170        0x8 cmd/built-in.o
 .bss.currdev   0x00000000878c9178        0x4 cmd/built-in.o
 .bss.flash     0x00000000878c917c        0x4 cmd/built-in.o
 .bss.ubi       0x00000000878c9180        0x4 cmd/built-in.o
 .bss.ubifs_initialized
                0x00000000878c9184        0x4 cmd/built-in.o
 .bss.ubifs_mounted
                0x00000000878c9188        0x4 cmd/built-in.o
 .bss.flag_repeat
                0x00000000878c918c        0x4 common/built-in.o
 .bss.the_command.8472
                0x00000000878c9190      0x201 common/built-in.o
 *fill*         0x00000000878c9391        0x3 
 .bss.ifs       0x00000000878c9394        0x4 common/built-in.o
 .bss.buf.8672  0x00000000878c9398       0x28 common/built-in.o
 .bss.last_return_code
                0x00000000878c93c0        0x4 common/built-in.o
 .bss.map       0x00000000878c93c4      0x100 common/built-in.o
 .bss.do_repeat
                0x00000000878c94c4        0x4 common/built-in.o
 .bss.top_vars  0x00000000878c94c8        0x4 common/built-in.o
 .bss.stored_bootdelay
                0x00000000878c94cc        0x4 common/built-in.o
 .bss.monitor_flash_len
                0x00000000878c94d0        0x4 common/built-in.o
                0x00000000878c94d0                monitor_flash_len
 .bss.images    0x00000000878c94d4      0x130 common/built-in.o
                0x00000000878c94d4                images
 .bss.current_mii
                0x00000000878c9604        0x4 common/built-in.o
 .bss.mii_devs  0x00000000878c9608        0x8 common/built-in.o
 .bss.usb_started
                0x00000000878c9610        0x1 common/built-in.o
                0x00000000878c9610                usb_started
 *fill*         0x00000000878c9611        0x3 
 .bss.running.11184
                0x00000000878c9614        0x4 common/built-in.o
 .bss.usb_max_devs
                0x00000000878c9618        0x4 common/built-in.o
 .bss.CBWTag    0x00000000878c961c        0x4 common/built-in.o
 *fill*         0x00000000878c9620       0x20 
 .bss.usb_ccb   0x00000000878c9640       0xc0 common/built-in.o
 .bss.hist_list
                0x00000000878c9700       0x50 common/built-in.o
 .bss.initted.8285
                0x00000000878c9750        0x4 common/built-in.o
 .bss.hist_lines
                0x00000000878c9754     0x2814 common/built-in.o
 .bss.hist_max  0x00000000878cbf68        0x4 common/built-in.o
 .bss.hist_add_idx
                0x00000000878cbf6c        0x4 common/built-in.o
 .bss.hist_num  0x00000000878cbf70        0x4 common/built-in.o
 .bss.console_buffer
                0x00000000878cbf74      0x201 common/built-in.o
                0x00000000878cbf74                console_buffer
 *fill*         0x00000000878cc175        0x3 
 .bss.ctrlc_was_pressed
                0x00000000878cc178        0x4 common/built-in.o
 .bss.cd_count  0x00000000878cc17c        0xc common/built-in.o
                0x00000000878cc17c                cd_count
 .bss.tstcdev   0x00000000878cc188        0x4 common/built-in.o
 .bss.ctrlc_disabled
                0x00000000878cc18c        0x4 common/built-in.o
 .bss.console_devices
                0x00000000878cc190        0xc common/built-in.o
                0x00000000878cc190                console_devices
 .bss.max_total_mem
                0x00000000878cc19c        0x4 common/built-in.o
 .bss.mem_malloc_brk
                0x00000000878cc1a0        0x4 common/built-in.o
                0x00000000878cc1a0                mem_malloc_brk
 .bss.max_sbrked_mem
                0x00000000878cc1a4        0x4 common/built-in.o
 .bss.current_mallinfo
                0x00000000878cc1a8       0x28 common/built-in.o
 .bss.mem_malloc_end
                0x00000000878cc1d0        0x4 common/built-in.o
                0x00000000878cc1d0                mem_malloc_end
 .bss.top_pad   0x00000000878cc1d4        0x4 common/built-in.o
 .bss.mem_malloc_start
                0x00000000878cc1d8        0x4 common/built-in.o
                0x00000000878cc1d8                mem_malloc_start
 .bss.andr_tmp_str
                0x00000000878cc1dc      0x201 common/built-in.o
 *fill*         0x00000000878cc3dd        0x3 
 .bss.devs      0x00000000878cc3e0       0x4c common/built-in.o
 .bss.stdio_devices
                0x00000000878cc42c        0xc common/built-in.o
                0x00000000878cc42c                stdio_devices
 .bss.tmp_buf   0x00000000878cc438      0x201 common/built-in.o
 .bss.env_complete_buf
                0x00000000878cc639      0x200 common/built-in.o
 *fill*         0x00000000878cc839        0x3 
 .bss.xyz       0x00000000878cc83c      0x434 common/built-in.o
 .bss.name.9391
                0x00000000878ccc70       0x25 disk/built-in.o
 *fill*         0x00000000878ccc95        0x3 
 .bss.imx6_pinctrl_soc_info
                0x00000000878ccc98       0x10 drivers/built-in.o
 .bss.fastboot_buf_addr
                0x00000000878ccca8        0x4 drivers/built-in.o
                0x00000000878ccca8                fastboot_buf_addr
 .bss.fastboot_progress_callback
                0x00000000878cccac        0x4 drivers/built-in.o
                0x00000000878cccac                fastboot_progress_callback
 .bss.fastboot_buf_size
                0x00000000878cccb0        0x4 drivers/built-in.o
                0x00000000878cccb0                fastboot_buf_size
 .bss.boot_addr_start.8159
                0x00000000878cccb4       0x14 drivers/built-in.o
 .bss.metrics   0x00000000878cccc8       0x1c drivers/built-in.o
                0x00000000878cccc8                metrics
 .bss.g_a_cmd_buff
                0x00000000878ccce4       0x40 drivers/built-in.o
 .bss.fastboot_bytes_received
                0x00000000878ccd24        0x4 drivers/built-in.o
 .bss.fastboot_bytes_expected
                0x00000000878ccd28        0x4 drivers/built-in.o
 .bss.boot_dev_part.12507
                0x00000000878ccd2c       0x20 drivers/built-in.o
 .bss.serial.12514
                0x00000000878ccd4c       0x20 drivers/built-in.o
 .bss.g_pcount  0x00000000878ccd6c        0x4 drivers/built-in.o
                0x00000000878ccd6c                g_pcount
 .bss.g_ptable  0x00000000878ccd70      0xc00 drivers/built-in.o
                0x00000000878ccd70                g_ptable
 .bss.initialized.11238
                0x00000000878cd970        0x4 drivers/built-in.o
 .bss.cursor_state
                0x00000000878cd974        0x4 drivers/built-in.o
 .bss.old_row   0x00000000878cd978        0x4 drivers/built-in.o
 .bss.video_console_address
                0x00000000878cd97c        0x4 drivers/built-in.o
 .bss.ansi_buf_size
                0x00000000878cd980        0x4 drivers/built-in.o
 .bss.ansi_buf  0x00000000878cd984        0xa drivers/built-in.o
 *fill*         0x00000000878cd98e        0x2 
 .bss.video_logo_xpos
                0x00000000878cd990        0x4 drivers/built-in.o
 .bss.cfb_do_flush_cache
                0x00000000878cd994        0x4 drivers/built-in.o
 .bss.bgx       0x00000000878cd998        0x4 drivers/built-in.o
 .bss.old_col   0x00000000878cd99c        0x4 drivers/built-in.o
 .bss.eorx      0x00000000878cd9a0        0x4 drivers/built-in.o
 .bss.ansi_cursor_hidden
                0x00000000878cd9a4        0x4 drivers/built-in.o
 .bss.console_col
                0x00000000878cd9a8        0x4 drivers/built-in.o
 .bss.console_row
                0x00000000878cd9ac        0x4 drivers/built-in.o
 .bss.ansi_colors_need_revert
                0x00000000878cd9b0        0x4 drivers/built-in.o
 .bss.video_fb_address
                0x00000000878cd9b4        0x4 drivers/built-in.o
 .bss.video_logo_ypos
                0x00000000878cd9b8        0x4 drivers/built-in.o
 .bss.pGD       0x00000000878cd9bc        0x4 drivers/built-in.o
 .bss.fgx       0x00000000878cd9c0        0x4 drivers/built-in.o
 .bss.fbmode    0x00000000878cd9c4       0x38 drivers/built-in.o
 .bss.panel     0x00000000878cd9fc       0x90 drivers/built-in.o
 .bss.setup     0x00000000878cda8c        0x4 drivers/built-in.o
 .bss.depth     0x00000000878cda90        0x4 drivers/built-in.o
 .bss.mxs_dma_channels
                0x00000000878cda94      0x140 drivers/dma/built-in.o
 .bss.mtd_idr   0x00000000878cdbd4      0x204 drivers/mtd/built-in.o
 .bss.tmp_parts.10713
                0x00000000878cddd8      0x200 drivers/mtd/built-in.o
 .bss.mtd_del_all_parts_failed
                0x00000000878cdfd8        0x1 drivers/mtd/built-in.o
 *fill*         0x00000000878cdfd9        0x3 
 .bss.old_mtdids.10736
                0x00000000878cdfdc        0x4 drivers/mtd/built-in.o
 .bss.old_mtdparts.10735
                0x00000000878cdfe0        0x4 drivers/mtd/built-in.o
 .bss.nand_info
                0x00000000878cdfe4        0x4 drivers/mtd/nand/raw/built-in.o
 .bss.total_nand_size
                0x00000000878cdfe8        0x4 drivers/mtd/nand/raw/built-in.o
 .bss.dev_name  0x00000000878cdfec        0x8 drivers/mtd/nand/raw/built-in.o
 .bss.initialized.11290
                0x00000000878cdff4        0x4 drivers/mtd/nand/raw/built-in.o
 .bss.nand_flag
                0x00000000878cdff8        0x1 drivers/mtd/nand/raw/built-in.o
 *fill*         0x00000000878cdff9        0x3 
 .bss.fake_ecc_layout
                0x00000000878cdffc      0xba8 drivers/mtd/nand/raw/built-in.o
                0x00000000878cdffc                fake_ecc_layout
 .bss.vidh      0x00000000878ceba4        0x4 drivers/mtd/ubi/built-in.o
 .bss.ech       0x00000000878ceba8        0x4 drivers/mtd/ubi/built-in.o
 .bss.mtd_devs  0x00000000878cebac        0x4 drivers/mtd/ubi/built-in.o
 .bss.ubi_wl_entry_slab
                0x00000000878cebb0        0x4 drivers/mtd/ubi/built-in.o
                0x00000000878cebb0                ubi_wl_entry_slab
 .bss.ubi_devices
                0x00000000878cebb4       0x80 drivers/mtd/ubi/built-in.o
                0x00000000878cebb4                ubi_devices
 .bss.mtd_dev_param
                0x00000000878cec34      0x980 drivers/mtd/ubi/built-in.o
 .bss.empty_vtbl_record
                0x00000000878cf5b4       0xac drivers/mtd/ubi/built-in.o
 .bss.serial_devices
                0x00000000878cf660        0x4 drivers/serial/built-in.o
 .bss.serial_current
                0x00000000878cf664        0x4 drivers/serial/built-in.o
 .bss.wr_sfaddr.11021
                0x00000000878cf668        0x4 drivers/spi/built-in.o
 .bss.epnum     0x00000000878cf66c        0x4 drivers/usb/gadget/built-in.o
 .bss.os_desc_config
                0x00000000878cf670        0x4 drivers/usb/gadget/built-in.o
 .bss.g_dnl_detach_request
                0x00000000878cf674        0x1 drivers/usb/gadget/built-in.o
 .bss.g_dnl_serial
                0x00000000878cf675      0x100 drivers/usb/gadget/built-in.o
 *fill*         0x00000000878cf775        0x3 
 .bss.composite
                0x00000000878cf778        0x4 drivers/usb/gadget/built-in.o
 .bss.fastboot_func
                0x00000000878cf77c        0x4 drivers/usb/gadget/built-in.o
 .bss.asynch_allowed
                0x00000000878cf780        0x1 drivers/usb/host/built-in.o
 *fill*         0x00000000878cf781        0x3 
 .bss.callback_list
                0x00000000878cf784        0x4 env/built-in.o
 .bss.flags_list
                0x00000000878cf788        0x4 env/built-in.o
 .bss.env_mmc_orig_hwpart
                0x00000000878cf78c        0x1 env/built-in.o
 *fill*         0x00000000878cf78d        0x3 
 .bss.fs_partition
                0x00000000878cf790       0x78 fs/built-in.o
 .bss.fs_type   0x00000000878cf808        0x4 fs/built-in.o
 .bss.fs_dev_desc
                0x00000000878cf80c        0x4 fs/built-in.o
 .bss.fs_dev_part
                0x00000000878cf810        0x4 fs/built-in.o
 *fill*         0x00000000878cf814        0x4 
 .bss.ext_fs    0x00000000878cf818       0x48 fs/built-in.o
                0x00000000878cf818                ext_fs
 .bss.ext4fs_indir3_block
                0x00000000878cf860        0x4 fs/built-in.o
                0x00000000878cf860                ext4fs_indir3_block
 .bss.ext4fs_root
                0x00000000878cf864        0x4 fs/built-in.o
                0x00000000878cf864                ext4fs_root
 .bss.ext4fs_indir3_size
                0x00000000878cf868        0x4 fs/built-in.o
                0x00000000878cf868                ext4fs_indir3_size
 .bss.ext4fs_indir1_block
                0x00000000878cf86c        0x4 fs/built-in.o
                0x00000000878cf86c                ext4fs_indir1_block
 .bss.ext4fs_indir2_size
                0x00000000878cf870        0x4 fs/built-in.o
                0x00000000878cf870                ext4fs_indir2_size
 .bss.ext4fs_indir2_block
                0x00000000878cf874        0x4 fs/built-in.o
                0x00000000878cf874                ext4fs_indir2_block
 .bss.ext4fs_indir1_size
                0x00000000878cf878        0x4 fs/built-in.o
                0x00000000878cf878                ext4fs_indir1_size
 .bss.symlinknest
                0x00000000878cf87c        0x4 fs/built-in.o
 .bss.ext4fs_file
                0x00000000878cf880        0x4 fs/built-in.o
                0x00000000878cf880                ext4fs_file
 .bss.g_parent_inode
                0x00000000878cf884        0x4 fs/built-in.o
                0x00000000878cf884                g_parent_inode
 .bss.part_info
                0x00000000878cf888        0x4 fs/built-in.o
 .bss.part_offset
                0x00000000878cf88c        0x4 fs/built-in.o
                0x00000000878cf88c                part_offset
 .bss.ext4fs_blk_desc
                0x00000000878cf890        0x4 fs/built-in.o
 .bss.journal_ptr
                0x00000000878cf894      0x190 fs/built-in.o
                0x00000000878cf894                journal_ptr
 .bss.revk_blk_list
                0x00000000878cfa24        0x4 fs/built-in.o
 .bss.gindex    0x00000000878cfa28        0x4 fs/built-in.o
                0x00000000878cfa28                gindex
 .bss.gd_index  0x00000000878cfa2c        0x4 fs/built-in.o
                0x00000000878cfa2c                gd_index
 .bss.dirty_block_ptr
                0x00000000878cfa30      0x190 fs/built-in.o
                0x00000000878cfa30                dirty_block_ptr
 .bss.prev_node
                0x00000000878cfbc0        0x4 fs/built-in.o
 .bss.jrnl_blk_idx
                0x00000000878cfbc4        0x4 fs/built-in.o
                0x00000000878cfbc4                jrnl_blk_idx
 *fill*         0x00000000878cfbc8       0x38 
 .bss.tmpbuf_cluster
                0x00000000878cfc00    0x10000 fs/built-in.o
 .bss.cur_part_info
                0x00000000878dfc00       0x78 fs/built-in.o
 .bss.total_sector
                0x00000000878dfc78        0x4 fs/built-in.o
 .bss.cur_dev   0x00000000878dfc7c        0x4 fs/built-in.o
 .bss.ubifs_compressors
                0x00000000878dfc80        0xc fs/built-in.o
                0x00000000878dfc80                ubifs_compressors
 .bss.ubifs_clean_zn_cnt
                0x00000000878dfc8c        0x4 fs/built-in.o
                0x00000000878dfc8c                ubifs_clean_zn_cnt
 .bss.ubifs_sb  0x00000000878dfc90        0x4 fs/built-in.o
                0x00000000878dfc90                ubifs_sb
 .bss.inodes_locked_down
                0x00000000878dfc94      0x100 fs/built-in.o
 .bss.ubifs_inode_slab
                0x00000000878dfd94        0x4 fs/built-in.o
                0x00000000878dfd94                ubifs_inode_slab
 .bss.rs        0x00000000878dfd98        0x4 lib/built-in.o
 .bss.bs        0x00000000878dfd9c        0x4 lib/built-in.o
 .bss.ret.10525
                0x00000000878dfda0        0x4 lib/built-in.o
 .bss.app_gd    0x00000000878dfda4        0x4 lib/built-in.o
 .bss.efi_gd    0x00000000878dfda8        0x4 lib/built-in.o
 *fill*         0x00000000878dfdac        0x4 
 .bss.mono.10621
                0x00000000878dfdb0        0x8 lib/built-in.o
 .bss.key_available
                0x00000000878dfdb8        0x1 lib/built-in.o
 *fill*         0x00000000878dfdb9        0x3 
 .bss.next_key  0x00000000878dfdbc        0xc lib/built-in.o
 .bss.console_timer_event
                0x00000000878dfdc8        0x4 lib/built-in.o
 .bss.efi_memory_map_key
                0x00000000878dfdcc        0x4 lib/built-in.o
                0x00000000878dfdcc                efi_memory_map_key
 .bss.efi_cur_variable
                0x00000000878dfdd0        0x4 lib/built-in.o
 .bss.efi_variables_list
                0x00000000878dfdd4        0x4 lib/built-in.o
 .bss.watchdog_timer_event
                0x00000000878dfdd8        0x4 lib/built-in.o
 .bss.new_rx_packet
                0x00000000878dfddc        0x1 lib/built-in.o
 *fill*         0x00000000878dfddd        0x3 
 .bss.wait_for_packet
                0x00000000878dfde0        0x4 lib/built-in.o
 .bss.network_timer_event
                0x00000000878dfde4        0x4 lib/built-in.o
 .bss.transmit_buffer
                0x00000000878dfde8        0x4 lib/built-in.o
 .bss.dhcp_ack  0x00000000878dfdec        0x4 lib/built-in.o
 .bss.new_tx_packet
                0x00000000878dfdf0        0x4 lib/built-in.o
 .bss.errno     0x00000000878dfdf4        0x4 lib/built-in.o
                0x00000000878dfdf4                errno
 .bss.___strtok
                0x00000000878dfdf8        0x4 lib/built-in.o
                0x00000000878dfdf8                ___strtok
 .bss.local.10207
                0x00000000878dfdfc       0x16 lib/built-in.o
 .bss.arp_tx_packet_buf
                0x00000000878dfe12      0x640 net/built-in.o
 *fill*         0x00000000878e0452        0x2 
 .bss.arp_wait_packet_ethaddr
                0x00000000878e0454        0x4 net/built-in.o
                0x00000000878e0454                arp_wait_packet_ethaddr
 .bss.arp_tx_packet
                0x00000000878e0458        0x4 net/built-in.o
                0x00000000878e0458                arp_tx_packet
 .bss.arp_wait_tx_packet_size
                0x00000000878e045c        0x4 net/built-in.o
                0x00000000878e045c                arp_wait_tx_packet_size
 .bss.arp_wait_try
                0x00000000878e0460        0x4 net/built-in.o
                0x00000000878e0460                arp_wait_try
 .bss.net_arp_wait_reply_ip
                0x00000000878e0464        0x4 net/built-in.o
 .bss.net_arp_wait_packet_ip
                0x00000000878e0468        0x4 net/built-in.o
                0x00000000878e0468                net_arp_wait_packet_ip
 .bss.arp_wait_timer_start
                0x00000000878e046c        0x4 net/built-in.o
                0x00000000878e046c                arp_wait_timer_start
 .bss.dhcp_state
                0x00000000878e0470        0x4 net/built-in.o
 .bss.net_hostname
                0x00000000878e0474       0x20 net/built-in.o
                0x00000000878e0474                net_hostname
 .bss.bootp_timeout
                0x00000000878e0494        0x4 net/built-in.o
                0x00000000878e0494                bootp_timeout
 .bss.dhcp_server_ip
                0x00000000878e0498        0x4 net/built-in.o
 .bss.dhcp_option_overload
                0x00000000878e049c        0x1 net/built-in.o
 *fill*         0x00000000878e049d        0x3 
 .bss.time_taken_max
                0x00000000878e04a0        0x4 net/built-in.o
 .bss.net_root_path
                0x00000000878e04a4       0x40 net/built-in.o
                0x00000000878e04a4                net_root_path
 .bss.bootp_ids
                0x00000000878e04e4       0x10 net/built-in.o
                0x00000000878e04e4                bootp_ids
 .bss.bootp_num_ids
                0x00000000878e04f4        0x4 net/built-in.o
                0x00000000878e04f4                bootp_num_ids
 .bss.bootp_try
                0x00000000878e04f8        0x4 net/built-in.o
                0x00000000878e04f8                bootp_try
 .bss.bootp_start
                0x00000000878e04fc        0x4 net/built-in.o
                0x00000000878e04fc                bootp_start
 .bss.dhcp_leasetime
                0x00000000878e0500        0x4 net/built-in.o
 .bss.net_nis_domain
                0x00000000878e0504       0x20 net/built-in.o
                0x00000000878e0504                net_nis_domain
 .bss.eth_errno
                0x00000000878e0524        0x4 net/built-in.o
 .bss.env_changed_id.10889
                0x00000000878e0528        0x4 net/built-in.o
 .bss.act.10888
                0x00000000878e052c        0x4 net/built-in.o
 .bss.first_failed.10883
                0x00000000878e0530        0x4 net/built-in.o
 .bss.net_server_ip
                0x00000000878e0534        0x4 net/built-in.o
                0x00000000878e0534                net_server_ip
 .bss.net_ethaddr
                0x00000000878e0538        0x6 net/built-in.o
                0x00000000878e0538                net_ethaddr
 *fill*         0x00000000878e053e        0x2 
 .bss.net_dns_server
                0x00000000878e0540        0x4 net/built-in.o
                0x00000000878e0540                net_dns_server
 .bss.net_state
                0x00000000878e0544        0x4 net/built-in.o
                0x00000000878e0544                net_state
 .bss.net_pkt_buf
                0x00000000878e0548     0x1e40 net/built-in.o
 .bss.net_rx_packet
                0x00000000878e2388        0x4 net/built-in.o
                0x00000000878e2388                net_rx_packet
 .bss.net_rx_packets
                0x00000000878e238c       0x10 net/built-in.o
                0x00000000878e238c                net_rx_packets
 .bss.time_start
                0x00000000878e239c        0x8 net/built-in.o
 .bss.net_gateway
                0x00000000878e23a4        0x4 net/built-in.o
                0x00000000878e23a4                net_gateway
 .bss.net_boot_file_name
                0x00000000878e23a8      0x400 net/built-in.o
                0x00000000878e23a8                net_boot_file_name
 .bss.udp_packet_handler
                0x00000000878e27a8        0x4 net/built-in.o
 .bss.net_boot_file_name_explicit
                0x00000000878e27ac        0x1 net/built-in.o
                0x00000000878e27ac                net_boot_file_name_explicit
 *fill*         0x00000000878e27ad        0x3 
 .bss.net_dev_exists
                0x00000000878e27b0        0x4 net/built-in.o
 .bss.net_try_count
                0x00000000878e27b4        0x4 net/built-in.o
 .bss.net_boot_file_expected_size_in_blocks
                0x00000000878e27b8        0x4 net/built-in.o
                0x00000000878e27b8                net_boot_file_expected_size_in_blocks
 .bss.net_null_ethaddr
                0x00000000878e27bc        0x6 net/built-in.o
                0x00000000878e27bc                net_null_ethaddr
 *fill*         0x00000000878e27c2        0x2 
 .bss.net_ip_id
                0x00000000878e27c4        0x4 net/built-in.o
 .bss.net_restart_wrap
                0x00000000878e27c8        0x4 net/built-in.o
                0x00000000878e27c8                net_restart_wrap
 .bss.net_restarted
                0x00000000878e27cc        0x4 net/built-in.o
 .bss.net_server_ethaddr
                0x00000000878e27d0        0x6 net/built-in.o
                0x00000000878e27d0                net_server_ethaddr
 *fill*         0x00000000878e27d6        0x2 
 .bss.arp_packet_handler
                0x00000000878e27d8        0x4 net/built-in.o
 .bss.net_netmask
                0x00000000878e27dc        0x4 net/built-in.o
                0x00000000878e27dc                net_netmask
 .bss.time_delta
                0x00000000878e27e0        0x4 net/built-in.o
 .bss.net_ip    0x00000000878e27e4        0x4 net/built-in.o
                0x00000000878e27e4                net_ip
 .bss.net_rx_packet_len
                0x00000000878e27e8        0x4 net/built-in.o
                0x00000000878e27e8                net_rx_packet_len
 .bss.net_tx_packet
                0x00000000878e27ec        0x4 net/built-in.o
                0x00000000878e27ec                net_tx_packet
 .bss.time_handler
                0x00000000878e27f0        0x4 net/built-in.o
 .bss.push_packet
                0x00000000878e27f4        0x4 net/built-in.o
                0x00000000878e27f4                push_packet
 .bss.net_boot_file_size
                0x00000000878e27f8        0x4 net/built-in.o
                0x00000000878e27f8                net_boot_file_size
 .bss.nfs_server_mount_port
                0x00000000878e27fc        0x4 net/built-in.o
 .bss.nfs_server_ip
                0x00000000878e2800        0x4 net/built-in.o
 .bss.nfs_filename
                0x00000000878e2804        0x4 net/built-in.o
 .bss.nfs_state
                0x00000000878e2808        0x4 net/built-in.o
 .bss.filefh3_length
                0x00000000878e280c        0x4 net/built-in.o
 .bss.dirfh     0x00000000878e2810       0x20 net/built-in.o
 .bss.rpc_id    0x00000000878e2830        0x4 net/built-in.o
 .bss.fs_mounted
                0x00000000878e2834        0x4 net/built-in.o
 .bss.nfs_len   0x00000000878e2838        0x4 net/built-in.o
 .bss.nfs_server_port
                0x00000000878e283c        0x4 net/built-in.o
 .bss.nfs_download_state
                0x00000000878e2840        0x4 net/built-in.o
 .bss.nfs_path  0x00000000878e2844        0x4 net/built-in.o
 .bss.nfs_path_buff
                0x00000000878e2848      0x800 net/built-in.o
 .bss.nfs_timeout_count
                0x00000000878e3048        0x4 net/built-in.o
 .bss.filefh    0x00000000878e304c       0x40 net/built-in.o
 .bss.nfs_our_port
                0x00000000878e308c        0x4 net/built-in.o
 .bss.net_ping_ip
                0x00000000878e3090        0x4 net/built-in.o
                0x00000000878e3090                net_ping_ip
 .bss.ping_seq_number
                0x00000000878e3094        0x2 net/built-in.o
 *fill*         0x00000000878e3096        0x2 
 .bss.tftp_load_size
                0x00000000878e3098        0x4 net/built-in.o
 .bss.tftp_prev_block
                0x00000000878e309c        0x4 net/built-in.o
 .bss.timeout_count
                0x00000000878e30a0        0x4 net/built-in.o
 .bss.tftp_block_wrap
                0x00000000878e30a4        0x4 net/built-in.o
 .bss.tftp_load_addr
                0x00000000878e30a8        0x4 net/built-in.o
 .bss.default_filename
                0x00000000878e30ac        0xd net/built-in.o
 *fill*         0x00000000878e30b9        0x3 
 .bss.tftp_remote_port
                0x00000000878e30bc        0x4 net/built-in.o
 .bss.tftp_cur_block
                0x00000000878e30c0        0x4 net/built-in.o
 .bss.tftp_remote_ip
                0x00000000878e30c4        0x4 net/built-in.o
 .bss.tftp_state
                0x00000000878e30c8        0x4 net/built-in.o
 .bss.tftp_our_port
                0x00000000878e30cc        0x4 net/built-in.o
 .bss.tftp_filename
                0x00000000878e30d0       0x80 net/built-in.o
 .bss.tftp_block_wrap_offset
                0x00000000878e3150        0x4 net/built-in.o
                0x00000000878e3154                . = ALIGN (0x4)
                0x00000000878e3154                __bss_limit = .

.bss_end        0x00000000878e3154        0x0
 *(.__bss_end)
 .__bss_end     0x00000000878e3154        0x0 arch/arm/lib/built-in.o
                0x00000000878e3154                __bss_end

.dynsym         0x00000000878d9a48       0x30
 *(.dynsym)
 .dynsym        0x00000000878d9a48       0x30 arch/arm/cpu/armv7/start.o

.dynbss         0x00000000878d9a78        0x0
 *(.dynbss)
 .dynbss        0x00000000878d9a78        0x0 arch/arm/cpu/armv7/start.o

.dynstr         0x00000000878d9a78        0x1
 *(.dynstr*)
 .dynstr        0x00000000878d9a78        0x1 arch/arm/cpu/armv7/start.o

.dynamic        0x00000000878d9a7c       0x98
 *(.dynamic*)
 .dynamic       0x00000000878d9a7c       0x98 arch/arm/cpu/armv7/start.o
                0x00000000878d9a7c                _DYNAMIC

.plt            0x00000000878d9b14        0x0
 *(.plt*)
 .plt           0x00000000878d9b14        0x0 arch/arm/cpu/armv7/start.o

.interp
 *(.interp*)

.gnu.hash       0x00000000878d9b14       0x18
 *(.gnu.hash)
 .gnu.hash      0x00000000878d9b14       0x18 arch/arm/cpu/armv7/start.o

.gnu            0x00000000878d9b2c        0x0
 *(.gnu*)
 .gnu.version_d
                0x00000000878d9b2c        0x0 arch/arm/cpu/armv7/start.o
 .gnu.version   0x00000000878d9b2c        0x0 arch/arm/cpu/armv7/start.o
 .gnu.version_r
                0x00000000878d9b2c        0x0 arch/arm/cpu/armv7/start.o

.ARM.exidx
 *(.ARM.exidx*)

.gnu.linkonce.armexidx
 *(.gnu.linkonce.armexidx.*)
LOAD arch/arm/cpu/armv7/start.o
START GROUP
LOAD arch/arm/cpu/built-in.o
LOAD arch/arm/cpu/armv7/built-in.o
LOAD arch/arm/lib/built-in.o
LOAD arch/arm/mach-imx/built-in.o
LOAD board/freescale/common/built-in.o
LOAD board/freescale/mx6ullevk/built-in.o
LOAD cmd/built-in.o
LOAD common/built-in.o
LOAD disk/built-in.o
LOAD drivers/built-in.o
LOAD drivers/dma/built-in.o
LOAD drivers/gpio/built-in.o
LOAD drivers/i2c/built-in.o
LOAD drivers/mtd/built-in.o
LOAD drivers/mtd/nand/raw/built-in.o
LOAD drivers/mtd/onenand/built-in.o
LOAD drivers/mtd/spi/built-in.o
LOAD drivers/mtd/ubi/built-in.o
LOAD drivers/net/built-in.o
LOAD drivers/net/phy/built-in.o
LOAD drivers/power/built-in.o
LOAD drivers/power/battery/built-in.o
LOAD drivers/power/domain/built-in.o
LOAD drivers/power/fuel_gauge/built-in.o
LOAD drivers/power/mfd/built-in.o
LOAD drivers/power/pmic/built-in.o
LOAD drivers/power/regulator/built-in.o
LOAD drivers/serial/built-in.o
LOAD drivers/spi/built-in.o
LOAD drivers/usb/cdns3/built-in.o
LOAD drivers/usb/common/built-in.o
LOAD drivers/usb/dwc3/built-in.o
LOAD drivers/usb/emul/built-in.o
LOAD drivers/usb/eth/built-in.o
LOAD drivers/usb/gadget/built-in.o
LOAD drivers/usb/gadget/udc/built-in.o
LOAD drivers/usb/host/built-in.o
LOAD drivers/usb/musb-new/built-in.o
LOAD drivers/usb/musb/built-in.o
LOAD drivers/usb/phy/built-in.o
LOAD drivers/usb/ulpi/built-in.o
LOAD env/built-in.o
LOAD fs/built-in.o
LOAD lib/built-in.o
LOAD net/built-in.o
END GROUP
LOAD arch/arm/lib/eabi_compat.o
LOAD arch/arm/lib/lib.a
OUTPUT(u-boot elf32-littlearm)

.ARM.attributes
                0x0000000000000000       0x2b
 .ARM.attributes
                0x0000000000000000       0x1f arch/arm/cpu/armv7/start.o
 .ARM.attributes
                0x000000000000001f       0x2d arch/arm/cpu/armv7/built-in.o
 .ARM.attributes
                0x000000000000004c       0x2b arch/arm/lib/built-in.o
 .ARM.attributes
                0x0000000000000077       0x2d arch/arm/mach-imx/built-in.o
 .ARM.attributes
                0x00000000000000a4       0x2d board/freescale/common/built-in.o
 .ARM.attributes
                0x00000000000000d1       0x2d board/freescale/mx6ullevk/built-in.o
 .ARM.attributes
                0x00000000000000fe       0x2d cmd/built-in.o
 .ARM.attributes
                0x000000000000012b       0x2d common/built-in.o
 .ARM.attributes
                0x0000000000000158       0x2d disk/built-in.o
 .ARM.attributes
                0x0000000000000185       0x2d drivers/built-in.o
 .ARM.attributes
                0x00000000000001b2       0x2d drivers/dma/built-in.o
 .ARM.attributes
                0x00000000000001df       0x2d drivers/gpio/built-in.o
 .ARM.attributes
                0x000000000000020c       0x2d drivers/i2c/built-in.o
 .ARM.attributes
                0x0000000000000239       0x2d drivers/mtd/built-in.o
 .ARM.attributes
                0x0000000000000266       0x2d drivers/mtd/nand/raw/built-in.o
 .ARM.attributes
                0x0000000000000293       0x2d drivers/mtd/spi/built-in.o
 .ARM.attributes
                0x00000000000002c0       0x2d drivers/mtd/ubi/built-in.o
 .ARM.attributes
                0x00000000000002ed       0x2d drivers/net/built-in.o
 .ARM.attributes
                0x000000000000031a       0x2d drivers/net/phy/built-in.o
 .ARM.attributes
                0x0000000000000347       0x2d drivers/power/regulator/built-in.o
 .ARM.attributes
                0x0000000000000374       0x2d drivers/serial/built-in.o
 .ARM.attributes
                0x00000000000003a1       0x2d drivers/spi/built-in.o
 .ARM.attributes
                0x00000000000003ce       0x2d drivers/usb/eth/built-in.o
 .ARM.attributes
                0x00000000000003fb       0x2d drivers/usb/gadget/built-in.o
 .ARM.attributes
                0x0000000000000428       0x2d drivers/usb/gadget/udc/built-in.o
 .ARM.attributes
                0x0000000000000455       0x2d drivers/usb/host/built-in.o
 .ARM.attributes
                0x0000000000000482       0x2d env/built-in.o
 .ARM.attributes
                0x00000000000004af       0x2d fs/built-in.o
 .ARM.attributes
                0x00000000000004dc       0x2d lib/built-in.o
 .ARM.attributes
                0x0000000000000509       0x2d net/built-in.o
 .ARM.attributes
                0x0000000000000536       0x1f arch/arm/lib/lib.a(ashldi3.o)
 .ARM.attributes
                0x0000000000000555       0x1f arch/arm/lib/lib.a(ashrdi3.o)
 .ARM.attributes
                0x0000000000000574       0x1f arch/arm/lib/lib.a(lib1funcs.o)
 .ARM.attributes
                0x0000000000000593       0x1f arch/arm/lib/lib.a(lshrdi3.o)
 .ARM.attributes
                0x00000000000005b2       0x1f arch/arm/lib/lib.a(uldivmod.o)
 .ARM.attributes
                0x00000000000005d1       0x2d arch/arm/lib/lib.a(div0.o)

.comment        0x0000000000000000       0x36
 .comment       0x0000000000000000       0x36 arch/arm/cpu/armv7/built-in.o
                                         0xdc (size before relaxing)
 .comment       0x0000000000000036      0x226 arch/arm/lib/built-in.o
 .comment       0x0000000000000036      0x302 arch/arm/mach-imx/built-in.o
 .comment       0x0000000000000036       0x37 board/freescale/common/built-in.o
 .comment       0x0000000000000036       0x37 board/freescale/mx6ullevk/built-in.o
 .comment       0x0000000000000036      0xaf5 cmd/built-in.o
 .comment       0x0000000000000036      0x717 common/built-in.o
 .comment       0x0000000000000036       0xa5 disk/built-in.o
 .comment       0x0000000000000036      0x93d drivers/built-in.o
 .comment       0x0000000000000036       0x37 drivers/dma/built-in.o
 .comment       0x0000000000000036       0xa5 drivers/gpio/built-in.o
 .comment       0x0000000000000036       0x6e drivers/i2c/built-in.o
 .comment       0x0000000000000036       0xdc drivers/mtd/built-in.o
 .comment       0x0000000000000036      0x1ef drivers/mtd/nand/raw/built-in.o
 .comment       0x0000000000000036       0xdc drivers/mtd/spi/built-in.o
 .comment       0x0000000000000036      0x294 drivers/mtd/ubi/built-in.o
 .comment       0x0000000000000036       0x37 drivers/net/built-in.o
 .comment       0x0000000000000036       0x6e drivers/net/phy/built-in.o
 .comment       0x0000000000000036       0xa5 drivers/power/regulator/built-in.o
 .comment       0x0000000000000036       0x6e drivers/serial/built-in.o
 .comment       0x0000000000000036       0xdc drivers/spi/built-in.o
 .comment       0x0000000000000036       0x6e drivers/usb/eth/built-in.o
 .comment       0x0000000000000036      0x14a drivers/usb/gadget/built-in.o
 .comment       0x0000000000000036       0x37 drivers/usb/gadget/udc/built-in.o
 .comment       0x0000000000000036       0xa5 drivers/usb/host/built-in.o
 .comment       0x0000000000000036      0x14a env/built-in.o
 .comment       0x0000000000000036      0x604 fs/built-in.o
 .comment       0x0000000000000036      0xf0a lib/built-in.o
 .comment       0x0000000000000036      0x1ef net/built-in.o
 .comment       0x0000000000000036       0x37 arch/arm/lib/lib.a(div0.o)

.note.GNU-stack
                0x0000000000000000        0x0
 .note.GNU-stack
                0x0000000000000000        0x0 arch/arm/cpu/armv7/built-in.o
 .note.GNU-stack
                0x0000000000000000        0x0 arch/arm/lib/built-in.o
 .note.GNU-stack
                0x0000000000000000        0x0 arch/arm/mach-imx/built-in.o
 .note.GNU-stack
                0x0000000000000000        0x0 board/freescale/common/built-in.o
 .note.GNU-stack
                0x0000000000000000        0x0 board/freescale/mx6ullevk/built-in.o
 .note.GNU-stack
                0x0000000000000000        0x0 cmd/built-in.o
 .note.GNU-stack
                0x0000000000000000        0x0 common/built-in.o
 .note.GNU-stack
                0x0000000000000000        0x0 disk/built-in.o
 .note.GNU-stack
                0x0000000000000000        0x0 drivers/built-in.o
 .note.GNU-stack
                0x0000000000000000        0x0 drivers/dma/built-in.o
 .note.GNU-stack
                0x0000000000000000        0x0 drivers/gpio/built-in.o
 .note.GNU-stack
                0x0000000000000000        0x0 drivers/i2c/built-in.o
 .note.GNU-stack
                0x0000000000000000        0x0 drivers/mtd/built-in.o
 .note.GNU-stack
                0x0000000000000000        0x0 drivers/mtd/nand/raw/built-in.o
 .note.GNU-stack
                0x0000000000000000        0x0 drivers/mtd/spi/built-in.o
 .note.GNU-stack
                0x0000000000000000        0x0 drivers/mtd/ubi/built-in.o
 .note.GNU-stack
                0x0000000000000000        0x0 drivers/net/built-in.o
 .note.GNU-stack
                0x0000000000000000        0x0 drivers/net/phy/built-in.o
 .note.GNU-stack
                0x0000000000000000        0x0 drivers/power/regulator/built-in.o
 .note.GNU-stack
                0x0000000000000000        0x0 drivers/serial/built-in.o
 .note.GNU-stack
                0x0000000000000000        0x0 drivers/spi/built-in.o
 .note.GNU-stack
                0x0000000000000000        0x0 drivers/usb/eth/built-in.o
 .note.GNU-stack
                0x0000000000000000        0x0 drivers/usb/gadget/built-in.o
 .note.GNU-stack
                0x0000000000000000        0x0 drivers/usb/gadget/udc/built-in.o
 .note.GNU-stack
                0x0000000000000000        0x0 drivers/usb/host/built-in.o
 .note.GNU-stack
                0x0000000000000000        0x0 env/built-in.o
 .note.GNU-stack
                0x0000000000000000        0x0 fs/built-in.o
 .note.GNU-stack
                0x0000000000000000        0x0 lib/built-in.o
 .note.GNU-stack
                0x0000000000000000        0x0 net/built-in.o
 .note.GNU-stack
                0x0000000000000000        0x0 arch/arm/lib/lib.a(div0.o)

.debug_line     0x0000000000000000    0x4a4cc
 .debug_line    0x0000000000000000       0x90 arch/arm/cpu/armv7/start.o
 .debug_line    0x0000000000000090      0x4f6 arch/arm/cpu/armv7/built-in.o
 .debug_line    0x0000000000000586     0x1128 arch/arm/lib/built-in.o
 .debug_line    0x00000000000016ae     0x22a0 arch/arm/mach-imx/built-in.o
 .debug_line    0x000000000000394e       0xe6 board/freescale/common/built-in.o
 .debug_line    0x0000000000003a34      0x33f board/freescale/mx6ullevk/built-in.o
 .debug_line    0x0000000000003d73     0x8275 cmd/built-in.o
 .debug_line    0x000000000000bfe8     0x76df common/built-in.o
 .debug_line    0x00000000000136c7      0xec6 disk/built-in.o
 .debug_line    0x000000000001458d     0x8b37 drivers/built-in.o
 .debug_line    0x000000000001d0c4      0x3af drivers/dma/built-in.o
 .debug_line    0x000000000001d473      0xc4a drivers/gpio/built-in.o
 .debug_line    0x000000000001e0bd      0x9a8 drivers/i2c/built-in.o
 .debug_line    0x000000000001ea65     0x14a2 drivers/mtd/built-in.o
 .debug_line    0x000000000001ff07     0x364c drivers/mtd/nand/raw/built-in.o
 .debug_line    0x0000000000023553      0xf39 drivers/mtd/spi/built-in.o
 .debug_line    0x000000000002448c     0x4af1 drivers/mtd/ubi/built-in.o
 .debug_line    0x0000000000028f7d      0x719 drivers/net/built-in.o
 .debug_line    0x0000000000029696      0x8a0 drivers/net/phy/built-in.o
 .debug_line    0x0000000000029f36      0x90b drivers/power/regulator/built-in.o
 .debug_line    0x000000000002a841      0x589 drivers/serial/built-in.o
 .debug_line    0x000000000002adca      0xf71 drivers/spi/built-in.o
 .debug_line    0x000000000002bd3b      0x663 drivers/usb/eth/built-in.o
 .debug_line    0x000000000002c39e     0x1ee7 drivers/usb/gadget/built-in.o
 .debug_line    0x000000000002e285      0x139 drivers/usb/gadget/udc/built-in.o
 .debug_line    0x000000000002e3be     0x12c0 drivers/usb/host/built-in.o
 .debug_line    0x000000000002f67e      0xd1c env/built-in.o
 .debug_line    0x000000000003039a     0xb655 fs/built-in.o
 .debug_line    0x000000000003b9ef     0xc5e2 lib/built-in.o
 .debug_line    0x0000000000047fd1     0x2227 net/built-in.o
 .debug_line    0x000000000004a1f8       0x4c arch/arm/lib/lib.a(ashldi3.o)
 .debug_line    0x000000000004a244       0x4c arch/arm/lib/lib.a(ashrdi3.o)
 .debug_line    0x000000000004a290      0x103 arch/arm/lib/lib.a(lib1funcs.o)
 .debug_line    0x000000000004a393       0x4c arch/arm/lib/lib.a(lshrdi3.o)
 .debug_line    0x000000000004a3df       0xab arch/arm/lib/lib.a(uldivmod.o)
 .debug_line    0x000000000004a48a       0x42 arch/arm/lib/lib.a(div0.o)

.debug_info     0x0000000000000000   0x248c55
 .debug_info    0x0000000000000000       0x60 arch/arm/cpu/armv7/start.o
 .debug_info    0x0000000000000060      0xba4 arch/arm/cpu/armv7/built-in.o
 .debug_info    0x0000000000000c04     0x5821 arch/arm/lib/built-in.o
 .debug_info    0x0000000000006425     0xeb4b arch/arm/mach-imx/built-in.o
 .debug_info    0x0000000000014f70      0x31f board/freescale/common/built-in.o
 .debug_info    0x000000000001528f     0x4d95 board/freescale/mx6ullevk/built-in.o
 .debug_info    0x000000000001a024    0x430cc cmd/built-in.o
 .debug_info    0x000000000005d0f0    0x3017d common/built-in.o
 .debug_info    0x000000000008d26d     0x5742 disk/built-in.o
 .debug_info    0x00000000000929af    0x3dff7 drivers/built-in.o
 .debug_info    0x00000000000d09a6     0x453f drivers/dma/built-in.o
 .debug_info    0x00000000000d4ee5     0x5965 drivers/gpio/built-in.o
 .debug_info    0x00000000000da84a     0x4fe8 drivers/i2c/built-in.o
 .debug_info    0x00000000000df832     0x8fb6 drivers/mtd/built-in.o
 .debug_info    0x00000000000e87e8    0x1f614 drivers/mtd/nand/raw/built-in.o
 .debug_info    0x0000000000107dfc     0x90c4 drivers/mtd/spi/built-in.o
 .debug_info    0x0000000000110ec0    0x2a499 drivers/mtd/ubi/built-in.o
 .debug_info    0x000000000013b359     0x407e drivers/net/built-in.o
 .debug_info    0x000000000013f3d7     0x3e48 drivers/net/phy/built-in.o
 .debug_info    0x000000000014321f     0x45ff drivers/power/regulator/built-in.o
 .debug_info    0x000000000014781e     0x2308 drivers/serial/built-in.o
 .debug_info    0x0000000000149b26     0x8c21 drivers/spi/built-in.o
 .debug_info    0x0000000000152747     0x3f68 drivers/usb/eth/built-in.o
 .debug_info    0x00000000001566af     0xd999 drivers/usb/gadget/built-in.o
 .debug_info    0x0000000000164048      0xc01 drivers/usb/gadget/udc/built-in.o
 .debug_info    0x0000000000164c49     0xaafb drivers/usb/host/built-in.o
 .debug_info    0x000000000016f744     0x5c82 env/built-in.o
 .debug_info    0x00000000001753c6    0x79eca fs/built-in.o
 .debug_info    0x00000000001ef290    0x4c53a lib/built-in.o
 .debug_info    0x000000000023b7ca     0xd26d net/built-in.o
 .debug_info    0x0000000000248a37       0x5c arch/arm/lib/lib.a(ashldi3.o)
 .debug_info    0x0000000000248a93       0x5c arch/arm/lib/lib.a(ashrdi3.o)
 .debug_info    0x0000000000248aef       0x5a arch/arm/lib/lib.a(lib1funcs.o)
 .debug_info    0x0000000000248b49       0x5c arch/arm/lib/lib.a(lshrdi3.o)
 .debug_info    0x0000000000248ba5       0x5d arch/arm/lib/lib.a(uldivmod.o)
 .debug_info    0x0000000000248c02       0x53 arch/arm/lib/lib.a(div0.o)

.debug_abbrev   0x0000000000000000    0x47155
 .debug_abbrev  0x0000000000000000       0x14 arch/arm/cpu/armv7/start.o
 .debug_abbrev  0x0000000000000014      0x4c8 arch/arm/cpu/armv7/built-in.o
 .debug_abbrev  0x00000000000004dc     0x1330 arch/arm/lib/built-in.o
 .debug_abbrev  0x000000000000180c     0x2461 arch/arm/mach-imx/built-in.o
 .debug_abbrev  0x0000000000003c6d      0x1ba board/freescale/common/built-in.o
 .debug_abbrev  0x0000000000003e27      0x427 board/freescale/mx6ullevk/built-in.o
 .debug_abbrev  0x000000000000424e     0x986c cmd/built-in.o
 .debug_abbrev  0x000000000000daba     0x7152 common/built-in.o
 .debug_abbrev  0x0000000000014c0c      0xe3a disk/built-in.o
 .debug_abbrev  0x0000000000015a46     0x926f drivers/built-in.o
 .debug_abbrev  0x000000000001ecb5      0x4d9 drivers/dma/built-in.o
 .debug_abbrev  0x000000000001f18e      0xbc8 drivers/gpio/built-in.o
 .debug_abbrev  0x000000000001fd56      0xa75 drivers/i2c/built-in.o
 .debug_abbrev  0x00000000000207cb     0x11f5 drivers/mtd/built-in.o
 .debug_abbrev  0x00000000000219c0     0x25a7 drivers/mtd/nand/raw/built-in.o
 .debug_abbrev  0x0000000000023f67      0xdd4 drivers/mtd/spi/built-in.o
 .debug_abbrev  0x0000000000024d3b     0x3e0d drivers/mtd/ubi/built-in.o
 .debug_abbrev  0x0000000000028b48      0x617 drivers/net/built-in.o
 .debug_abbrev  0x000000000002915f      0x85c drivers/net/phy/built-in.o
 .debug_abbrev  0x00000000000299bb      0xa19 drivers/power/regulator/built-in.o
 .debug_abbrev  0x000000000002a3d4      0x7ab drivers/serial/built-in.o
 .debug_abbrev  0x000000000002ab7f      0xfc8 drivers/spi/built-in.o
 .debug_abbrev  0x000000000002bb47      0x7d7 drivers/usb/eth/built-in.o
 .debug_abbrev  0x000000000002c31e     0x1923 drivers/usb/gadget/built-in.o
 .debug_abbrev  0x000000000002dc41      0x187 drivers/usb/gadget/udc/built-in.o
 .debug_abbrev  0x000000000002ddc8     0x1108 drivers/usb/host/built-in.o
 .debug_abbrev  0x000000000002eed0     0x1347 env/built-in.o
 .debug_abbrev  0x0000000000030217     0x8e76 fs/built-in.o
 .debug_abbrev  0x000000000003908d     0xbd90 lib/built-in.o
 .debug_abbrev  0x0000000000044e1d     0x2289 net/built-in.o
 .debug_abbrev  0x00000000000470a6       0x14 arch/arm/lib/lib.a(ashldi3.o)
 .debug_abbrev  0x00000000000470ba       0x14 arch/arm/lib/lib.a(ashrdi3.o)
 .debug_abbrev  0x00000000000470ce       0x12 arch/arm/lib/lib.a(lib1funcs.o)
 .debug_abbrev  0x00000000000470e0       0x14 arch/arm/lib/lib.a(lshrdi3.o)
 .debug_abbrev  0x00000000000470f4       0x14 arch/arm/lib/lib.a(uldivmod.o)
 .debug_abbrev  0x0000000000047108       0x4d arch/arm/lib/lib.a(div0.o)

.debug_aranges  0x0000000000000000     0x8828
 .debug_aranges
                0x0000000000000000       0x20 arch/arm/cpu/armv7/start.o
 .debug_aranges
                0x0000000000000020      0x168 arch/arm/cpu/armv7/built-in.o
 .debug_aranges
                0x0000000000000188      0x330 arch/arm/lib/built-in.o
 .debug_aranges
                0x00000000000004b8      0x438 arch/arm/mach-imx/built-in.o
 .debug_aranges
                0x00000000000008f0       0x28 board/freescale/common/built-in.o
 .debug_aranges
                0x0000000000000918       0x50 board/freescale/mx6ullevk/built-in.o
 .debug_aranges
                0x0000000000000968      0xd28 cmd/built-in.o
 .debug_aranges
                0x0000000000001690     0x1028 common/built-in.o
 .debug_aranges
                0x00000000000026b8      0x170 disk/built-in.o
 .debug_aranges
                0x0000000000002828     0x1130 drivers/built-in.o
 .debug_aranges
                0x0000000000003958       0x78 drivers/dma/built-in.o
 .debug_aranges
                0x00000000000039d0      0x218 drivers/gpio/built-in.o
 .debug_aranges
                0x0000000000003be8      0x138 drivers/i2c/built-in.o
 .debug_aranges
                0x0000000000003d20      0x2e0 drivers/mtd/built-in.o
 .debug_aranges
                0x0000000000004000      0x4b8 drivers/mtd/nand/raw/built-in.o
 .debug_aranges
                0x00000000000044b8      0x170 drivers/mtd/spi/built-in.o
 .debug_aranges
                0x0000000000004628      0x560 drivers/mtd/ubi/built-in.o
 .debug_aranges
                0x0000000000004b88       0xa0 drivers/net/built-in.o
 .debug_aranges
                0x0000000000004c28      0x118 drivers/net/phy/built-in.o
 .debug_aranges
                0x0000000000004d40      0x130 drivers/power/regulator/built-in.o
 .debug_aranges
                0x0000000000004e70      0x110 drivers/serial/built-in.o
 .debug_aranges
                0x0000000000004f80      0x1c8 drivers/spi/built-in.o
 .debug_aranges
                0x0000000000005148       0xd0 drivers/usb/eth/built-in.o
 .debug_aranges
                0x0000000000005218      0x318 drivers/usb/gadget/built-in.o
 .debug_aranges
                0x0000000000005530       0x18 drivers/usb/gadget/udc/built-in.o
 .debug_aranges
                0x0000000000005548      0x230 drivers/usb/host/built-in.o
 .debug_aranges
                0x0000000000005778      0x1d0 env/built-in.o
 .debug_aranges
                0x0000000000005948      0xf00 fs/built-in.o
 .debug_aranges
                0x0000000000006848     0x1ac0 lib/built-in.o
 .debug_aranges
                0x0000000000008308      0x438 net/built-in.o
 .debug_aranges
                0x0000000000008740       0x20 arch/arm/lib/lib.a(ashldi3.o)
 .debug_aranges
                0x0000000000008760       0x20 arch/arm/lib/lib.a(ashrdi3.o)
 .debug_aranges
                0x0000000000008780       0x48 arch/arm/lib/lib.a(lib1funcs.o)
 .debug_aranges
                0x00000000000087c8       0x20 arch/arm/lib/lib.a(lshrdi3.o)
 .debug_aranges
                0x00000000000087e8       0x20 arch/arm/lib/lib.a(uldivmod.o)
 .debug_aranges
                0x0000000000008808       0x20 arch/arm/lib/lib.a(div0.o)

.debug_frame    0x0000000000000000    0x18e9c
 .debug_frame   0x0000000000000000      0x1e0 arch/arm/cpu/armv7/built-in.o
 .debug_frame   0x00000000000001e0      0x47c arch/arm/lib/built-in.o
 .debug_frame   0x000000000000065c      0x9cc arch/arm/mach-imx/built-in.o
 .debug_frame   0x0000000000001028       0x40 board/freescale/common/built-in.o
 .debug_frame   0x0000000000001068       0xc0 board/freescale/mx6ullevk/built-in.o
 .debug_frame   0x0000000000001128     0x2534 cmd/built-in.o
 .debug_frame   0x000000000000365c     0x2dbc common/built-in.o
 .debug_frame   0x0000000000006418      0x56c disk/built-in.o
 .debug_frame   0x0000000000006984     0x3008 drivers/built-in.o
 .debug_frame   0x000000000000998c      0x138 drivers/dma/built-in.o
 .debug_frame   0x0000000000009ac4      0x6c4 drivers/gpio/built-in.o
 .debug_frame   0x000000000000a188      0x45c drivers/i2c/built-in.o
 .debug_frame   0x000000000000a5e4      0xa24 drivers/mtd/built-in.o
 .debug_frame   0x000000000000b008     0x1054 drivers/mtd/nand/raw/built-in.o
 .debug_frame   0x000000000000c05c      0x448 drivers/mtd/spi/built-in.o
 .debug_frame   0x000000000000c4a4     0x1294 drivers/mtd/ubi/built-in.o
 .debug_frame   0x000000000000d738      0x20c drivers/net/built-in.o
 .debug_frame   0x000000000000d944      0x31c drivers/net/phy/built-in.o
 .debug_frame   0x000000000000dc60      0x3b0 drivers/power/regulator/built-in.o
 .debug_frame   0x000000000000e010      0x294 drivers/serial/built-in.o
 .debug_frame   0x000000000000e2a4      0x504 drivers/spi/built-in.o
 .debug_frame   0x000000000000e7a8      0x288 drivers/usb/eth/built-in.o
 .debug_frame   0x000000000000ea30      0x8b4 drivers/usb/gadget/built-in.o
 .debug_frame   0x000000000000f2e4      0x654 drivers/usb/host/built-in.o
 .debug_frame   0x000000000000f938      0x520 env/built-in.o
 .debug_frame   0x000000000000fe58     0x33d8 fs/built-in.o
 .debug_frame   0x0000000000013230     0x4f3c lib/built-in.o
 .debug_frame   0x000000000001816c      0xd10 net/built-in.o
 .debug_frame   0x0000000000018e7c       0x20 arch/arm/lib/lib.a(div0.o)

.debug_str      0x0000000000000000    0x385fd
 .debug_str     0x0000000000000000      0x5c4 arch/arm/cpu/armv7/built-in.o
                                        0xf2c (size before relaxing)
 .debug_str     0x00000000000005c4     0x1df2 arch/arm/lib/built-in.o
                                       0x604b (size before relaxing)
 .debug_str     0x00000000000023b6     0x25ab arch/arm/mach-imx/built-in.o
                                       0xc43e (size before relaxing)
 .debug_str     0x0000000000004961       0x84 board/freescale/common/built-in.o
                                        0x393 (size before relaxing)
 .debug_str     0x00000000000049e5     0x7cad board/freescale/mx6ullevk/built-in.o
                                       0x9c0a (size before relaxing)
 .debug_str     0x000000000000c692     0x6d60 cmd/built-in.o
                                      0x30bfc (size before relaxing)
 .debug_str     0x00000000000133f2     0x3da4 common/built-in.o
                                      0x22652 (size before relaxing)
 .debug_str     0x0000000000017196      0x8e6 disk/built-in.o
                                       0x2a49 (size before relaxing)
 .debug_str     0x0000000000017a7c     0x5bb4 drivers/built-in.o
                                      0x2d456 (size before relaxing)
 .debug_str     0x000000000001d630     0x392f drivers/dma/built-in.o
                                       0x470c (size before relaxing)
 .debug_str     0x0000000000020f5f      0x666 drivers/gpio/built-in.o
                                       0x38c9 (size before relaxing)
 .debug_str     0x00000000000215c5      0x4cb drivers/i2c/built-in.o
                                       0x28dc (size before relaxing)
 .debug_str     0x0000000000021a90      0x7b6 drivers/mtd/built-in.o
                                       0x5185 (size before relaxing)
 .debug_str     0x0000000000022246     0x278f drivers/mtd/nand/raw/built-in.o
                                      0x11dc4 (size before relaxing)
 .debug_str     0x00000000000249d5      0xa79 drivers/mtd/spi/built-in.o
                                       0x5c0e (size before relaxing)
 .debug_str     0x000000000002544e     0x147e drivers/mtd/ubi/built-in.o
                                      0x144ee (size before relaxing)
 .debug_str     0x00000000000268cc      0x7fb drivers/net/built-in.o
                                       0x1d89 (size before relaxing)
 .debug_str     0x00000000000270c7      0x325 drivers/net/phy/built-in.o
                                       0x2803 (size before relaxing)
 .debug_str     0x00000000000273ec      0x5f5 drivers/power/regulator/built-in.o
                                       0x3811 (size before relaxing)
 .debug_str     0x00000000000279e1      0x203 drivers/serial/built-in.o
                                       0x1d76 (size before relaxing)
 .debug_str     0x0000000000027be4      0x740 drivers/spi/built-in.o
                                       0x497e (size before relaxing)
 .debug_str     0x0000000000028324      0x35a drivers/usb/eth/built-in.o
                                       0x2a71 (size before relaxing)
 .debug_str     0x000000000002867e     0x1759 drivers/usb/gadget/built-in.o
                                       0x6fec (size before relaxing)
 .debug_str     0x0000000000029dd7       0x4f drivers/usb/gadget/udc/built-in.o
                                        0xe62 (size before relaxing)
 .debug_str     0x0000000000029e26      0x97d drivers/usb/host/built-in.o
                                       0x5ab7 (size before relaxing)
 .debug_str     0x000000000002a7a3      0x777 env/built-in.o
                                       0x54cc (size before relaxing)
 .debug_str     0x000000000002af1a     0x5bc9 fs/built-in.o
                                      0x3b804 (size before relaxing)
 .debug_str     0x0000000000030ae3     0x66cf lib/built-in.o
                                      0x2df81 (size before relaxing)
 .debug_str     0x00000000000371b2     0x1430 net/built-in.o
                                       0xaa58 (size before relaxing)
 .debug_str     0x00000000000385e2       0x1b arch/arm/lib/lib.a(div0.o)
                                        0x1e6 (size before relaxing)

.debug_loc      0x0000000000000000   0x100d19
 .debug_loc     0x0000000000000000      0x40e arch/arm/cpu/armv7/built-in.o
 .debug_loc     0x000000000000040e      0xde6 arch/arm/lib/built-in.o
 .debug_loc     0x00000000000011f4     0x3b0a arch/arm/mach-imx/built-in.o
 .debug_loc     0x0000000000004cfe       0x31 board/freescale/common/built-in.o
 .debug_loc     0x0000000000004d2f       0x65 board/freescale/mx6ullevk/built-in.o
 .debug_loc     0x0000000000004d94    0x16f67 cmd/built-in.o
 .debug_loc     0x000000000001bcfb    0x135ed common/built-in.o
 .debug_loc     0x000000000002f2e8     0x2665 disk/built-in.o
 .debug_loc     0x000000000003194d    0x14e92 drivers/built-in.o
 .debug_loc     0x00000000000467df      0xa8a drivers/dma/built-in.o
 .debug_loc     0x0000000000047269     0x2032 drivers/gpio/built-in.o
 .debug_loc     0x000000000004929b     0x2202 drivers/i2c/built-in.o
 .debug_loc     0x000000000004b49d     0x3ebf drivers/mtd/built-in.o
 .debug_loc     0x000000000004f35c     0xf0b3 drivers/mtd/nand/raw/built-in.o
 .debug_loc     0x000000000005e40f     0x39a1 drivers/mtd/spi/built-in.o
 .debug_loc     0x0000000000061db0     0xdfcc drivers/mtd/ubi/built-in.o
 .debug_loc     0x000000000006fd7c     0x14cb drivers/net/built-in.o
 .debug_loc     0x0000000000071247     0x2005 drivers/net/phy/built-in.o
 .debug_loc     0x000000000007324c     0x166d drivers/power/regulator/built-in.o
 .debug_loc     0x00000000000748b9      0x603 drivers/serial/built-in.o
 .debug_loc     0x0000000000074ebc     0x8005 drivers/spi/built-in.o
 .debug_loc     0x000000000007cec1      0xdf9 drivers/usb/eth/built-in.o
 .debug_loc     0x000000000007dcba     0x6ede drivers/usb/gadget/built-in.o
 .debug_loc     0x0000000000084b98     0x3c1e drivers/usb/host/built-in.o
 .debug_loc     0x00000000000887b6     0x1be1 env/built-in.o
 .debug_loc     0x000000000008a397    0x47493 fs/built-in.o
 .debug_loc     0x00000000000d182a    0x2a730 lib/built-in.o
 .debug_loc     0x00000000000fbf5a     0x4dbf net/built-in.o

.debug_ranges   0x0000000000000000    0x12fb8
 .debug_ranges  0x0000000000000000       0xf8 arch/arm/cpu/armv7/built-in.o
 .debug_ranges  0x00000000000000f8      0x388 arch/arm/lib/built-in.o
 .debug_ranges  0x0000000000000480      0x6d0 arch/arm/mach-imx/built-in.o
 .debug_ranges  0x0000000000000b50       0x18 board/freescale/common/built-in.o
 .debug_ranges  0x0000000000000b68       0x88 board/freescale/mx6ullevk/built-in.o
 .debug_ranges  0x0000000000000bf0     0x17e0 cmd/built-in.o
 .debug_ranges  0x00000000000023d0     0x1970 common/built-in.o
 .debug_ranges  0x0000000000003d40      0x418 disk/built-in.o
 .debug_ranges  0x0000000000004158     0x2170 drivers/built-in.o
 .debug_ranges  0x00000000000062c8       0xd8 drivers/dma/built-in.o
 .debug_ranges  0x00000000000063a0      0x2f0 drivers/gpio/built-in.o
 .debug_ranges  0x0000000000006690      0x2d0 drivers/i2c/built-in.o
 .debug_ranges  0x0000000000006960      0x5c8 drivers/mtd/built-in.o
 .debug_ranges  0x0000000000006f28      0xd00 drivers/mtd/nand/raw/built-in.o
 .debug_ranges  0x0000000000007c28      0x4c0 drivers/mtd/spi/built-in.o
 .debug_ranges  0x00000000000080e8     0x1288 drivers/mtd/ubi/built-in.o
 .debug_ranges  0x0000000000009370      0x320 drivers/net/built-in.o
 .debug_ranges  0x0000000000009690      0x2c0 drivers/net/phy/built-in.o
 .debug_ranges  0x0000000000009950      0x148 drivers/power/regulator/built-in.o
 .debug_ranges  0x0000000000009a98      0x150 drivers/serial/built-in.o
 .debug_ranges  0x0000000000009be8      0x440 drivers/spi/built-in.o
 .debug_ranges  0x000000000000a028      0x190 drivers/usb/eth/built-in.o
 .debug_ranges  0x000000000000a1b8      0xc80 drivers/usb/gadget/built-in.o
 .debug_ranges  0x000000000000ae38      0x610 drivers/usb/host/built-in.o
 .debug_ranges  0x000000000000b448      0x278 env/built-in.o
 .debug_ranges  0x000000000000b6c0     0x3930 fs/built-in.o
 .debug_ranges  0x000000000000eff0     0x3708 lib/built-in.o
 .debug_ranges  0x00000000000126f8      0x870 net/built-in.o
 .debug_ranges  0x0000000000012f68       0x40 arch/arm/lib/lib.a(lib1funcs.o)
 .debug_ranges  0x0000000000012fa8       0x10 arch/arm/lib/lib.a(div0.o)
